   1               		.file	"stk500boot.c"
   2               	__SREG__ = 0x3f
   3               	__SP_H__ = 0x3e
   4               	__SP_L__ = 0x3d
   5               	__CCP__  = 0x34
   6               	__tmp_reg__ = 0
   7               	__zero_reg__ = 1
  15               	.Ltext0:
  16               		.section	.init9,"ax",@progbits
  17               	.global	__jumpMain
  19               	__jumpMain:
  20               	.LFB6:
  21               	.LSM0:
  22               	/* prologue: naked */
  23               	/* frame size = 0 */
  24               	.LSM1:
  25               	/* #APP */
  26               	 ;  438 "stk500boot.c" 1
  27               		.set __stack, 8703
  28               	 ;  0 "" 2
  29               	.LSM2:
  30               	 ;  442 "stk500boot.c" 1
  31 0000 01E2      		ldi	16, 33
  32               	 ;  0 "" 2
  33               	.LSM3:
  34               	 ;  443 "stk500boot.c" 1
  35 0002 0EBF      		out 62,16
  36               	 ;  0 "" 2
  37               	.LSM4:
  38               	 ;  445 "stk500boot.c" 1
  39 0004 0FEF      		ldi	16, 255
  40               	 ;  0 "" 2
  41               	.LSM5:
  42               	 ;  446 "stk500boot.c" 1
  43 0006 0DBF      		out 61,16
  44               	 ;  0 "" 2
  45               	.LSM6:
  46               	 ;  448 "stk500boot.c" 1
  47 0008 1124      		clr __zero_reg__
  48               	 ;  0 "" 2
  49               	.LSM7:
  50               	 ;  449 "stk500boot.c" 1
  51 000a 1FBE      		out 63, __zero_reg__
  52               	 ;  0 "" 2
  53               	.LSM8:
  54               	 ;  450 "stk500boot.c" 1
  55 000c 0C94 0000 		jmp main
  56               	 ;  0 "" 2
  57               	/* epilogue start */
  58               	.LSM9:
  59               	/* #NOAPP */
  60               	.LFE6:
  62               		.text
  63               	.global	delay_ms
  65               	delay_ms:
  66               	.LFB7:
  67               	.LM1:
  68               	.LVL0:
  69               	/* prologue: function */
  70               	/* frame size = 0 */
  71               	.LM2:
  72 0000 20E0      		ldi r18,lo8(0)
  73 0002 30E0      		ldi r19,hi8(0)
  74               	.LVL1:
  75               	.LBB286:
  76               	.LBB287:
  77               	.LBB288:
  78               	.LBB289:
  79               	.LM3:
  80 0004 40ED      		ldi r20,lo8(2000)
  81 0006 57E0      		ldi r21,hi8(2000)
  82 0008 00C0      		rjmp .L4
  83               	.LVL2:
  84               	.L5:
  85 000a FA01      		movw r30,r20
  86               	/* #APP */
  87               	 ;  105 "c:/winavr-20100110/lib/gcc/../../avr/include/util/delay_basic.h" 1
  88 000c 3197      		1: sbiw r30,1
  89 000e 01F4      		brne 1b
  90               	 ;  0 "" 2
  91               	/* #NOAPP */
  92               	.LBE289:
  93               	.LBE288:
  94               	.LBE287:
  95               	.LBE286:
  96               	.LM4:
  97 0010 2F5F      		subi r18,lo8(-(1))
  98 0012 3F4F      		sbci r19,hi8(-(1))
  99               	.L4:
 100 0014 2817      		cp r18,r24
 101 0016 3907      		cpc r19,r25
 102 0018 00F0      		brlo .L5
 103               	/* epilogue start */
 104               	.LM5:
 105 001a 0895      		ret
 106               	.LFE7:
 108               	.global	init_ports
 110               	init_ports:
 111               	.LFB12:
 112               	.LM6:
 113               	/* prologue: function */
 114               	/* frame size = 0 */
 115               	.LM7:
 116 001c 1092 0401 		sts 260,__zero_reg__
 117               	.LM8:
 118 0020 1092 0501 		sts 261,__zero_reg__
 119               	.LM9:
 120 0024 88E0      		ldi r24,lo8(8)
 121 0026 8DB9      		out 45-32,r24
 122               	.LM10:
 123 0028 1EB8      		out 46-32,__zero_reg__
 124               	.LM11:
 125 002a 90E8      		ldi r25,lo8(-128)
 126 002c 97B9      		out 39-32,r25
 127               	.LM12:
 128 002e 18B8      		out 40-32,__zero_reg__
 129               	.LM13:
 130 0030 98E8      		ldi r25,lo8(-120)
 131 0032 91B9      		out 33-32,r25
 132               	.LM14:
 133 0034 12B8      		out 34-32,__zero_reg__
 134               	.LM15:
 135 0036 80BB      		out 48-32,r24
 136               	.LM16:
 137 0038 11BA      		out 49-32,__zero_reg__
 138               	/* epilogue start */
 139               	.LM17:
 140 003a 0895      		ret
 141               	.LFE12:
 143               	.global	PrintFromPROGMEM
 145               	PrintFromPROGMEM:
 146               	.LFB16:
 147               	.LM18:
 148               	.LVL3:
 149               	/* prologue: function */
 150               	/* frame size = 0 */
 151               	.LM19:
 152 003c 9C01      		movw r18,r24
 153 003e 260F      		add r18,r22
 154 0040 311D      		adc r19,__zero_reg__
 155               	.LVL4:
 156               	.L12:
 157               	.LBB290:
 158               	.LM20:
 159 0042 C901      		movw r24,r18
 160               	.LVL5:
 161 0044 A0E0      		ldi r26,lo8(0)
 162 0046 B0E0      		ldi r27,hi8(0)
 163 0048 2F5F      		subi r18,lo8(-(1))
 164 004a 3F4F      		sbci r19,hi8(-(1))
 165               	/* #APP */
 166               	 ;  1318 "stk500boot.c" 1
 167 004c ABBF      		out 59, r26
 168 004e FC01      		movw r30, r24
 169 0050 8791      		elpm r24, Z+
 170               		
 171               	 ;  0 "" 2
 172               	.LVL6:
 173               	/* #NOAPP */
 174               	.LBE290:
 175               	.LM21:
 176 0052 8823      		tst r24
 177 0054 01F0      		breq .L13
 178               	.LBB291:
 179               	.LBB292:
 180               	.LM22:
 181 0056 8093 C600 		sts 198,r24
 182               	.L11:
 183               	.LM23:
 184 005a 8091 C000 		lds r24,192
 185               	.LVL7:
 186 005e 86FF      		sbrs r24,6
 187 0060 00C0      		rjmp .L11
 188               	.LM24:
 189 0062 8091 C000 		lds r24,192
 190 0066 8064      		ori r24,lo8(64)
 191 0068 8093 C000 		sts 192,r24
 192 006c 00C0      		rjmp .L12
 193               	.LVL8:
 194               	.L13:
 195 006e 0895      		ret
 196               	.LBE292:
 197               	.LBE291:
 198               	.LFE16:
 200               	.global	PrintNewLine
 202               	PrintNewLine:
 203               	.LFB17:
 204               	.LM25:
 205               	/* prologue: function */
 206               	/* frame size = 0 */
 207               	.LBB293:
 208               	.LBB294:
 209               	.LM26:
 210 0070 8DE0      		ldi r24,lo8(13)
 211 0072 8093 C600 		sts 198,r24
 212               	.L16:
 213               	.LM27:
 214 0076 8091 C000 		lds r24,192
 215 007a 86FF      		sbrs r24,6
 216 007c 00C0      		rjmp .L16
 217               	.LM28:
 218 007e 8091 C000 		lds r24,192
 219 0082 8064      		ori r24,lo8(64)
 220 0084 8093 C000 		sts 192,r24
 221               	.LBE294:
 222               	.LBE293:
 223               	.LBB295:
 224               	.LBB296:
 225               	.LM29:
 226 0088 8AE0      		ldi r24,lo8(10)
 227 008a 8093 C600 		sts 198,r24
 228               	.L17:
 229               	.LM30:
 230 008e 8091 C000 		lds r24,192
 231 0092 86FF      		sbrs r24,6
 232 0094 00C0      		rjmp .L17
 233               	.LM31:
 234 0096 8091 C000 		lds r24,192
 235 009a 8064      		ori r24,lo8(64)
 236 009c 8093 C000 		sts 192,r24
 237               	/* epilogue start */
 238               	.LBE296:
 239               	.LBE295:
 240               	.LM32:
 241 00a0 0895      		ret
 242               	.LFE17:
 244               	.global	PrintFromPROGMEMln
 246               	PrintFromPROGMEMln:
 247               	.LFB18:
 248               	.LM33:
 249               	.LVL9:
 250               	/* prologue: function */
 251               	/* frame size = 0 */
 252               	.LM34:
 253 00a2 0E94 0000 		call PrintFromPROGMEM
 254               	.LVL10:
 255               	.LM35:
 256 00a6 0E94 0000 		call PrintNewLine
 257               	/* epilogue start */
 258               	.LM36:
 259 00aa 0895      		ret
 260               	.LFE18:
 262               	.global	PrintString
 264               	PrintString:
 265               	.LFB19:
 266               	.LM37:
 267               	.LVL11:
 268               	/* prologue: function */
 269               	/* frame size = 0 */
 270               	.LM38:
 271 00ac FC01      		movw r30,r24
 272               	.LVL12:
 273               	.L26:
 274               	.LM39:
 275 00ae 9081      		ld r25,Z
 276               	.LM40:
 277 00b0 9923      		tst r25
 278 00b2 01F0      		breq .L24
 279               	.LBB297:
 280               	.LBB298:
 281               	.LM41:
 282 00b4 9093 C600 		sts 198,r25
 283               	.L25:
 284               	.LM42:
 285 00b8 8091 C000 		lds r24,192
 286 00bc 86FF      		sbrs r24,6
 287 00be 00C0      		rjmp .L25
 288               	.LM43:
 289 00c0 8091 C000 		lds r24,192
 290 00c4 8064      		ori r24,lo8(64)
 291 00c6 8093 C000 		sts 192,r24
 292               	.L24:
 293 00ca 3196      		adiw r30,1
 294               	.LBE298:
 295               	.LBE297:
 296               	.LM44:
 297 00cc 9923      		tst r25
 298 00ce 01F4      		brne .L26
 299               	/* epilogue start */
 300               	.LM45:
 301 00d0 0895      		ret
 302               	.LFE19:
 304               	.global	PrintHexByte
 306               	PrintHexByte:
 307               	.LFB20:
 308               	.LM46:
 309               	.LVL13:
 310               	/* prologue: function */
 311               	/* frame size = 0 */
 312 00d2 282F      		mov r18,r24
 313               	.LM47:
 314 00d4 982F      		mov r25,r24
 315 00d6 9295      		swap r25
 316 00d8 9F70      		andi r25,lo8(15)
 317 00da 892F      		mov r24,r25
 318               	.LVL14:
 319 00dc 805D      		subi r24,lo8(-(48))
 320               	.LM48:
 321 00de 8A33      		cpi r24,lo8(58)
 322 00e0 00F0      		brlo .L31
 323               	.LM49:
 324 00e2 895F      		subi r24,lo8(-(7))
 325               	.L31:
 326               	.LBB299:
 327               	.LBB300:
 328               	.LM50:
 329 00e4 8093 C600 		sts 198,r24
 330               	.L32:
 331               	.LM51:
 332 00e8 8091 C000 		lds r24,192
 333               	.LVL15:
 334 00ec 86FF      		sbrs r24,6
 335 00ee 00C0      		rjmp .L32
 336               	.LM52:
 337 00f0 8091 C000 		lds r24,192
 338 00f4 8064      		ori r24,lo8(64)
 339 00f6 8093 C000 		sts 192,r24
 340               	.LBE300:
 341               	.LBE299:
 342               	.LM53:
 343 00fa 822F      		mov r24,r18
 344 00fc 8F70      		andi r24,lo8(15)
 345 00fe 982F      		mov r25,r24
 346               	.LVL16:
 347 0100 905D      		subi r25,lo8(-(48))
 348               	.LM54:
 349 0102 9A33      		cpi r25,lo8(58)
 350 0104 00F0      		brlo .L33
 351               	.LM55:
 352 0106 995F      		subi r25,lo8(-(7))
 353               	.L33:
 354               	.LBB301:
 355               	.LBB302:
 356               	.LM56:
 357 0108 9093 C600 		sts 198,r25
 358               	.L34:
 359               	.LM57:
 360 010c 8091 C000 		lds r24,192
 361 0110 86FF      		sbrs r24,6
 362 0112 00C0      		rjmp .L34
 363               	.LM58:
 364 0114 8091 C000 		lds r24,192
 365 0118 8064      		ori r24,lo8(64)
 366 011a 8093 C000 		sts 192,r24
 367               	/* epilogue start */
 368               	.LBE302:
 369               	.LBE301:
 370               	.LM59:
 371 011e 0895      		ret
 372               	.LFE20:
 374               	.global	PrintDecInt
 376               	PrintDecInt:
 377               	.LFB21:
 378               	.LM60:
 379               	.LVL17:
 380               	/* prologue: function */
 381               	/* frame size = 0 */
 382 0120 9C01      		movw r18,r24
 383 0122 FB01      		movw r30,r22
 384               	.LM61:
 385 0124 8536      		cpi r24,101
 386 0126 9105      		cpc r25,__zero_reg__
 387 0128 04F4      		brge .L39
 388               	.LVL18:
 389 012a 6330      		cpi r22,3
 390 012c 7105      		cpc r23,__zero_reg__
 391 012e 04F0      		brlt .L40
 392               	.L39:
 393               	.LM62:
 394 0130 C901      		movw r24,r18
 395               	.LVL19:
 396 0132 64E6      		ldi r22,lo8(100)
 397 0134 70E0      		ldi r23,hi8(100)
 398 0136 0E94 0000 		call __divmodhi4
 399 013a 605D      		subi r22,lo8(-(48))
 400 013c 7F4F      		sbci r23,hi8(-(48))
 401               	.LBB303:
 402               	.LBB304:
 403               	.LM63:
 404 013e 6093 C600 		sts 198,r22
 405               	.L41:
 406               	.LM64:
 407 0142 8091 C000 		lds r24,192
 408 0146 86FF      		sbrs r24,6
 409 0148 00C0      		rjmp .L41
 410               	.LM65:
 411 014a 8091 C000 		lds r24,192
 412 014e 8064      		ori r24,lo8(64)
 413 0150 8093 C000 		sts 192,r24
 414               	.LVL20:
 415               	.L40:
 416               	.LBE304:
 417               	.LBE303:
 418               	.LM66:
 419 0154 2B30      		cpi r18,11
 420 0156 3105      		cpc r19,__zero_reg__
 421 0158 04F4      		brge .L42
 422 015a 3297      		sbiw r30,2
 423 015c 04F0      		brlt .L43
 424               	.L42:
 425               	.LM67:
 426 015e C901      		movw r24,r18
 427 0160 64E6      		ldi r22,lo8(100)
 428 0162 70E0      		ldi r23,hi8(100)
 429 0164 0E94 0000 		call __divmodhi4
 430 0168 6AE0      		ldi r22,lo8(10)
 431 016a 70E0      		ldi r23,hi8(10)
 432 016c 0E94 0000 		call __divmodhi4
 433 0170 605D      		subi r22,lo8(-(48))
 434 0172 7F4F      		sbci r23,hi8(-(48))
 435               	.LBB305:
 436               	.LBB306:
 437               	.LM68:
 438 0174 6093 C600 		sts 198,r22
 439               	.L44:
 440               	.LM69:
 441 0178 8091 C000 		lds r24,192
 442 017c 86FF      		sbrs r24,6
 443 017e 00C0      		rjmp .L44
 444               	.LM70:
 445 0180 8091 C000 		lds r24,192
 446 0184 8064      		ori r24,lo8(64)
 447 0186 8093 C000 		sts 192,r24
 448               	.LVL21:
 449               	.L43:
 450               	.LBE306:
 451               	.LBE305:
 452               	.LM71:
 453 018a C901      		movw r24,r18
 454 018c 6AE0      		ldi r22,lo8(10)
 455 018e 70E0      		ldi r23,hi8(10)
 456 0190 0E94 0000 		call __divmodhi4
 457 0194 C096      		adiw r24,48
 458               	.LBB307:
 459               	.LBB308:
 460               	.LM72:
 461 0196 8093 C600 		sts 198,r24
 462               	.L45:
 463               	.LM73:
 464 019a 8091 C000 		lds r24,192
 465 019e 86FF      		sbrs r24,6
 466 01a0 00C0      		rjmp .L45
 467               	.LM74:
 468 01a2 8091 C000 		lds r24,192
 469 01a6 8064      		ori r24,lo8(64)
 470 01a8 8093 C000 		sts 192,r24
 471               	/* epilogue start */
 472               	.LBE308:
 473               	.LBE307:
 474               	.LM75:
 475 01ac 0895      		ret
 476               	.LFE21:
 479               	PrintAvailablePort:
 480               	.LFB27:
 481               	.LM76:
 482               	.LVL22:
 483 01ae 1F93      		push r17
 484               	/* prologue: function */
 485               	/* frame size = 0 */
 486 01b0 182F      		mov r17,r24
 487               	.LM77:
 488 01b2 80E0      		ldi r24,lo8(gTextMsg_PORT)
 489 01b4 90E0      		ldi r25,hi8(gTextMsg_PORT)
 490               	.LVL23:
 491 01b6 60E0      		ldi r22,lo8(0)
 492 01b8 0E94 0000 		call PrintFromPROGMEM
 493               	.LBB309:
 494               	.LBB310:
 495               	.LM78:
 496 01bc 1093 C600 		sts 198,r17
 497               	.L51:
 498               	.LM79:
 499 01c0 8091 C000 		lds r24,192
 500 01c4 86FF      		sbrs r24,6
 501 01c6 00C0      		rjmp .L51
 502               	.LM80:
 503 01c8 8091 C000 		lds r24,192
 504 01cc 8064      		ori r24,lo8(64)
 505 01ce 8093 C000 		sts 192,r24
 506               	.LBE310:
 507               	.LBE309:
 508               	.LM81:
 509 01d2 0E94 0000 		call PrintNewLine
 510               	/* epilogue start */
 511               	.LM82:
 512 01d6 1F91      		pop r17
 513               	.LVL24:
 514 01d8 0895      		ret
 515               	.LFE27:
 518               	DumpHex:
 519               	.LFB24:
 520               	.LM83:
 521               	.LVL25:
 522 01da 2F92      		push r2
 523 01dc 3F92      		push r3
 524 01de 4F92      		push r4
 525 01e0 5F92      		push r5
 526 01e2 6F92      		push r6
 527 01e4 7F92      		push r7
 528 01e6 8F92      		push r8
 529 01e8 9F92      		push r9
 530 01ea AF92      		push r10
 531 01ec BF92      		push r11
 532 01ee CF92      		push r12
 533 01f0 DF92      		push r13
 534 01f2 EF92      		push r14
 535 01f4 FF92      		push r15
 536 01f6 0F93      		push r16
 537 01f8 1F93      		push r17
 538 01fa DF93      		push r29
 539 01fc CF93      		push r28
 540 01fe CDB7      		in r28,__SP_L__
 541 0200 DEB7      		in r29,__SP_H__
 542 0202 6297      		sbiw r28,18
 543 0204 0FB6      		in __tmp_reg__,__SREG__
 544 0206 F894      		cli
 545 0208 DEBF      		out __SP_H__,r29
 546 020a 0FBE      		out __SREG__,__tmp_reg__
 547 020c CDBF      		out __SP_L__,r28
 548               	/* prologue: function */
 549               	/* frame size = 18 */
 550 020e 382E      		mov r3,r24
 551 0210 622E      		mov r6,r18
 552               	.LM84:
 553 0212 CA01      		movw r24,r20
 554               	.LVL26:
 555 0214 DB01      		movw r26,r22
 556 0216 5C01      		movw r10,r24
 557 0218 6D01      		movw r12,r26
 558               	.LVL27:
 559 021a 7724      		clr r7
 560               	.LVL28:
 561               	.LBB311:
 562               	.LBB312:
 563               	.LM85:
 564 021c 20E2      		ldi r18,lo8(32)
 565 021e 222E      		mov r2,r18
 566               	.LVL29:
 567 0220 2E01      		movw r4,r28
 568 0222 0894      		sec
 569 0224 411C      		adc r4,__zero_reg__
 570 0226 511C      		adc r5,__zero_reg__
 571 0228 00C0      		rjmp .L55
 572               	.LVL30:
 573               	.L68:
 574               	.LBE312:
 575               	.LBE311:
 576               	.LM86:
 577 022a 81E0      		ldi r24,lo8(65537)
 578 022c A816      		cp r10,r24
 579 022e 80E0      		ldi r24,hi8(65537)
 580 0230 B806      		cpc r11,r24
 581 0232 81E0      		ldi r24,hlo8(65537)
 582 0234 C806      		cpc r12,r24
 583 0236 80E0      		ldi r24,hhi8(65537)
 584 0238 D806      		cpc r13,r24
 585 023a 00F0      		brlo .L56
 586               	.LM87:
 587 023c C601      		movw r24,r12
 588 023e AA27      		clr r26
 589 0240 BB27      		clr r27
 590 0242 0E94 0000 		call PrintHexByte
 591               	.L56:
 592               	.LM88:
 593 0246 BB27      		clr r27
 594 0248 AD2D      		mov r26,r13
 595 024a 9C2D      		mov r25,r12
 596 024c 8B2D      		mov r24,r11
 597 024e 0E94 0000 		call PrintHexByte
 598               	.LM89:
 599 0252 8A2D      		mov r24,r10
 600 0254 0E94 0000 		call PrintHexByte
 601               	.LBB314:
 602               	.LBB313:
 603               	.LM90:
 604 0258 2092 C600 		sts 198,r2
 605               	.L57:
 606               	.LM91:
 607 025c 8091 C000 		lds r24,192
 608 0260 86FF      		sbrs r24,6
 609 0262 00C0      		rjmp .L57
 610               	.LM92:
 611 0264 8091 C000 		lds r24,192
 612 0268 8064      		ori r24,lo8(64)
 613 026a 8093 C000 		sts 192,r24
 614               	.LBE313:
 615               	.LBE314:
 616               	.LBB315:
 617               	.LBB316:
 618               	.LM93:
 619 026e 9DE2      		ldi r25,lo8(45)
 620 0270 9093 C600 		sts 198,r25
 621               	.L58:
 622               	.LM94:
 623 0274 8091 C000 		lds r24,192
 624 0278 86FF      		sbrs r24,6
 625 027a 00C0      		rjmp .L58
 626               	.LM95:
 627 027c 8091 C000 		lds r24,192
 628 0280 8064      		ori r24,lo8(64)
 629 0282 8093 C000 		sts 192,r24
 630               	.LBE316:
 631               	.LBE315:
 632               	.LBB317:
 633               	.LBB318:
 634               	.LM96:
 635 0286 2092 C600 		sts 198,r2
 636               	.L59:
 637               	.LM97:
 638 028a 8091 C000 		lds r24,192
 639 028e 86FF      		sbrs r24,6
 640 0290 00C0      		rjmp .L59
 641               	.LM98:
 642 0292 8091 C000 		lds r24,192
 643 0296 8064      		ori r24,lo8(64)
 644 0298 8093 C000 		sts 192,r24
 645               	.LBE318:
 646               	.LBE317:
 647               	.LM99:
 648 029c 1982      		std Y+1,__zero_reg__
 649 029e 8601      		movw r16,r12
 650 02a0 7501      		movw r14,r10
 651 02a2 8824      		clr r8
 652 02a4 9924      		clr r9
 653               	.LVL31:
 654               	.L67:
 655               	.LM100:
 656 02a6 A1E0      		ldi r26,lo8(1)
 657 02a8 3A16      		cp r3,r26
 658 02aa 01F0      		breq .L62
 659 02ac 3A16      		cp r3,r26
 660 02ae 00F0      		brlo .L61
 661 02b0 B2E0      		ldi r27,lo8(2)
 662 02b2 3B16      		cp r3,r27
 663 02b4 01F4      		brne .L60
 664 02b6 00C0      		rjmp .L75
 665               	.L61:
 666               	.LBB319:
 667               	.LM101:
 668               	/* #APP */
 669               	 ;  1527 "stk500boot.c" 1
 670 02b8 0BBF      		out 59, r16
 671 02ba F701      		movw r30, r14
 672 02bc 7790      		elpm r7, Z+
 673               		
 674               	 ;  0 "" 2
 675               	/* #NOAPP */
 676 02be 00C0      		rjmp .L60
 677               	.L62:
 678               	.LBE319:
 679               	.LM102:
 680 02c0 C701      		movw r24,r14
 681 02c2 0E94 0000 		call __eerd_byte_m2560
 682 02c6 782E      		mov r7,r24
 683 02c8 00C0      		rjmp .L60
 684               	.L75:
 685               	.LM103:
 686 02ca F701      		movw r30,r14
 687               	.LVL32:
 688 02cc 7080      		ld r7,Z
 689               	.LVL33:
 690               	.L60:
 691               	.LM104:
 692 02ce 872D      		mov r24,r7
 693 02d0 0E94 0000 		call PrintHexByte
 694               	.LBB320:
 695               	.LBB321:
 696               	.LM105:
 697 02d4 2092 C600 		sts 198,r2
 698               	.L64:
 699               	.LM106:
 700 02d8 8091 C000 		lds r24,192
 701 02dc 86FF      		sbrs r24,6
 702 02de 00C0      		rjmp .L64
 703               	.LM107:
 704 02e0 8091 C000 		lds r24,192
 705 02e4 8064      		ori r24,lo8(64)
 706 02e6 8093 C000 		sts 192,r24
 707               	.LBE321:
 708               	.LBE320:
 709               	.LM108:
 710 02ea 872D      		mov r24,r7
 711 02ec 8052      		subi r24,lo8(-(-32))
 712 02ee F401      		movw r30,r8
 713 02f0 EF70      		andi r30,lo8(15)
 714 02f2 F070      		andi r31,hi8(15)
 715 02f4 8F35      		cpi r24,lo8(95)
 716 02f6 00F4      		brsh .L65
 717               	.LM109:
 718 02f8 E40D      		add r30,r4
 719 02fa F51D      		adc r31,r5
 720 02fc 7082      		st Z,r7
 721 02fe 00C0      		rjmp .L66
 722               	.L65:
 723               	.LM110:
 724 0300 E40D      		add r30,r4
 725 0302 F51D      		adc r31,r5
 726 0304 8EE2      		ldi r24,lo8(46)
 727 0306 8083      		st Z,r24
 728               	.L66:
 729               	.LM111:
 730 0308 0894      		sec
 731 030a E11C      		adc r14,__zero_reg__
 732 030c F11C      		adc r15,__zero_reg__
 733 030e 011D      		adc r16,__zero_reg__
 734 0310 111D      		adc r17,__zero_reg__
 735               	.LVL34:
 736 0312 0894      		sec
 737 0314 811C      		adc r8,__zero_reg__
 738 0316 911C      		adc r9,__zero_reg__
 739               	.LM112:
 740 0318 90E1      		ldi r25,lo8(16)
 741 031a 8916      		cp r8,r25
 742 031c 9104      		cpc r9,__zero_reg__
 743 031e 01F0      		breq .+2
 744 0320 00C0      		rjmp .L67
 745 0322 80E1      		ldi r24,lo8(16)
 746 0324 90E0      		ldi r25,hi8(16)
 747 0326 A0E0      		ldi r26,hlo8(16)
 748 0328 B0E0      		ldi r27,hhi8(16)
 749 032a A80E      		add r10,r24
 750 032c B91E      		adc r11,r25
 751 032e CA1E      		adc r12,r26
 752 0330 DB1E      		adc r13,r27
 753               	.LVL35:
 754               	.LM113:
 755 0332 198A      		std Y+17,__zero_reg__
 756               	.LM114:
 757 0334 C201      		movw r24,r4
 758 0336 0E94 0000 		call PrintString
 759               	.LM115:
 760 033a 0E94 0000 		call PrintNewLine
 761               	.LM116:
 762 033e 6A94      		dec r6
 763               	.LVL36:
 764               	.L55:
 765               	.LM117:
 766 0340 6620      		tst r6
 767 0342 01F0      		breq .+2
 768 0344 00C0      		rjmp .L68
 769               	/* epilogue start */
 770               	.LM118:
 771 0346 6296      		adiw r28,18
 772 0348 0FB6      		in __tmp_reg__,__SREG__
 773 034a F894      		cli
 774 034c DEBF      		out __SP_H__,r29
 775 034e 0FBE      		out __SREG__,__tmp_reg__
 776 0350 CDBF      		out __SP_L__,r28
 777 0352 CF91      		pop r28
 778 0354 DF91      		pop r29
 779 0356 1F91      		pop r17
 780 0358 0F91      		pop r16
 781 035a FF90      		pop r15
 782 035c EF90      		pop r14
 783 035e DF90      		pop r13
 784 0360 CF90      		pop r12
 785 0362 BF90      		pop r11
 786 0364 AF90      		pop r10
 787               	.LVL37:
 788 0366 9F90      		pop r9
 789 0368 8F90      		pop r8
 790 036a 7F90      		pop r7
 791               	.LVL38:
 792 036c 6F90      		pop r6
 793               	.LVL39:
 794 036e 5F90      		pop r5
 795 0370 4F90      		pop r4
 796 0372 3F90      		pop r3
 797               	.LVL40:
 798 0374 2F90      		pop r2
 799 0376 0895      		ret
 800               	.LFE24:
 802               	.global	main
 804               	main:
 805               	.LFB13:
 806               	.LM119:
 807 0378 2F92      		push r2
 808 037a 3F92      		push r3
 809 037c 4F92      		push r4
 810 037e 5F92      		push r5
 811 0380 6F92      		push r6
 812 0382 7F92      		push r7
 813 0384 8F92      		push r8
 814 0386 9F92      		push r9
 815 0388 AF92      		push r10
 816 038a BF92      		push r11
 817 038c CF92      		push r12
 818 038e DF92      		push r13
 819 0390 EF92      		push r14
 820 0392 FF92      		push r15
 821 0394 0F93      		push r16
 822 0396 1F93      		push r17
 823 0398 DF93      		push r29
 824 039a CF93      		push r28
 825 039c CDB7      		in r28,__SP_L__
 826 039e DEB7      		in r29,__SP_H__
 827 03a0 CD53      		subi r28,lo8(-(-317))
 828 03a2 D140      		sbci r29,hi8(-(-317))
 829 03a4 0FB6      		in __tmp_reg__,__SREG__
 830 03a6 F894      		cli
 831 03a8 DEBF      		out __SP_H__,r29
 832 03aa 0FBE      		out __SREG__,__tmp_reg__
 833 03ac CDBF      		out __SP_L__,r28
 834               	/* prologue: function */
 835               	/* frame size = 317 */
 836               	.LM120:
 837 03ae 0E94 0000 		call init_ports
 838               	.LM121:
 839               	/* #APP */
 840               	 ;  572 "stk500boot.c" 1
 841               		.set __stack, 8703
 842               	 ;  0 "" 2
 843               	.LM122:
 844               	 ;  573 "stk500boot.c" 1
 845 03b2 01E2      		ldi	16, 33
 846               	 ;  0 "" 2
 847               	.LM123:
 848               	 ;  574 "stk500boot.c" 1
 849 03b4 0EBF      		out 62,16
 850               	 ;  0 "" 2
 851               	.LM124:
 852               	 ;  575 "stk500boot.c" 1
 853 03b6 0FEF      		ldi	16, 255
 854               	 ;  0 "" 2
 855               	.LM125:
 856               	 ;  576 "stk500boot.c" 1
 857 03b8 0DBF      		out 61,16
 858               	 ;  0 "" 2
 859               	.LM126:
 860               	/* #NOAPP */
 861 03ba 94B7      		in r25,84-32
 862               	.LVL41:
 863               	.LM127:
 864               	/* #APP */
 865               	 ;  585 "stk500boot.c" 1
 866 03bc F894      		cli
 867               	 ;  0 "" 2
 868               	.LM128:
 869               	 ;  586 "stk500boot.c" 1
 870 03be A895      		wdr
 871               	 ;  0 "" 2
 872               	.LM129:
 873               	/* #NOAPP */
 874 03c0 14BE      		out 84-32,__zero_reg__
 875               	.LM130:
 876 03c2 8091 6000 		lds r24,96
 877 03c6 8861      		ori r24,lo8(24)
 878 03c8 8093 6000 		sts 96,r24
 879               	.LM131:
 880 03cc 1092 6000 		sts 96,__zero_reg__
 881               	.LM132:
 882               	/* #APP */
 883               	 ;  590 "stk500boot.c" 1
 884 03d0 7894      		sei
 885               	 ;  0 "" 2
 886               	.LM133:
 887               	/* #NOAPP */
 888 03d2 93FF      		sbrs r25,3
 889 03d4 00C0      		rjmp .L77
 890               	.LM134:
 891 03d6 E091 0000 		lds r30,app_start
 892 03da F091 0000 		lds r31,(app_start)+1
 893 03de 1995      		eicall
 894               	.LVL42:
 895               	.L77:
 896               	.LM135:
 897 03e0 8091 0701 		lds r24,263
 898 03e4 8064      		ori r24,lo8(64)
 899 03e6 8093 0701 		sts 263,r24
 900               	.LM136:
 901 03ea 8091 0801 		lds r24,264
 902 03ee 8064      		ori r24,lo8(64)
 903 03f0 8093 0801 		sts 264,r24
 904               	.LM137:
 905 03f4 8091 C000 		lds r24,192
 906 03f8 8260      		ori r24,lo8(2)
 907 03fa 8093 C000 		sts 192,r24
 908               	.LM138:
 909 03fe 80E1      		ldi r24,lo8(16)
 910 0400 8093 C400 		sts 196,r24
 911               	.LM139:
 912 0404 88E1      		ldi r24,lo8(24)
 913 0406 8093 C100 		sts 193,r24
 914               	.LM140:
 915               	/* #APP */
 916               	 ;  641 "stk500boot.c" 1
 917 040a 0000      		nop
 918               	 ;  0 "" 2
 919               	/* #NOAPP */
 920 040c EE24      		clr r14
 921 040e FF24      		clr r15
 922 0410 8701      		movw r16,r14
 923               	.LVL43:
 924               	.LBB561:
 925               	.LBB562:
 926               	.LBB563:
 927               	.LBB564:
 928               	.LM141:
 929 0412 54E0      		ldi r21,lo8(4)
 930 0414 A52E      		mov r10,r21
 931 0416 B12C      		mov r11,__zero_reg__
 932               	.LBE564:
 933               	.LBE563:
 934               	.LBE562:
 935               	.LBE561:
 936               	.LM142:
 937 0418 40E4      		ldi r20,lo8(64)
 938 041a 942E      		mov r9,r20
 939               	.LM143:
 940 041c CC24      		clr r12
 941 041e DD24      		clr r13
 942               	.LVL44:
 943 0420 00C0      		rjmp .L342
 944               	.L82:
 945               	.LBB568:
 946               	.LBB567:
 947               	.LBB566:
 948               	.LBB565:
 949               	.LM144:
 950 0422 C501      		movw r24,r10
 951               	.LVL45:
 952               	/* #APP */
 953               	 ;  105 "c:/winavr-20100110/lib/gcc/../../avr/include/util/delay_basic.h" 1
 954 0424 0197      		1: sbiw r24,1
 955 0426 01F4      		brne 1b
 956               	 ;  0 "" 2
 957               	/* #NOAPP */
 958               	.LBE565:
 959               	.LBE566:
 960               	.LBE567:
 961               	.LBE568:
 962               	.LM145:
 963 0428 0894      		sec
 964 042a E11C      		adc r14,__zero_reg__
 965 042c F11C      		adc r15,__zero_reg__
 966 042e 011D      		adc r16,__zero_reg__
 967 0430 111D      		adc r17,__zero_reg__
 968 0432 21E2      		ldi r18,lo8(20001)
 969 0434 E216      		cp r14,r18
 970 0436 2EE4      		ldi r18,hi8(20001)
 971 0438 F206      		cpc r15,r18
 972 043a 20E0      		ldi r18,hlo8(20001)
 973 043c 0207      		cpc r16,r18
 974 043e 20E0      		ldi r18,hhi8(20001)
 975 0440 1207      		cpc r17,r18
 976 0442 00F0      		brlo .L79
 977 0444 31E0      		ldi r19,lo8(1)
 978 0446 C32E      		mov r12,r19
 979 0448 D12C      		mov r13,__zero_reg__
 980               	.L79:
 981               	.LM146:
 982 044a C801      		movw r24,r16
 983 044c B701      		movw r22,r14
 984 044e 27EC      		ldi r18,lo8(7111)
 985 0450 3BE1      		ldi r19,hi8(7111)
 986 0452 40E0      		ldi r20,hlo8(7111)
 987 0454 50E0      		ldi r21,hhi8(7111)
 988 0456 0E94 0000 		call __udivmodsi4
 989 045a 6115      		cp r22,__zero_reg__
 990 045c 7105      		cpc r23,__zero_reg__
 991 045e 8105      		cpc r24,__zero_reg__
 992 0460 9105      		cpc r25,__zero_reg__
 993 0462 01F4      		brne .L342
 994               	.LM147:
 995 0464 8091 0801 		lds r24,264
 996               	.LVL46:
 997 0468 8925      		eor r24,r9
 998 046a 8093 0801 		sts 264,r24
 999               	.LVL47:
 1000               	.L342:
 1001               	.LBB569:
 1002               	.LBB570:
 1003               	.LM148:
 1004 046e 8091 C000 		lds r24,192
 1005               	.LVL48:
 1006               	.LBE570:
 1007               	.LBE569:
 1008               	.LM149:
 1009 0472 87FD      		sbrc r24,7
 1010 0474 00C0      		rjmp .L81
 1011 0476 C114      		cp r12,__zero_reg__
 1012 0478 D104      		cpc r13,__zero_reg__
 1013 047a 01F0      		breq .L82
 1014               	.L81:
 1015               	.LM150:
 1016 047c A601      		movw r20,r12
 1017 047e 4F5F      		subi r20,lo8(-(1))
 1018 0480 5F4F      		sbci r21,hi8(-(1))
 1019 0482 C25E      		subi r28,lo8(-286)
 1020 0484 DE4F      		sbci r29,hi8(-286)
 1021 0486 5983      		std Y+1,r21
 1022 0488 4883      		st Y,r20
 1023 048a CE51      		subi r28,lo8(286)
 1024 048c D140      		sbci r29,hi8(286)
 1025               	.LVL49:
 1026               	.LM151:
 1027 048e C25E      		subi r28,lo8(-286)
 1028 0490 DE4F      		sbci r29,hi8(-286)
 1029 0492 8881      		ld r24,Y
 1030 0494 9981      		ldd r25,Y+1
 1031 0496 CE51      		subi r28,lo8(286)
 1032 0498 D140      		sbci r29,hi8(286)
 1033 049a 0197      		sbiw r24,1
 1034 049c 01F0      		breq .+4
 1035 049e 0C94 0000 		jmp .L84
 1036 04a2 C05D      		subi r28,lo8(-304)
 1037 04a4 DE4F      		sbci r29,hi8(-304)
 1038 04a6 1982      		std Y+1,__zero_reg__
 1039 04a8 1882      		st Y,__zero_reg__
 1040 04aa C053      		subi r28,lo8(304)
 1041 04ac D140      		sbci r29,hi8(304)
 1042               	.LVL50:
 1043 04ae 60E0      		ldi r22,lo8(0)
 1044               	.LVL51:
 1045 04b0 C15D      		subi r28,lo8(-303)
 1046 04b2 DE4F      		sbci r29,hi8(-303)
 1047 04b4 1882      		st Y,__zero_reg__
 1048 04b6 CF52      		subi r28,lo8(303)
 1049 04b8 D140      		sbci r29,hi8(303)
 1050               	.LVL52:
 1051 04ba 8824      		clr r8
 1052 04bc 9924      		clr r9
 1053               	.LVL53:
 1054 04be C35D      		subi r28,lo8(-301)
 1055 04c0 DE4F      		sbci r29,hi8(-301)
 1056 04c2 1982      		std Y+1,__zero_reg__
 1057 04c4 1882      		st Y,__zero_reg__
 1058 04c6 CD52      		subi r28,lo8(301)
 1059 04c8 D140      		sbci r29,hi8(301)
 1060               	.LVL54:
 1061 04ca C05E      		subi r28,lo8(-288)
 1062 04cc DE4F      		sbci r29,hi8(-288)
 1063 04ce 1882      		st Y,__zero_reg__
 1064 04d0 1982      		std Y+1,__zero_reg__
 1065 04d2 1A82      		std Y+2,__zero_reg__
 1066 04d4 1B82      		std Y+3,__zero_reg__
 1067 04d6 C052      		subi r28,lo8(288)
 1068 04d8 D140      		sbci r29,hi8(288)
 1069               	.LVL55:
 1070 04da CE5C      		subi r28,lo8(-306)
 1071 04dc DE4F      		sbci r29,hi8(-306)
 1072 04de 1882      		st Y,__zero_reg__
 1073 04e0 1982      		std Y+1,__zero_reg__
 1074 04e2 1A82      		std Y+2,__zero_reg__
 1075 04e4 1B82      		std Y+3,__zero_reg__
 1076 04e6 C253      		subi r28,lo8(306)
 1077 04e8 D140      		sbci r29,hi8(306)
 1078               	.LVL56:
 1079               	.LBB571:
 1080               	.LBB572:
 1081               	.LBB573:
 1082               	.LBB574:
 1083               	.LM152:
 1084 04ea EE24      		clr r14
 1085 04ec FF24      		clr r15
 1086 04ee 8701      		movw r16,r14
 1087               	.LVL57:
 1088               	/* #APP */
 1089               	 ;  511 "stk500boot.c" 1
 1090 04f0 0BBF      		out 59, r16
 1091 04f2 F701      		movw r30, r14
 1092 04f4 0791      		elpm r16, Z+
 1093 04f6 1691      		elpm r17, Z
 1094               		
 1095               	 ;  0 "" 2
 1096               	/* #NOAPP */
 1097 04f8 C45C      		subi r28,lo8(-316)
 1098 04fa DE4F      		sbci r29,hi8(-316)
 1099 04fc 1983      		std Y+1,r17
 1100 04fe 0883      		st Y,r16
 1101 0500 CC53      		subi r28,lo8(316)
 1102 0502 D140      		sbci r29,hi8(316)
 1103 0504 0C94 0000 		jmp .L85
 1104               	.LVL58:
 1105               	.L345:
 1106               	.LBE574:
 1107               	.LBE573:
 1108               	.LBE572:
 1109               	.LBE571:
 1110               	.LM153:
 1111 0508 C25E      		subi r28,lo8(-286)
 1112 050a DE4F      		sbci r29,hi8(-286)
 1113 050c 2881      		ld r18,Y
 1114 050e 3981      		ldd r19,Y+1
 1115 0510 CE51      		subi r28,lo8(286)
 1116 0512 D140      		sbci r29,hi8(286)
 1117               	.LVL59:
 1118 0514 2130      		cpi r18,1
 1119 0516 3105      		cpc r19,__zero_reg__
 1120 0518 01F4      		brne .L349
 1121               	.L86:
 1122               	.LM154:
 1123 051a 2091 C600 		lds r18,198
 1124               	.LVL60:
 1125 051e C25E      		subi r28,lo8(-286)
 1126 0520 DE4F      		sbci r29,hi8(-286)
 1127 0522 1982      		std Y+1,__zero_reg__
 1128 0524 1882      		st Y,__zero_reg__
 1129 0526 CE51      		subi r28,lo8(286)
 1130 0528 D140      		sbci r29,hi8(286)
 1131               	.LVL61:
 1132 052a 00C0      		rjmp .L88
 1133               	.LVL62:
 1134               	.L90:
 1135               	.LBB577:
 1136               	.LBB576:
 1137               	.LM155:
 1138 052c 2F5F      		subi r18,lo8(-(1))
 1139 052e 3F4F      		sbci r19,hi8(-(1))
 1140 0530 4F4F      		sbci r20,hlo8(-(1))
 1141 0532 5F4F      		sbci r21,hhi8(-(1))
 1142               	.LM156:
 1143 0534 2130      		cpi r18,lo8(8000001)
 1144 0536 82E1      		ldi r24,hi8(8000001)
 1145 0538 3807      		cpc r19,r24
 1146 053a 8AE7      		ldi r24,hlo8(8000001)
 1147 053c 4807      		cpc r20,r24
 1148 053e 80E0      		ldi r24,hhi8(8000001)
 1149 0540 5807      		cpc r21,r24
 1150 0542 00F0      		brlo .L343
 1151               	.LBB575:
 1152               	.LM157:
 1153 0544 C45C      		subi r28,lo8(-316)
 1154 0546 DE4F      		sbci r29,hi8(-316)
 1155 0548 E881      		ld r30,Y
 1156 054a F981      		ldd r31,Y+1
 1157 054c CC53      		subi r28,lo8(316)
 1158 054e D140      		sbci r29,hi8(316)
 1159               	.LVL63:
 1160 0550 EF5F      		subi r30,lo8(-1)
 1161 0552 FF4F      		sbci r31,hi8(-1)
 1162 0554 01F0      		breq .L349
 1163               	.L89:
 1164               	.LM158:
 1165               	/* #APP */
 1166               	 ;  517 "stk500boot.c" 1
 1167 0556 EE27      		clr	r30		
 1168 0558 FF27      		clr	r31		
 1169 055a 0994      		ijmp	
 1170               		
 1171               	 ;  0 "" 2
 1172               	.LVL64:
 1173               	/* #NOAPP */
 1174               	.L349:
 1175 055c 20E0      		ldi r18,lo8(0)
 1176 055e 30E0      		ldi r19,hi8(0)
 1177 0560 40E0      		ldi r20,hlo8(0)
 1178 0562 50E0      		ldi r21,hhi8(0)
 1179               	.L343:
 1180               	.LBE575:
 1181               	.LM159:
 1182 0564 8091 C000 		lds r24,192
 1183 0568 87FF      		sbrs r24,7
 1184 056a 00C0      		rjmp .L90
 1185               	.LM160:
 1186 056c 2091 C600 		lds r18,198
 1187               	.LVL65:
 1188               	.L88:
 1189               	.LBE576:
 1190               	.LBE577:
 1191               	.LM161:
 1192 0570 C35D      		subi r28,lo8(-301)
 1193 0572 DE4F      		sbci r29,hi8(-301)
 1194 0574 4881      		ld r20,Y
 1195 0576 5981      		ldd r21,Y+1
 1196 0578 CD52      		subi r28,lo8(301)
 1197 057a D140      		sbci r29,hi8(301)
 1198 057c 4F5F      		subi r20,lo8(-(1))
 1199 057e 5F4F      		sbci r21,hi8(-(1))
 1200 0580 C35D      		subi r28,lo8(-301)
 1201 0582 DE4F      		sbci r29,hi8(-301)
 1202 0584 5983      		std Y+1,r21
 1203 0586 4883      		st Y,r20
 1204 0588 CD52      		subi r28,lo8(301)
 1205 058a D140      		sbci r29,hi8(301)
 1206               	.LVL66:
 1207               	.LM162:
 1208 058c 2132      		cpi r18,lo8(33)
 1209 058e 01F0      		breq .+2
 1210 0590 00C0      		rjmp .L91
 1211 0592 4A30      		cpi r20,10
 1212 0594 5105      		cpc r21,__zero_reg__
 1213 0596 00F0      		brlo .+2
 1214 0598 00C0      		rjmp .L91
 1215               	.LM163:
 1216 059a 0894      		sec
 1217 059c 811C      		adc r8,__zero_reg__
 1218 059e 911C      		adc r9,__zero_reg__
 1219               	.LM164:
 1220 05a0 53E0      		ldi r21,lo8(3)
 1221 05a2 8516      		cp r8,r21
 1222 05a4 9104      		cpc r9,__zero_reg__
 1223 05a6 01F0      		breq .+2
 1224 05a8 00C0      		rjmp .L92
 1225 05aa 00E0      		ldi r16,lo8(0)
 1226 05ac 10E0      		ldi r17,hi8(0)
 1227               	.LVL67:
 1228 05ae 00C0      		rjmp .L93
 1229               	.LVL68:
 1230               	.L95:
 1231               	.LBB578:
 1232               	.LBB579:
 1233               	.LBB580:
 1234               	.LBB581:
 1235               	.LM165:
 1236 05b0 81E2      		ldi r24,lo8(33)
 1237 05b2 8093 C600 		sts 198,r24
 1238               	.L94:
 1239               	.LM166:
 1240 05b6 8091 C000 		lds r24,192
 1241 05ba 86FF      		sbrs r24,6
 1242 05bc 00C0      		rjmp .L94
 1243               	.LM167:
 1244 05be 8091 C000 		lds r24,192
 1245 05c2 8064      		ori r24,lo8(64)
 1246 05c4 8093 C000 		sts 192,r24
 1247               	.LBE581:
 1248               	.LBE580:
 1249               	.LM168:
 1250 05c8 2F5F      		subi r18,lo8(-(1))
 1251 05ca 3F4F      		sbci r19,hi8(-(1))
 1252 05cc 2931      		cpi r18,25
 1253 05ce 3105      		cpc r19,__zero_reg__
 1254 05d0 01F4      		brne .L95
 1255               	.LM169:
 1256 05d2 0E94 0000 		call PrintNewLine
 1257               	.LVL69:
 1258               	.LM170:
 1259 05d6 0F5F      		subi r16,lo8(-(1))
 1260 05d8 1F4F      		sbci r17,hi8(-(1))
 1261 05da 0530      		cpi r16,5
 1262 05dc 1105      		cpc r17,__zero_reg__
 1263 05de 01F0      		breq .L96
 1264               	.LVL70:
 1265               	.L93:
 1266 05e0 20E0      		ldi r18,lo8(0)
 1267 05e2 30E0      		ldi r19,hi8(0)
 1268               	.LVL71:
 1269 05e4 00C0      		rjmp .L95
 1270               	.LVL72:
 1271               	.L96:
 1272               	.LM171:
 1273 05e6 1092 0000 		sts gRamIndex,__zero_reg__
 1274 05ea 1092 0000 		sts (gRamIndex)+1,__zero_reg__
 1275 05ee 1092 0000 		sts (gRamIndex)+2,__zero_reg__
 1276 05f2 1092 0000 		sts (gRamIndex)+3,__zero_reg__
 1277               	.LM172:
 1278 05f6 1092 0000 		sts gFlashIndex,__zero_reg__
 1279 05fa 1092 0000 		sts (gFlashIndex)+1,__zero_reg__
 1280 05fe 1092 0000 		sts (gFlashIndex)+2,__zero_reg__
 1281 0602 1092 0000 		sts (gFlashIndex)+3,__zero_reg__
 1282               	.LM173:
 1283 0606 1092 0000 		sts gEepromIndex,__zero_reg__
 1284 060a 1092 0000 		sts (gEepromIndex)+1,__zero_reg__
 1285 060e 1092 0000 		sts (gEepromIndex)+2,__zero_reg__
 1286 0612 1092 0000 		sts (gEepromIndex)+3,__zero_reg__
 1287               	.LM174:
 1288 0616 80E0      		ldi r24,lo8(gTextMsg_Explorer)
 1289 0618 90E0      		ldi r25,hi8(gTextMsg_Explorer)
 1290               	.LVL73:
 1291               	.L350:
 1292 061a 60E0      		ldi r22,lo8(0)
 1293 061c 0E94 0000 		call PrintFromPROGMEMln
 1294               	.LVL74:
 1295               	.LVL75:
 1296               	.L344:
 1297               	.LM175:
 1298 0620 80E0      		ldi r24,lo8(gTextMsg_Prompt)
 1299 0622 90E0      		ldi r25,hi8(gTextMsg_Prompt)
 1300 0624 60E0      		ldi r22,lo8(0)
 1301 0626 0E94 0000 		call PrintFromPROGMEM
 1302               	.LVL76:
 1303               	.L97:
 1304               	.LBB582:
 1305               	.LBB583:
 1306               	.LM176:
 1307 062a 8091 C000 		lds r24,192
 1308 062e 87FF      		sbrs r24,7
 1309 0630 00C0      		rjmp .L97
 1310               	.LM177:
 1311 0632 9091 C600 		lds r25,198
 1312               	.LVL77:
 1313               	.LBE583:
 1314               	.LBE582:
 1315               	.LM178:
 1316 0636 9036      		cpi r25,lo8(96)
 1317 0638 00F0      		brlo .L98
 1318               	.LM179:
 1319 063a 9F75      		andi r25,lo8(95)
 1320               	.L98:
 1321               	.LM180:
 1322 063c 9032      		cpi r25,lo8(32)
 1323 063e 00F0      		brlo .L99
 1324               	.LBB584:
 1325               	.LBB585:
 1326               	.LM181:
 1327 0640 9093 C600 		sts 198,r25
 1328               	.L100:
 1329               	.LM182:
 1330 0644 8091 C000 		lds r24,192
 1331 0648 86FF      		sbrs r24,6
 1332 064a 00C0      		rjmp .L100
 1333               	.LM183:
 1334 064c 8091 C000 		lds r24,192
 1335 0650 8064      		ori r24,lo8(64)
 1336 0652 8093 C000 		sts 192,r24
 1337               	.LBE585:
 1338               	.LBE584:
 1339               	.LBB586:
 1340               	.LBB587:
 1341               	.LM184:
 1342 0656 A0E2      		ldi r26,lo8(32)
 1343 0658 A093 C600 		sts 198,r26
 1344               	.L101:
 1345               	.LM185:
 1346 065c 8091 C000 		lds r24,192
 1347 0660 86FF      		sbrs r24,6
 1348 0662 00C0      		rjmp .L101
 1349               	.LM186:
 1350 0664 8091 C000 		lds r24,192
 1351 0668 8064      		ori r24,lo8(64)
 1352 066a 8093 C000 		sts 192,r24
 1353               	.L99:
 1354               	.LBE587:
 1355               	.LBE586:
 1356               	.LM187:
 1357 066e 9834      		cpi r25,lo8(72)
 1358 0670 01F4      		brne .+2
 1359 0672 00C0      		rjmp .L109
 1360 0674 9934      		cpi r25,lo8(73)
 1361 0676 00F4      		brsh .L115
 1362 0678 9234      		cpi r25,lo8(66)
 1363 067a 01F4      		brne .+2
 1364 067c 00C0      		rjmp .L106
 1365 067e 9334      		cpi r25,lo8(67)
 1366 0680 00F4      		brsh .L116
 1367 0682 9033      		cpi r25,lo8(48)
 1368 0684 01F0      		breq .L103
 1369 0686 9033      		cpi r25,lo8(48)
 1370 0688 00F4      		brsh .+2
 1371 068a 00C0      		rjmp .L102
 1372 068c 9F33      		cpi r25,lo8(63)
 1373 068e 01F0      		breq .L104
 1374 0690 9034      		cpi r25,lo8(64)
 1375 0692 01F0      		breq .+2
 1376 0694 00C0      		rjmp .L102
 1377 0696 00C0      		rjmp .L358
 1378               	.L116:
 1379 0698 9534      		cpi r25,lo8(69)
 1380 069a 01F4      		brne .+2
 1381 069c 00C0      		rjmp .L107
 1382 069e 9634      		cpi r25,lo8(70)
 1383 06a0 01F0      		breq .+2
 1384 06a2 00C0      		rjmp .L102
 1385 06a4 00C0      		rjmp .L359
 1386               	.L115:
 1387 06a6 9235      		cpi r25,lo8(82)
 1388 06a8 01F4      		brne .+2
 1389 06aa 00C0      		rjmp .L112
 1390 06ac 9335      		cpi r25,lo8(83)
 1391 06ae 00F4      		brsh .L117
 1392 06b0 9C34      		cpi r25,lo8(76)
 1393 06b2 01F4      		brne .+2
 1394 06b4 00C0      		rjmp .L110
 1395 06b6 9135      		cpi r25,lo8(81)
 1396 06b8 01F0      		breq .+2
 1397 06ba 00C0      		rjmp .L102
 1398 06bc 00C0      		rjmp .L360
 1399               	.L117:
 1400 06be 9635      		cpi r25,lo8(86)
 1401 06c0 01F4      		brne .+2
 1402 06c2 00C0      		rjmp .L113
 1403 06c4 9935      		cpi r25,lo8(89)
 1404 06c6 01F0      		breq .+2
 1405 06c8 00C0      		rjmp .L102
 1406 06ca 00C0      		rjmp .L361
 1407               	.L103:
 1408               	.LM188:
 1409 06cc 80E0      		ldi r24,lo8(gTextMsg_HELP_MSG_0)
 1410 06ce 90E0      		ldi r25,hi8(gTextMsg_HELP_MSG_0)
 1411 06d0 62E0      		ldi r22,lo8(2)
 1412 06d2 0E94 0000 		call PrintFromPROGMEMln
 1413               	.LVL78:
 1414               	.LM189:
 1415 06d6 1092 0000 		sts gFlashIndex,__zero_reg__
 1416 06da 1092 0000 		sts (gFlashIndex)+1,__zero_reg__
 1417 06de 1092 0000 		sts (gFlashIndex)+2,__zero_reg__
 1418 06e2 1092 0000 		sts (gFlashIndex)+3,__zero_reg__
 1419               	.LM190:
 1420 06e6 1092 0000 		sts gRamIndex,__zero_reg__
 1421 06ea 1092 0000 		sts (gRamIndex)+1,__zero_reg__
 1422 06ee 1092 0000 		sts (gRamIndex)+2,__zero_reg__
 1423 06f2 1092 0000 		sts (gRamIndex)+3,__zero_reg__
 1424 06f6 00C0      		rjmp .L351
 1425               	.LVL79:
 1426               	.L104:
 1427               	.LM191:
 1428 06f8 80E0      		ldi r24,lo8(gTextMsg_HELP_MSG_QM)
 1429 06fa 90E0      		ldi r25,hi8(gTextMsg_HELP_MSG_QM)
 1430 06fc 62E0      		ldi r22,lo8(2)
 1431 06fe 0E94 0000 		call PrintFromPROGMEMln
 1432               	.LVL80:
 1433               	.LBB588:
 1434               	.LBB589:
 1435               	.LM192:
 1436 0702 80E0      		ldi r24,lo8(gTextMsg_Explorer)
 1437 0704 90E0      		ldi r25,hi8(gTextMsg_Explorer)
 1438 0706 60E0      		ldi r22,lo8(0)
 1439 0708 0E94 0000 		call PrintFromPROGMEMln
 1440               	.LM193:
 1441 070c 80E0      		ldi r24,lo8(gTextMsg_COMPILED_ON)
 1442 070e 90E0      		ldi r25,hi8(gTextMsg_COMPILED_ON)
 1443 0710 60E0      		ldi r22,lo8(0)
 1444 0712 0E94 0000 		call PrintFromPROGMEM
 1445               	.LM194:
 1446 0716 80E0      		ldi r24,lo8(gTextMsg_GCC_DATE_STR)
 1447 0718 90E0      		ldi r25,hi8(gTextMsg_GCC_DATE_STR)
 1448 071a 60E0      		ldi r22,lo8(0)
 1449 071c 0E94 0000 		call PrintFromPROGMEMln
 1450               	.LM195:
 1451 0720 80E0      		ldi r24,lo8(gTextMsg_CPU_Type)
 1452 0722 90E0      		ldi r25,hi8(gTextMsg_CPU_Type)
 1453 0724 60E0      		ldi r22,lo8(0)
 1454 0726 0E94 0000 		call PrintFromPROGMEM
 1455               	.LM196:
 1456 072a 80E0      		ldi r24,lo8(gTextMsg_CPU_Name)
 1457 072c 90E0      		ldi r25,hi8(gTextMsg_CPU_Name)
 1458 072e 60E0      		ldi r22,lo8(0)
 1459 0730 0E94 0000 		call PrintFromPROGMEMln
 1460               	.LM197:
 1461 0734 80E0      		ldi r24,lo8(gTextMsg_AVR_ARCH)
 1462 0736 90E0      		ldi r25,hi8(gTextMsg_AVR_ARCH)
 1463 0738 60E0      		ldi r22,lo8(0)
 1464 073a 0E94 0000 		call PrintFromPROGMEM
 1465               	.LM198:
 1466 073e 86E0      		ldi r24,lo8(6)
 1467 0740 90E0      		ldi r25,hi8(6)
 1468 0742 61E0      		ldi r22,lo8(1)
 1469 0744 70E0      		ldi r23,hi8(1)
 1470 0746 0E94 0000 		call PrintDecInt
 1471               	.LM199:
 1472 074a 0E94 0000 		call PrintNewLine
 1473               	.LM200:
 1474 074e 80E0      		ldi r24,lo8(gTextMsg_GCC_VERSION)
 1475 0750 90E0      		ldi r25,hi8(gTextMsg_GCC_VERSION)
 1476 0752 60E0      		ldi r22,lo8(0)
 1477 0754 0E94 0000 		call PrintFromPROGMEM
 1478               	.LM201:
 1479 0758 80E0      		ldi r24,lo8(gTextMsg_GCC_VERSION_STR)
 1480 075a 90E0      		ldi r25,hi8(gTextMsg_GCC_VERSION_STR)
 1481 075c 60E0      		ldi r22,lo8(0)
 1482 075e 0E94 0000 		call PrintFromPROGMEMln
 1483               	.LM202:
 1484 0762 80E0      		ldi r24,lo8(gTextMsg_AVR_LIBC)
 1485 0764 90E0      		ldi r25,hi8(gTextMsg_AVR_LIBC)
 1486 0766 60E0      		ldi r22,lo8(0)
 1487 0768 0E94 0000 		call PrintFromPROGMEM
 1488               	.LM203:
 1489 076c 80E0      		ldi r24,lo8(gTextMsg_AVR_LIBC_VER_STR)
 1490 076e 90E0      		ldi r25,hi8(gTextMsg_AVR_LIBC_VER_STR)
 1491 0770 60E0      		ldi r22,lo8(0)
 1492 0772 0E94 0000 		call PrintFromPROGMEMln
 1493               	.LM204:
 1494 0776 80E0      		ldi r24,lo8(gTextMsg_CPU_SIGNATURE)
 1495 0778 90E0      		ldi r25,hi8(gTextMsg_CPU_SIGNATURE)
 1496 077a 60E0      		ldi r22,lo8(0)
 1497 077c 0E94 0000 		call PrintFromPROGMEM
 1498               	.LM205:
 1499 0780 8EE1      		ldi r24,lo8(30)
 1500 0782 0E94 0000 		call PrintHexByte
 1501               	.LM206:
 1502 0786 88E9      		ldi r24,lo8(-104)
 1503 0788 0E94 0000 		call PrintHexByte
 1504               	.LM207:
 1505 078c 81E0      		ldi r24,lo8(1)
 1506 078e 0E94 0000 		call PrintHexByte
 1507               	.LM208:
 1508 0792 0E94 0000 		call PrintNewLine
 1509               	.LM209:
 1510 0796 80E0      		ldi r24,lo8(gTextMsg_FUSE_BYTE_LOW)
 1511 0798 90E0      		ldi r25,hi8(gTextMsg_FUSE_BYTE_LOW)
 1512 079a 60E0      		ldi r22,lo8(0)
 1513 079c 0E94 0000 		call PrintFromPROGMEM
 1514               	.LBB590:
 1515               	.LM210:
 1516 07a0 19E0      		ldi r17,lo8(9)
 1517               	.LVL81:
 1518 07a2 E0E0      		ldi r30,lo8(0)
 1519 07a4 F0E0      		ldi r31,hi8(0)
 1520               	/* #APP */
 1521               	 ;  1448 "stk500boot.c" 1
 1522 07a6 1093 5700 		sts 87, r17
 1523 07aa E491      		lpm r30, Z
 1524               		
 1525               	 ;  0 "" 2
 1526               	.LVL82:
 1527               	/* #NOAPP */
 1528               	.LBE590:
 1529               	.LM211:
 1530 07ac 8E2F      		mov r24,r30
 1531 07ae 0E94 0000 		call PrintHexByte
 1532               	.LVL83:
 1533               	.LM212:
 1534 07b2 0E94 0000 		call PrintNewLine
 1535               	.LM213:
 1536 07b6 80E0      		ldi r24,lo8(gTextMsg_FUSE_BYTE_HIGH)
 1537 07b8 90E0      		ldi r25,hi8(gTextMsg_FUSE_BYTE_HIGH)
 1538 07ba 60E0      		ldi r22,lo8(0)
 1539 07bc 0E94 0000 		call PrintFromPROGMEM
 1540               	.LBB591:
 1541               	.LM214:
 1542 07c0 E3E0      		ldi r30,lo8(3)
 1543 07c2 F0E0      		ldi r31,hi8(3)
 1544               	/* #APP */
 1545               	 ;  1453 "stk500boot.c" 1
 1546 07c4 1093 5700 		sts 87, r17
 1547 07c8 E491      		lpm r30, Z
 1548               		
 1549               	 ;  0 "" 2
 1550               	.LVL84:
 1551               	/* #NOAPP */
 1552               	.LBE591:
 1553               	.LM215:
 1554 07ca 8E2F      		mov r24,r30
 1555 07cc 0E94 0000 		call PrintHexByte
 1556               	.LVL85:
 1557               	.LM216:
 1558 07d0 0E94 0000 		call PrintNewLine
 1559               	.LM217:
 1560 07d4 80E0      		ldi r24,lo8(gTextMsg_FUSE_BYTE_EXT)
 1561 07d6 90E0      		ldi r25,hi8(gTextMsg_FUSE_BYTE_EXT)
 1562 07d8 60E0      		ldi r22,lo8(0)
 1563 07da 0E94 0000 		call PrintFromPROGMEM
 1564               	.LBB592:
 1565               	.LM218:
 1566 07de E2E0      		ldi r30,lo8(2)
 1567 07e0 F0E0      		ldi r31,hi8(2)
 1568               	/* #APP */
 1569               	 ;  1458 "stk500boot.c" 1
 1570 07e2 1093 5700 		sts 87, r17
 1571 07e6 E491      		lpm r30, Z
 1572               		
 1573               	 ;  0 "" 2
 1574               	.LVL86:
 1575               	/* #NOAPP */
 1576               	.LBE592:
 1577               	.LM219:
 1578 07e8 8E2F      		mov r24,r30
 1579 07ea 0E94 0000 		call PrintHexByte
 1580               	.LVL87:
 1581               	.LM220:
 1582 07ee 0E94 0000 		call PrintNewLine
 1583               	.LM221:
 1584 07f2 80E0      		ldi r24,lo8(gTextMsg_FUSE_BYTE_LOCK)
 1585 07f4 90E0      		ldi r25,hi8(gTextMsg_FUSE_BYTE_LOCK)
 1586 07f6 60E0      		ldi r22,lo8(0)
 1587 07f8 0E94 0000 		call PrintFromPROGMEM
 1588               	.LBB593:
 1589               	.LM222:
 1590 07fc E1E0      		ldi r30,lo8(1)
 1591 07fe F0E0      		ldi r31,hi8(1)
 1592               	/* #APP */
 1593               	 ;  1463 "stk500boot.c" 1
 1594 0800 1093 5700 		sts 87, r17
 1595 0804 1491      		lpm r17, Z
 1596               		
 1597               	 ;  0 "" 2
 1598               	.LVL88:
 1599               	/* #NOAPP */
 1600               	.LBE593:
 1601               	.LM223:
 1602 0806 812F      		mov r24,r17
 1603 0808 0E94 0000 		call PrintHexByte
 1604               	.LM224:
 1605 080c 0E94 0000 		call PrintNewLine
 1606 0810 00C0      		rjmp .L344
 1607               	.LVL89:
 1608               	.L358:
 1609               	.LBE589:
 1610               	.LBE588:
 1611               	.LM225:
 1612 0812 80E0      		ldi r24,lo8(gTextMsg_HELP_MSG_AT)
 1613 0814 90E0      		ldi r25,hi8(gTextMsg_HELP_MSG_AT)
 1614 0816 62E0      		ldi r22,lo8(2)
 1615 0818 0E94 0000 		call PrintFromPROGMEMln
 1616               	.LVL90:
 1617               	.LBB594:
 1618               	.LBB595:
 1619               	.LM226:
 1620 081c 80E0      		ldi r24,lo8(gTextMsg_WriteToEEprom)
 1621 081e 90E0      		ldi r25,hi8(gTextMsg_WriteToEEprom)
 1622 0820 60E0      		ldi r22,lo8(0)
 1623 0822 0E94 0000 		call PrintFromPROGMEMln
 1624               	.LM227:
 1625 0826 0E94 0000 		call PrintNewLine
 1626 082a 00E0      		ldi r16,lo8(0)
 1627 082c 10E0      		ldi r17,hi8(0)
 1628               	.LVL91:
 1629 082e 00C0      		rjmp .L119
 1630               	.LVL92:
 1631               	.L124:
 1632               	.LM228:
 1633 0830 C801      		movw r24,r16
 1634 0832 6F2D      		mov r22,r15
 1635 0834 0E94 0000 		call __eewr_byte_m2560
 1636               	.LM229:
 1637 0838 FF20      		tst r15
 1638 083a 01F4      		brne .L120
 1639               	.LM230:
 1640 083c 80E0      		ldi r24,lo8(gTextMsg_SPACE)
 1641 083e 90E0      		ldi r25,hi8(gTextMsg_SPACE)
 1642 0840 60E0      		ldi r22,lo8(0)
 1643 0842 0E94 0000 		call PrintFromPROGMEM
 1644 0846 00C0      		rjmp .L121
 1645               	.L120:
 1646               	.LBB597:
 1647               	.LBB598:
 1648               	.LM231:
 1649 0848 F092 C600 		sts 198,r15
 1650               	.L122:
 1651               	.LM232:
 1652 084c 8091 C000 		lds r24,192
 1653 0850 86FF      		sbrs r24,6
 1654 0852 00C0      		rjmp .L122
 1655               	.LM233:
 1656 0854 8091 C000 		lds r24,192
 1657 0858 8064      		ori r24,lo8(64)
 1658 085a 8093 C000 		sts 192,r24
 1659               	.L121:
 1660               	.LBE598:
 1661               	.LBE597:
 1662               	.LM234:
 1663 085e 0F5F      		subi r16,lo8(-(1))
 1664 0860 1F4F      		sbci r17,hi8(-(1))
 1665               	.LVL93:
 1666               	.L119:
 1667               	.LBB596:
 1668               	.LM235:
 1669 0862 C801      		movw r24,r16
 1670 0864 8050      		subi r24,lo8(-(gTextMsg_Explorer))
 1671 0866 9040      		sbci r25,hi8(-(gTextMsg_Explorer))
 1672 0868 A0E0      		ldi r26,lo8(0)
 1673 086a B0E0      		ldi r27,hi8(0)
 1674               	/* #APP */
 1675               	 ;  1578 "stk500boot.c" 1
 1676 086c ABBF      		out 59, r26
 1677 086e FC01      		movw r30, r24
 1678 0870 F790      		elpm r15, Z+
 1679               		
 1680               	 ;  0 "" 2
 1681               	.LVL94:
 1682               	/* #NOAPP */
 1683               	.LBE596:
 1684 0872 BAE2      		ldi r27,lo8(42)
 1685 0874 FB16      		cp r15,r27
 1686 0876 01F0      		breq .L123
 1687 0878 E2E0      		ldi r30,hi8(512)
 1688 087a 0030      		cpi r16,lo8(512)
 1689 087c 1E07      		cpc r17,r30
 1690 087e 01F4      		brne .L124
 1691               	.L123:
 1692               	.LM236:
 1693 0880 0E94 0000 		call PrintNewLine
 1694               	.LM237:
 1695 0884 0E94 0000 		call PrintNewLine
 1696               	.LM238:
 1697 0888 80E0      		ldi r24,lo8(gTextMsg_ReadingEEprom)
 1698 088a 90E0      		ldi r25,hi8(gTextMsg_ReadingEEprom)
 1699 088c 60E0      		ldi r22,lo8(0)
 1700 088e 0E94 0000 		call PrintFromPROGMEMln
 1701               	.LM239:
 1702 0892 0E94 0000 		call PrintNewLine
 1703 0896 CC24      		clr r12
 1704 0898 DD24      		clr r13
 1705               	.LVL95:
 1706 089a 00E0      		ldi r16,lo8(0)
 1707 089c 10E0      		ldi r17,hi8(0)
 1708               	.LVL96:
 1709 089e 00C0      		rjmp .L125
 1710               	.LVL97:
 1711               	.L131:
 1712               	.LBE595:
 1713               	.LM240:
 1714 08a0 C801      		movw r24,r16
 1715 08a2 0E94 0000 		call __eerd_byte_m2560
 1716 08a6 F82E      		mov r15,r24
 1717               	.LVL98:
 1718               	.LBB602:
 1719               	.LM241:
 1720 08a8 8823      		tst r24
 1721 08aa 01F4      		brne .L126
 1722               	.LVL99:
 1723               	.LM242:
 1724 08ac 80E0      		ldi r24,lo8(gTextMsg_SPACE)
 1725 08ae 90E0      		ldi r25,hi8(gTextMsg_SPACE)
 1726               	.LVL100:
 1727 08b0 60E0      		ldi r22,lo8(0)
 1728 08b2 0E94 0000 		call PrintFromPROGMEM
 1729 08b6 00C0      		rjmp .L127
 1730               	.LVL101:
 1731               	.L126:
 1732               	.LBB599:
 1733               	.LBB600:
 1734               	.LM243:
 1735 08b8 8093 C600 		sts 198,r24
 1736               	.LVL102:
 1737               	.L128:
 1738               	.LM244:
 1739 08bc 8091 C000 		lds r24,192
 1740 08c0 86FF      		sbrs r24,6
 1741 08c2 00C0      		rjmp .L128
 1742               	.LM245:
 1743 08c4 8091 C000 		lds r24,192
 1744 08c8 8064      		ori r24,lo8(64)
 1745 08ca 8093 C000 		sts 192,r24
 1746               	.L127:
 1747               	.LBE600:
 1748               	.LBE599:
 1749               	.LM246:
 1750 08ce FE14      		cp r15,r14
 1751 08d0 01F0      		breq .L129
 1752               	.LM247:
 1753 08d2 0894      		sec
 1754 08d4 C11C      		adc r12,__zero_reg__
 1755 08d6 D11C      		adc r13,__zero_reg__
 1756               	.L129:
 1757               	.LM248:
 1758 08d8 0F5F      		subi r16,lo8(-(1))
 1759 08da 1F4F      		sbci r17,hi8(-(1))
 1760               	.LVL103:
 1761               	.L125:
 1762               	.LBB601:
 1763               	.LM249:
 1764 08dc C801      		movw r24,r16
 1765 08de 8050      		subi r24,lo8(-(gTextMsg_Explorer))
 1766 08e0 9040      		sbci r25,hi8(-(gTextMsg_Explorer))
 1767 08e2 A0E0      		ldi r26,lo8(0)
 1768 08e4 B0E0      		ldi r27,hi8(0)
 1769               	/* #APP */
 1770               	 ;  1603 "stk500boot.c" 1
 1771 08e6 ABBF      		out 59, r26
 1772 08e8 FC01      		movw r30, r24
 1773 08ea E790      		elpm r14, Z+
 1774               		
 1775               	 ;  0 "" 2
 1776               	.LVL104:
 1777               	/* #NOAPP */
 1778               	.LBE601:
 1779 08ec FAE2      		ldi r31,lo8(42)
 1780 08ee EF16      		cp r14,r31
 1781 08f0 01F0      		breq .L130
 1782 08f2 22E0      		ldi r18,hi8(512)
 1783 08f4 0030      		cpi r16,lo8(512)
 1784 08f6 1207      		cpc r17,r18
 1785 08f8 01F4      		brne .L131
 1786               	.L130:
 1787               	.LM250:
 1788 08fa 0E94 0000 		call PrintNewLine
 1789               	.LM251:
 1790 08fe 0E94 0000 		call PrintNewLine
 1791               	.LM252:
 1792 0902 80E0      		ldi r24,lo8(gTextMsg_EEPROMerrorCnt)
 1793 0904 90E0      		ldi r25,hi8(gTextMsg_EEPROMerrorCnt)
 1794 0906 60E0      		ldi r22,lo8(0)
 1795 0908 0E94 0000 		call PrintFromPROGMEM
 1796               	.LM253:
 1797 090c C601      		movw r24,r12
 1798 090e 61E0      		ldi r22,lo8(1)
 1799 0910 70E0      		ldi r23,hi8(1)
 1800 0912 0E94 0000 		call PrintDecInt
 1801               	.LM254:
 1802 0916 0E94 0000 		call PrintNewLine
 1803               	.LM255:
 1804 091a 0E94 0000 		call PrintNewLine
 1805               	.LVL105:
 1806               	.L351:
 1807               	.LM256:
 1808 091e 1092 0000 		sts gEepromIndex,__zero_reg__
 1809 0922 1092 0000 		sts (gEepromIndex)+1,__zero_reg__
 1810 0926 1092 0000 		sts (gEepromIndex)+2,__zero_reg__
 1811 092a 1092 0000 		sts (gEepromIndex)+3,__zero_reg__
 1812 092e 00C0      		rjmp .L344
 1813               	.LVL106:
 1814               	.L106:
 1815               	.LBE602:
 1816               	.LBE594:
 1817               	.LM257:
 1818 0930 80E0      		ldi r24,lo8(gTextMsg_HELP_MSG_B)
 1819 0932 90E0      		ldi r25,hi8(gTextMsg_HELP_MSG_B)
 1820 0934 62E0      		ldi r22,lo8(2)
 1821 0936 0E94 0000 		call PrintFromPROGMEMln
 1822               	.LVL107:
 1823               	.LBB603:
 1824               	.LBB604:
 1825               	.LM258:
 1826 093a 8091 0701 		lds r24,263
 1827 093e 8064      		ori r24,lo8(64)
 1828 0940 8093 0701 		sts 263,r24
 1829               	.LM259:
 1830 0944 8091 0801 		lds r24,264
 1831 0948 8064      		ori r24,lo8(64)
 1832 094a 8093 0801 		sts 264,r24
 1833 094e 00C0      		rjmp .L132
 1834               	.LVL108:
 1835               	.L135:
 1836               	.LM260:
 1837 0950 8091 0801 		lds r24,264
 1838 0954 8F7B      		andi r24,lo8(-65)
 1839 0956 8093 0801 		sts 264,r24
 1840 095a 80E0      		ldi r24,lo8(0)
 1841 095c 90E0      		ldi r25,hi8(0)
 1842               	.LVL109:
 1843               	.L133:
 1844               	.LBB605:
 1845               	.LBB606:
 1846               	.LBB607:
 1847               	.LBB608:
 1848               	.LBB609:
 1849               	.LBB610:
 1850               	.LM261:
 1851 095e E0ED      		ldi r30,lo8(2000)
 1852 0960 F7E0      		ldi r31,hi8(2000)
 1853               	.LVL110:
 1854               	/* #APP */
 1855               	 ;  105 "c:/winavr-20100110/lib/gcc/../../avr/include/util/delay_basic.h" 1
 1856 0962 3197      		1: sbiw r30,1
 1857 0964 01F4      		brne 1b
 1858               	 ;  0 "" 2
 1859               	/* #NOAPP */
 1860               	.LBE610:
 1861               	.LBE609:
 1862               	.LBE608:
 1863               	.LBE607:
 1864               	.LM262:
 1865 0966 0196      		adiw r24,1
 1866 0968 8436      		cpi r24,100
 1867 096a 9105      		cpc r25,__zero_reg__
 1868 096c 01F4      		brne .L133
 1869               	.LBE606:
 1870               	.LBE605:
 1871               	.LM263:
 1872 096e 8091 0801 		lds r24,264
 1873               	.LVL111:
 1874 0972 8064      		ori r24,lo8(64)
 1875 0974 8093 0801 		sts 264,r24
 1876 0978 80E0      		ldi r24,lo8(0)
 1877 097a 90E0      		ldi r25,hi8(0)
 1878               	.LVL112:
 1879               	.L134:
 1880               	.LBB611:
 1881               	.LBB612:
 1882               	.LBB613:
 1883               	.LBB614:
 1884               	.LBB615:
 1885               	.LBB616:
 1886               	.LM264:
 1887 097c E0ED      		ldi r30,lo8(2000)
 1888 097e F7E0      		ldi r31,hi8(2000)
 1889               	.LVL113:
 1890               	/* #APP */
 1891               	 ;  105 "c:/winavr-20100110/lib/gcc/../../avr/include/util/delay_basic.h" 1
 1892 0980 3197      		1: sbiw r30,1
 1893 0982 01F4      		brne 1b
 1894               	 ;  0 "" 2
 1895               	/* #NOAPP */
 1896               	.LBE616:
 1897               	.LBE615:
 1898               	.LBE614:
 1899               	.LBE613:
 1900               	.LM265:
 1901 0984 0196      		adiw r24,1
 1902 0986 8436      		cpi r24,100
 1903 0988 9105      		cpc r25,__zero_reg__
 1904 098a 01F4      		brne .L134
 1905               	.L132:
 1906               	.LBE612:
 1907               	.LBE611:
 1908               	.LBB617:
 1909               	.LBB618:
 1910               	.LM266:
 1911 098c 8091 C000 		lds r24,192
 1912               	.LVL114:
 1913               	.LBE618:
 1914               	.LBE617:
 1915               	.LM267:
 1916 0990 87FF      		sbrs r24,7
 1917 0992 00C0      		rjmp .L135
 1918               	.L285:
 1919               	.LBB619:
 1920               	.LBB620:
 1921               	.LM268:
 1922 0994 8091 C000 		lds r24,192
 1923 0998 87FF      		sbrs r24,7
 1924 099a 00C0      		rjmp .L285
 1925 099c 00C0      		rjmp .L352
 1926               	.LVL115:
 1927               	.L107:
 1928               	.LBE620:
 1929               	.LBE619:
 1930               	.LBE604:
 1931               	.LBE603:
 1932               	.LM269:
 1933 099e 80E0      		ldi r24,lo8(gTextMsg_HELP_MSG_E)
 1934 09a0 90E0      		ldi r25,hi8(gTextMsg_HELP_MSG_E)
 1935 09a2 62E0      		ldi r22,lo8(2)
 1936 09a4 0E94 0000 		call PrintFromPROGMEMln
 1937               	.LVL116:
 1938               	.LM270:
 1939 09a8 4091 0000 		lds r20,gEepromIndex
 1940 09ac 5091 0000 		lds r21,(gEepromIndex)+1
 1941 09b0 6091 0000 		lds r22,(gEepromIndex)+2
 1942 09b4 7091 0000 		lds r23,(gEepromIndex)+3
 1943 09b8 81E0      		ldi r24,lo8(1)
 1944 09ba 20E1      		ldi r18,lo8(16)
 1945 09bc 0E94 0000 		call DumpHex
 1946               	.LM271:
 1947 09c0 8091 0000 		lds r24,gEepromIndex
 1948 09c4 9091 0000 		lds r25,(gEepromIndex)+1
 1949 09c8 A091 0000 		lds r26,(gEepromIndex)+2
 1950 09cc B091 0000 		lds r27,(gEepromIndex)+3
 1951 09d0 8050      		subi r24,lo8(-(256))
 1952 09d2 9F4F      		sbci r25,hi8(-(256))
 1953 09d4 AF4F      		sbci r26,hlo8(-(256))
 1954 09d6 BF4F      		sbci r27,hhi8(-(256))
 1955 09d8 8093 0000 		sts gEepromIndex,r24
 1956 09dc 9093 0000 		sts (gEepromIndex)+1,r25
 1957 09e0 A093 0000 		sts (gEepromIndex)+2,r26
 1958 09e4 B093 0000 		sts (gEepromIndex)+3,r27
 1959               	.LM272:
 1960 09e8 8050      		subi r24,lo8(4096)
 1961 09ea 9041      		sbci r25,hi8(4096)
 1962 09ec A040      		sbci r26,hlo8(4096)
 1963 09ee B040      		sbci r27,hhi8(4096)
 1964 09f0 00F4      		brsh .+2
 1965 09f2 00C0      		rjmp .L344
 1966 09f4 00C0      		rjmp .L351
 1967               	.LVL117:
 1968               	.L359:
 1969               	.LM273:
 1970 09f6 80E0      		ldi r24,lo8(gTextMsg_HELP_MSG_F)
 1971 09f8 90E0      		ldi r25,hi8(gTextMsg_HELP_MSG_F)
 1972 09fa 62E0      		ldi r22,lo8(2)
 1973 09fc 0E94 0000 		call PrintFromPROGMEMln
 1974               	.LVL118:
 1975               	.LM274:
 1976 0a00 4091 0000 		lds r20,gFlashIndex
 1977 0a04 5091 0000 		lds r21,(gFlashIndex)+1
 1978 0a08 6091 0000 		lds r22,(gFlashIndex)+2
 1979 0a0c 7091 0000 		lds r23,(gFlashIndex)+3
 1980 0a10 80E0      		ldi r24,lo8(0)
 1981 0a12 20E1      		ldi r18,lo8(16)
 1982 0a14 0E94 0000 		call DumpHex
 1983               	.LM275:
 1984 0a18 8091 0000 		lds r24,gFlashIndex
 1985 0a1c 9091 0000 		lds r25,(gFlashIndex)+1
 1986 0a20 A091 0000 		lds r26,(gFlashIndex)+2
 1987 0a24 B091 0000 		lds r27,(gFlashIndex)+3
 1988 0a28 8050      		subi r24,lo8(-(256))
 1989 0a2a 9F4F      		sbci r25,hi8(-(256))
 1990 0a2c AF4F      		sbci r26,hlo8(-(256))
 1991 0a2e BF4F      		sbci r27,hhi8(-(256))
 1992 0a30 8093 0000 		sts gFlashIndex,r24
 1993 0a34 9093 0000 		sts (gFlashIndex)+1,r25
 1994 0a38 A093 0000 		sts (gFlashIndex)+2,r26
 1995 0a3c B093 0000 		sts (gFlashIndex)+3,r27
 1996 0a40 00C0      		rjmp .L344
 1997               	.LVL119:
 1998               	.L109:
 1999               	.LM276:
 2000 0a42 80E0      		ldi r24,lo8(gTextMsg_HELP_MSG_H)
 2001 0a44 90E0      		ldi r25,hi8(gTextMsg_HELP_MSG_H)
 2002 0a46 62E0      		ldi r22,lo8(2)
 2003 0a48 0E94 0000 		call PrintFromPROGMEMln
 2004               	.LVL120:
 2005               	.LBB621:
 2006               	.LBB622:
 2007               	.LM277:
 2008 0a4c 80E0      		ldi r24,lo8(gTextMsg_HELP_MSG_0)
 2009 0a4e 90E0      		ldi r25,hi8(gTextMsg_HELP_MSG_0)
 2010 0a50 60E0      		ldi r22,lo8(0)
 2011 0a52 0E94 0000 		call PrintFromPROGMEMln
 2012               	.LM278:
 2013 0a56 80E0      		ldi r24,lo8(gTextMsg_HELP_MSG_QM)
 2014 0a58 90E0      		ldi r25,hi8(gTextMsg_HELP_MSG_QM)
 2015 0a5a 60E0      		ldi r22,lo8(0)
 2016 0a5c 0E94 0000 		call PrintFromPROGMEMln
 2017               	.LM279:
 2018 0a60 80E0      		ldi r24,lo8(gTextMsg_HELP_MSG_AT)
 2019 0a62 90E0      		ldi r25,hi8(gTextMsg_HELP_MSG_AT)
 2020 0a64 60E0      		ldi r22,lo8(0)
 2021 0a66 0E94 0000 		call PrintFromPROGMEMln
 2022               	.LM280:
 2023 0a6a 80E0      		ldi r24,lo8(gTextMsg_HELP_MSG_B)
 2024 0a6c 90E0      		ldi r25,hi8(gTextMsg_HELP_MSG_B)
 2025 0a6e 60E0      		ldi r22,lo8(0)
 2026 0a70 0E94 0000 		call PrintFromPROGMEMln
 2027               	.LM281:
 2028 0a74 80E0      		ldi r24,lo8(gTextMsg_HELP_MSG_E)
 2029 0a76 90E0      		ldi r25,hi8(gTextMsg_HELP_MSG_E)
 2030 0a78 60E0      		ldi r22,lo8(0)
 2031 0a7a 0E94 0000 		call PrintFromPROGMEMln
 2032               	.LM282:
 2033 0a7e 80E0      		ldi r24,lo8(gTextMsg_HELP_MSG_F)
 2034 0a80 90E0      		ldi r25,hi8(gTextMsg_HELP_MSG_F)
 2035 0a82 60E0      		ldi r22,lo8(0)
 2036 0a84 0E94 0000 		call PrintFromPROGMEMln
 2037               	.LM283:
 2038 0a88 80E0      		ldi r24,lo8(gTextMsg_HELP_MSG_H)
 2039 0a8a 90E0      		ldi r25,hi8(gTextMsg_HELP_MSG_H)
 2040 0a8c 60E0      		ldi r22,lo8(0)
 2041 0a8e 0E94 0000 		call PrintFromPROGMEMln
 2042               	.LM284:
 2043 0a92 80E0      		ldi r24,lo8(gTextMsg_HELP_MSG_L)
 2044 0a94 90E0      		ldi r25,hi8(gTextMsg_HELP_MSG_L)
 2045 0a96 60E0      		ldi r22,lo8(0)
 2046 0a98 0E94 0000 		call PrintFromPROGMEMln
 2047               	.LM285:
 2048 0a9c 80E0      		ldi r24,lo8(gTextMsg_HELP_MSG_Q)
 2049 0a9e 90E0      		ldi r25,hi8(gTextMsg_HELP_MSG_Q)
 2050 0aa0 60E0      		ldi r22,lo8(0)
 2051 0aa2 0E94 0000 		call PrintFromPROGMEMln
 2052               	.LM286:
 2053 0aa6 80E0      		ldi r24,lo8(gTextMsg_HELP_MSG_R)
 2054 0aa8 90E0      		ldi r25,hi8(gTextMsg_HELP_MSG_R)
 2055 0aaa 60E0      		ldi r22,lo8(0)
 2056 0aac 0E94 0000 		call PrintFromPROGMEMln
 2057               	.LM287:
 2058 0ab0 80E0      		ldi r24,lo8(gTextMsg_HELP_MSG_V)
 2059 0ab2 90E0      		ldi r25,hi8(gTextMsg_HELP_MSG_V)
 2060 0ab4 60E0      		ldi r22,lo8(0)
 2061 0ab6 0E94 0000 		call PrintFromPROGMEMln
 2062               	.LM288:
 2063 0aba 80E0      		ldi r24,lo8(gTextMsg_HELP_MSG_Y)
 2064 0abc 90E0      		ldi r25,hi8(gTextMsg_HELP_MSG_Y)
 2065 0abe 00C0      		rjmp .L350
 2066               	.LVL121:
 2067               	.L110:
 2068               	.LBE622:
 2069               	.LBE621:
 2070               	.LM289:
 2071 0ac0 80E0      		ldi r24,lo8(gTextMsg_HELP_MSG_L)
 2072 0ac2 90E0      		ldi r25,hi8(gTextMsg_HELP_MSG_L)
 2073 0ac4 62E0      		ldi r22,lo8(2)
 2074 0ac6 0E94 0000 		call PrintFromPROGMEMln
 2075               	.LVL122:
 2076               	.LBB623:
 2077               	.LBB624:
 2078               	.LM290:
 2079 0aca 81E4      		ldi r24,lo8(65)
 2080 0acc 0E94 0000 		call PrintAvailablePort
 2081               	.LM291:
 2082 0ad0 82E4      		ldi r24,lo8(66)
 2083 0ad2 0E94 0000 		call PrintAvailablePort
 2084               	.LM292:
 2085 0ad6 83E4      		ldi r24,lo8(67)
 2086 0ad8 0E94 0000 		call PrintAvailablePort
 2087               	.LM293:
 2088 0adc 84E4      		ldi r24,lo8(68)
 2089 0ade 0E94 0000 		call PrintAvailablePort
 2090               	.LM294:
 2091 0ae2 85E4      		ldi r24,lo8(69)
 2092 0ae4 0E94 0000 		call PrintAvailablePort
 2093               	.LM295:
 2094 0ae8 86E4      		ldi r24,lo8(70)
 2095 0aea 0E94 0000 		call PrintAvailablePort
 2096               	.LM296:
 2097 0aee 87E4      		ldi r24,lo8(71)
 2098 0af0 0E94 0000 		call PrintAvailablePort
 2099               	.LM297:
 2100 0af4 88E4      		ldi r24,lo8(72)
 2101 0af6 0E94 0000 		call PrintAvailablePort
 2102               	.LM298:
 2103 0afa 8AE4      		ldi r24,lo8(74)
 2104 0afc 0E94 0000 		call PrintAvailablePort
 2105               	.LM299:
 2106 0b00 8BE4      		ldi r24,lo8(75)
 2107 0b02 0E94 0000 		call PrintAvailablePort
 2108               	.LM300:
 2109 0b06 8CE4      		ldi r24,lo8(76)
 2110 0b08 0E94 0000 		call PrintAvailablePort
 2111 0b0c 00C0      		rjmp .L344
 2112               	.LVL123:
 2113               	.L360:
 2114               	.LBE624:
 2115               	.LBE623:
 2116               	.LM301:
 2117 0b0e 80E0      		ldi r24,lo8(gTextMsg_HELP_MSG_Q)
 2118 0b10 90E0      		ldi r25,hi8(gTextMsg_HELP_MSG_Q)
 2119 0b12 62E0      		ldi r22,lo8(2)
 2120 0b14 0E94 0000 		call PrintFromPROGMEMln
 2121               	.LVL124:
 2122 0b18 7724      		clr r7
 2123 0b1a 7394      		inc r7
 2124 0b1c 8824      		clr r8
 2125 0b1e 9924      		clr r9
 2126 0b20 00C0      		rjmp .L137
 2127               	.LVL125:
 2128               	.L112:
 2129               	.LM302:
 2130 0b22 80E0      		ldi r24,lo8(gTextMsg_HELP_MSG_R)
 2131 0b24 90E0      		ldi r25,hi8(gTextMsg_HELP_MSG_R)
 2132 0b26 62E0      		ldi r22,lo8(2)
 2133 0b28 0E94 0000 		call PrintFromPROGMEMln
 2134               	.LVL126:
 2135               	.LM303:
 2136 0b2c 4091 0000 		lds r20,gRamIndex
 2137 0b30 5091 0000 		lds r21,(gRamIndex)+1
 2138 0b34 6091 0000 		lds r22,(gRamIndex)+2
 2139 0b38 7091 0000 		lds r23,(gRamIndex)+3
 2140 0b3c 82E0      		ldi r24,lo8(2)
 2141 0b3e 20E1      		ldi r18,lo8(16)
 2142 0b40 0E94 0000 		call DumpHex
 2143               	.LM304:
 2144 0b44 8091 0000 		lds r24,gRamIndex
 2145 0b48 9091 0000 		lds r25,(gRamIndex)+1
 2146 0b4c A091 0000 		lds r26,(gRamIndex)+2
 2147 0b50 B091 0000 		lds r27,(gRamIndex)+3
 2148 0b54 8050      		subi r24,lo8(-(256))
 2149 0b56 9F4F      		sbci r25,hi8(-(256))
 2150 0b58 AF4F      		sbci r26,hlo8(-(256))
 2151 0b5a BF4F      		sbci r27,hhi8(-(256))
 2152 0b5c 8093 0000 		sts gRamIndex,r24
 2153 0b60 9093 0000 		sts (gRamIndex)+1,r25
 2154 0b64 A093 0000 		sts (gRamIndex)+2,r26
 2155 0b68 B093 0000 		sts (gRamIndex)+3,r27
 2156 0b6c 00C0      		rjmp .L344
 2157               	.LVL127:
 2158               	.L113:
 2159               	.LM305:
 2160 0b6e 80E0      		ldi r24,lo8(gTextMsg_HELP_MSG_V)
 2161 0b70 90E0      		ldi r25,hi8(gTextMsg_HELP_MSG_V)
 2162 0b72 62E0      		ldi r22,lo8(2)
 2163 0b74 0E94 0000 		call PrintFromPROGMEMln
 2164               	.LVL128:
 2165               	.LBB625:
 2166               	.LBB626:
 2167               	.LM306:
 2168 0b78 80E0      		ldi r24,lo8(gTextMsg_CPU_Name)
 2169 0b7a 90E0      		ldi r25,hi8(gTextMsg_CPU_Name)
 2170 0b7c 60E0      		ldi r22,lo8(0)
 2171 0b7e 0E94 0000 		call PrintFromPROGMEMln
 2172               	.LM307:
 2173 0b82 80E0      		ldi r24,lo8(gTextMsg_VECTOR_HEADER)
 2174 0b84 90E0      		ldi r25,hi8(gTextMsg_VECTOR_HEADER)
 2175 0b86 60E0      		ldi r22,lo8(0)
 2176 0b88 0E94 0000 		call PrintFromPROGMEMln
 2177 0b8c 6624      		clr r6
 2178 0b8e 7724      		clr r7
 2179 0b90 4301      		movw r8,r6
 2180 0b92 CC5D      		subi r28,lo8(-292)
 2181 0b94 DE4F      		sbci r29,hi8(-292)
 2182 0b96 1982      		std Y+1,__zero_reg__
 2183 0b98 1882      		st Y,__zero_reg__
 2184 0b9a C452      		subi r28,lo8(292)
 2185 0b9c D140      		sbci r29,hi8(292)
 2186               	.LVL129:
 2187               	.L155:
 2188               	.LM308:
 2189 0b9e D401      		movw r26,r8
 2190 0ba0 C301      		movw r24,r6
 2191 0ba2 B695      		lsr r27
 2192 0ba4 A795      		ror r26
 2193 0ba6 9795      		ror r25
 2194 0ba8 8795      		ror r24
 2195 0baa CA5D      		subi r28,lo8(-294)
 2196 0bac DE4F      		sbci r29,hi8(-294)
 2197 0bae 8883      		st Y,r24
 2198 0bb0 9983      		std Y+1,r25
 2199 0bb2 AA83      		std Y+2,r26
 2200 0bb4 BB83      		std Y+3,r27
 2201 0bb6 C652      		subi r28,lo8(294)
 2202 0bb8 D140      		sbci r29,hi8(294)
 2203               	.LVL130:
 2204               	.LM309:
 2205 0bba CC5D      		subi r28,lo8(-292)
 2206 0bbc DE4F      		sbci r29,hi8(-292)
 2207 0bbe A881      		ld r26,Y
 2208 0bc0 B981      		ldd r27,Y+1
 2209 0bc2 C452      		subi r28,lo8(292)
 2210 0bc4 D140      		sbci r29,hi8(292)
 2211 0bc6 1196      		adiw r26,1
 2212 0bc8 CC5D      		subi r28,lo8(-292)
 2213 0bca DE4F      		sbci r29,hi8(-292)
 2214 0bcc B983      		std Y+1,r27
 2215 0bce A883      		st Y,r26
 2216 0bd0 C452      		subi r28,lo8(292)
 2217 0bd2 D140      		sbci r29,hi8(292)
 2218               	.LVL131:
 2219 0bd4 CD01      		movw r24,r26
 2220 0bd6 62E0      		ldi r22,lo8(2)
 2221 0bd8 70E0      		ldi r23,hi8(2)
 2222 0bda 0E94 0000 		call PrintDecInt
 2223               	.LBB627:
 2224               	.LBB628:
 2225               	.LM310:
 2226 0bde B0E2      		ldi r27,lo8(32)
 2227 0be0 B093 C600 		sts 198,r27
 2228               	.L138:
 2229               	.LM311:
 2230 0be4 8091 C000 		lds r24,192
 2231 0be8 86FF      		sbrs r24,6
 2232 0bea 00C0      		rjmp .L138
 2233               	.LM312:
 2234 0bec 8091 C000 		lds r24,192
 2235 0bf0 8064      		ori r24,lo8(64)
 2236 0bf2 8093 C000 		sts 192,r24
 2237               	.LBE628:
 2238               	.LBE627:
 2239               	.LBB629:
 2240               	.LBB630:
 2241               	.LM313:
 2242 0bf6 EDE2      		ldi r30,lo8(45)
 2243 0bf8 E093 C600 		sts 198,r30
 2244               	.L139:
 2245               	.LM314:
 2246 0bfc 8091 C000 		lds r24,192
 2247 0c00 86FF      		sbrs r24,6
 2248 0c02 00C0      		rjmp .L139
 2249               	.LM315:
 2250 0c04 8091 C000 		lds r24,192
 2251 0c08 8064      		ori r24,lo8(64)
 2252 0c0a 8093 C000 		sts 192,r24
 2253               	.LBE630:
 2254               	.LBE629:
 2255               	.LBB631:
 2256               	.LBB632:
 2257               	.LM316:
 2258 0c0e F0E2      		ldi r31,lo8(32)
 2259 0c10 F093 C600 		sts 198,r31
 2260               	.L140:
 2261               	.LM317:
 2262 0c14 8091 C000 		lds r24,192
 2263 0c18 86FF      		sbrs r24,6
 2264 0c1a 00C0      		rjmp .L140
 2265               	.LM318:
 2266 0c1c 8091 C000 		lds r24,192
 2267 0c20 8064      		ori r24,lo8(64)
 2268 0c22 8093 C000 		sts 192,r24
 2269               	.LBE632:
 2270               	.LBE631:
 2271               	.LM319:
 2272 0c26 CA5D      		subi r28,lo8(-294)
 2273 0c28 DE4F      		sbci r29,hi8(-294)
 2274 0c2a E880      		ld r14,Y
 2275 0c2c F980      		ldd r15,Y+1
 2276 0c2e 0A81      		ldd r16,Y+2
 2277 0c30 1B81      		ldd r17,Y+3
 2278 0c32 C652      		subi r28,lo8(294)
 2279 0c34 D140      		sbci r29,hi8(294)
 2280               	.LVL132:
 2281 0c36 BB27      		clr r27
 2282 0c38 A12F      		mov r26,r17
 2283 0c3a 902F      		mov r25,r16
 2284 0c3c 8F2D      		mov r24,r15
 2285 0c3e 0E94 0000 		call PrintHexByte
 2286               	.LM320:
 2287 0c42 CA5D      		subi r28,lo8(-294)
 2288 0c44 DE4F      		sbci r29,hi8(-294)
 2289 0c46 8881      		ld r24,Y
 2290 0c48 C652      		subi r28,lo8(294)
 2291 0c4a D140      		sbci r29,hi8(294)
 2292 0c4c 0E94 0000 		call PrintHexByte
 2293               	.LBB633:
 2294               	.LBB634:
 2295               	.LM321:
 2296 0c50 B0E2      		ldi r27,lo8(32)
 2297 0c52 FB2E      		mov r15,r27
 2298               	.LVL133:
 2299 0c54 F092 C600 		sts 198,r15
 2300               	.LVL134:
 2301               	.L141:
 2302               	.LM322:
 2303 0c58 8091 C000 		lds r24,192
 2304 0c5c 86FF      		sbrs r24,6
 2305 0c5e 00C0      		rjmp .L141
 2306               	.LM323:
 2307 0c60 8091 C000 		lds r24,192
 2308 0c64 8064      		ori r24,lo8(64)
 2309 0c66 8093 C000 		sts 192,r24
 2310               	.LBE634:
 2311               	.LBE633:
 2312               	.LBB635:
 2313               	.LBB636:
 2314               	.LM324:
 2315 0c6a 0DE3      		ldi r16,lo8(61)
 2316               	.LVL135:
 2317 0c6c 0093 C600 		sts 198,r16
 2318               	.L142:
 2319               	.LM325:
 2320 0c70 8091 C000 		lds r24,192
 2321 0c74 86FF      		sbrs r24,6
 2322 0c76 00C0      		rjmp .L142
 2323               	.LM326:
 2324 0c78 8091 C000 		lds r24,192
 2325 0c7c 8064      		ori r24,lo8(64)
 2326 0c7e 8093 C000 		sts 192,r24
 2327               	.LBE636:
 2328               	.LBE635:
 2329               	.LBB637:
 2330               	.LBB638:
 2331               	.LM327:
 2332 0c82 10E2      		ldi r17,lo8(32)
 2333               	.LVL136:
 2334 0c84 1093 C600 		sts 198,r17
 2335               	.L143:
 2336               	.LM328:
 2337 0c88 8091 C000 		lds r24,192
 2338 0c8c 86FF      		sbrs r24,6
 2339 0c8e 00C0      		rjmp .L143
 2340               	.LM329:
 2341 0c90 8091 C000 		lds r24,192
 2342 0c94 8064      		ori r24,lo8(64)
 2343 0c96 8093 C000 		sts 192,r24
 2344               	.LBE638:
 2345               	.LBE637:
 2346               	.LBB639:
 2347               	.LM330:
 2348               	/* #APP */
 2349               	 ;  1687 "stk500boot.c" 1
 2350 0c9a 8BBE      		out 59, r8
 2351 0c9c F301      		movw r30, r6
 2352 0c9e 2791      		elpm r18, Z+
 2353               		
 2354               	 ;  0 "" 2
 2355               	/* #NOAPP */
 2356 0ca0 C65D      		subi r28,lo8(-298)
 2357 0ca2 DE4F      		sbci r29,hi8(-298)
 2358 0ca4 2883      		st Y,r18
 2359 0ca6 CA52      		subi r28,lo8(298)
 2360 0ca8 D140      		sbci r29,hi8(298)
 2361               	.LVL137:
 2362               	.LBE639:
 2363 0caa A22E      		mov r10,r18
 2364               	.LVL138:
 2365 0cac BB24      		clr r11
 2366 0cae CC24      		clr r12
 2367 0cb0 DD24      		clr r13
 2368               	.LVL139:
 2369               	.LBB640:
 2370               	.LM331:
 2371 0cb2 0894      		sec
 2372 0cb4 611C      		adc r6,__zero_reg__
 2373 0cb6 711C      		adc r7,__zero_reg__
 2374 0cb8 811C      		adc r8,__zero_reg__
 2375 0cba 911C      		adc r9,__zero_reg__
 2376               	/* #APP */
 2377               	 ;  1688 "stk500boot.c" 1
 2378 0cbc 8BBE      		out 59, r8
 2379 0cbe F301      		movw r30, r6
 2380 0cc0 8791      		elpm r24, Z+
 2381               		
 2382               	 ;  0 "" 2
 2383               	.LVL140:
 2384               	/* #NOAPP */
 2385               	.LBE640:
 2386 0cc2 282E      		mov r2,r24
 2387               	.LVL141:
 2388 0cc4 3324      		clr r3
 2389 0cc6 4424      		clr r4
 2390 0cc8 5524      		clr r5
 2391               	.LBB641:
 2392               	.LM332:
 2393 0cca 0894      		sec
 2394 0ccc 611C      		adc r6,__zero_reg__
 2395 0cce 711C      		adc r7,__zero_reg__
 2396 0cd0 811C      		adc r8,__zero_reg__
 2397 0cd2 911C      		adc r9,__zero_reg__
 2398               	/* #APP */
 2399               	 ;  1689 "stk500boot.c" 1
 2400 0cd4 8BBE      		out 59, r8
 2401 0cd6 F301      		movw r30, r6
 2402 0cd8 3791      		elpm r19, Z+
 2403               		
 2404               	 ;  0 "" 2
 2405               	/* #NOAPP */
 2406 0cda C55D      		subi r28,lo8(-299)
 2407 0cdc DE4F      		sbci r29,hi8(-299)
 2408 0cde 3883      		st Y,r19
 2409 0ce0 CB52      		subi r28,lo8(299)
 2410 0ce2 D140      		sbci r29,hi8(299)
 2411               	.LVL142:
 2412               	.LBE641:
 2413               	.LBB642:
 2414               	.LM333:
 2415 0ce4 0894      		sec
 2416 0ce6 611C      		adc r6,__zero_reg__
 2417 0ce8 711C      		adc r7,__zero_reg__
 2418 0cea 811C      		adc r8,__zero_reg__
 2419 0cec 911C      		adc r9,__zero_reg__
 2420               	/* #APP */
 2421               	 ;  1690 "stk500boot.c" 1
 2422 0cee 8BBE      		out 59, r8
 2423 0cf0 F301      		movw r30, r6
 2424 0cf2 4791      		elpm r20, Z+
 2425               		
 2426               	 ;  0 "" 2
 2427               	/* #NOAPP */
 2428 0cf4 C45D      		subi r28,lo8(-300)
 2429 0cf6 DE4F      		sbci r29,hi8(-300)
 2430 0cf8 4883      		st Y,r20
 2431 0cfa CC52      		subi r28,lo8(300)
 2432 0cfc D140      		sbci r29,hi8(300)
 2433               	.LVL143:
 2434 0cfe ADEF      		ldi r26,lo8(-3)
 2435 0d00 EA2E      		mov r14,r26
 2436 0d02 AFEF      		ldi r26,hi8(-3)
 2437 0d04 FA2E      		mov r15,r26
 2438 0d06 AFEF      		ldi r26,hlo8(-3)
 2439 0d08 0A2F      		mov r16,r26
 2440 0d0a AFEF      		ldi r26,hhi8(-3)
 2441 0d0c 1A2F      		mov r17,r26
 2442 0d0e 6E0C      		add r6,r14
 2443 0d10 7F1C      		adc r7,r15
 2444 0d12 801E      		adc r8,r16
 2445 0d14 911E      		adc r9,r17
 2446               	.LBE642:
 2447               	.LM334:
 2448 0d16 142D      		mov r17,r4
 2449 0d18 032D      		mov r16,r3
 2450 0d1a F22C      		mov r15,r2
 2451 0d1c EE24      		clr r14
 2452               	.LVL144:
 2453 0d1e EA0C      		add r14,r10
 2454 0d20 FB1C      		adc r15,r11
 2455 0d22 0C1D      		adc r16,r12
 2456 0d24 1D1D      		adc r17,r13
 2457               	.LM335:
 2458 0d26 0E94 0000 		call PrintHexByte
 2459               	.LVL145:
 2460               	.LBB643:
 2461               	.LBB644:
 2462               	.LM336:
 2463 0d2a 20E2      		ldi r18,lo8(32)
 2464 0d2c 2093 C600 		sts 198,r18
 2465               	.L144:
 2466               	.LM337:
 2467 0d30 8091 C000 		lds r24,192
 2468 0d34 86FF      		sbrs r24,6
 2469 0d36 00C0      		rjmp .L144
 2470               	.LM338:
 2471 0d38 8091 C000 		lds r24,192
 2472 0d3c 8064      		ori r24,lo8(64)
 2473 0d3e 8093 C000 		sts 192,r24
 2474               	.LBE644:
 2475               	.LBE643:
 2476               	.LM339:
 2477 0d42 C65D      		subi r28,lo8(-298)
 2478 0d44 DE4F      		sbci r29,hi8(-298)
 2479 0d46 8881      		ld r24,Y
 2480 0d48 CA52      		subi r28,lo8(298)
 2481 0d4a D140      		sbci r29,hi8(298)
 2482 0d4c 0E94 0000 		call PrintHexByte
 2483               	.LBB645:
 2484               	.LBB646:
 2485               	.LM340:
 2486 0d50 30E2      		ldi r19,lo8(32)
 2487 0d52 3093 C600 		sts 198,r19
 2488               	.L145:
 2489               	.LM341:
 2490 0d56 8091 C000 		lds r24,192
 2491 0d5a 86FF      		sbrs r24,6
 2492 0d5c 00C0      		rjmp .L145
 2493               	.LM342:
 2494 0d5e 8091 C000 		lds r24,192
 2495 0d62 8064      		ori r24,lo8(64)
 2496 0d64 8093 C000 		sts 192,r24
 2497               	.LBE646:
 2498               	.LBE645:
 2499               	.LM343:
 2500 0d68 C45D      		subi r28,lo8(-300)
 2501 0d6a DE4F      		sbci r29,hi8(-300)
 2502 0d6c 8881      		ld r24,Y
 2503 0d6e CC52      		subi r28,lo8(300)
 2504 0d70 D140      		sbci r29,hi8(300)
 2505 0d72 0E94 0000 		call PrintHexByte
 2506               	.LBB647:
 2507               	.LBB648:
 2508               	.LM344:
 2509 0d76 40E2      		ldi r20,lo8(32)
 2510 0d78 4093 C600 		sts 198,r20
 2511               	.L146:
 2512               	.LM345:
 2513 0d7c 8091 C000 		lds r24,192
 2514 0d80 86FF      		sbrs r24,6
 2515 0d82 00C0      		rjmp .L146
 2516               	.LM346:
 2517 0d84 8091 C000 		lds r24,192
 2518 0d88 8064      		ori r24,lo8(64)
 2519 0d8a 8093 C000 		sts 192,r24
 2520               	.LBE648:
 2521               	.LBE647:
 2522               	.LM347:
 2523 0d8e C55D      		subi r28,lo8(-299)
 2524 0d90 DE4F      		sbci r29,hi8(-299)
 2525 0d92 8881      		ld r24,Y
 2526 0d94 CB52      		subi r28,lo8(299)
 2527 0d96 D140      		sbci r29,hi8(299)
 2528 0d98 0E94 0000 		call PrintHexByte
 2529               	.LBB649:
 2530               	.LBB650:
 2531               	.LM348:
 2532 0d9c 50E2      		ldi r21,lo8(32)
 2533 0d9e 5093 C600 		sts 198,r21
 2534               	.L147:
 2535               	.LM349:
 2536 0da2 8091 C000 		lds r24,192
 2537 0da6 86FF      		sbrs r24,6
 2538 0da8 00C0      		rjmp .L147
 2539               	.LM350:
 2540 0daa 8091 C000 		lds r24,192
 2541 0dae 8064      		ori r24,lo8(64)
 2542 0db0 8093 C000 		sts 192,r24
 2543               	.LBE650:
 2544               	.LBE649:
 2545               	.LM351:
 2546 0db4 8FEF      		ldi r24,lo8(65535)
 2547 0db6 E816      		cp r14,r24
 2548 0db8 8FEF      		ldi r24,hi8(65535)
 2549 0dba F806      		cpc r15,r24
 2550 0dbc 80E0      		ldi r24,hlo8(65535)
 2551 0dbe 0807      		cpc r16,r24
 2552 0dc0 80E0      		ldi r24,hhi8(65535)
 2553 0dc2 1807      		cpc r17,r24
 2554 0dc4 01F4      		brne .L148
 2555               	.LM352:
 2556 0dc6 80E0      		ldi r24,lo8(gTextMsg_noVector)
 2557 0dc8 90E0      		ldi r25,hi8(gTextMsg_noVector)
 2558 0dca 60E0      		ldi r22,lo8(0)
 2559 0dcc 0E94 0000 		call PrintFromPROGMEM
 2560 0dd0 00C0      		rjmp .L149
 2561               	.L148:
 2562               	.LM353:
 2563 0dd2 D801      		movw r26,r16
 2564 0dd4 C701      		movw r24,r14
 2565 0dd6 8070      		andi r24,lo8(49152)
 2566 0dd8 907C      		andi r25,hi8(49152)
 2567 0dda A070      		andi r26,hlo8(49152)
 2568 0ddc B070      		andi r27,hhi8(49152)
 2569 0dde 8050      		subi r24,lo8(49152)
 2570 0de0 904C      		sbci r25,hi8(49152)
 2571 0de2 A040      		sbci r26,hlo8(49152)
 2572 0de4 B040      		sbci r27,hhi8(49152)
 2573 0de6 01F4      		brne .L150
 2574               	.LM354:
 2575 0de8 2FEF      		ldi r18,lo8(16383)
 2576 0dea 3FE3      		ldi r19,hi8(16383)
 2577 0dec 40E0      		ldi r20,hlo8(16383)
 2578 0dee 50E0      		ldi r21,hhi8(16383)
 2579 0df0 E222      		and r14,r18
 2580 0df2 F322      		and r15,r19
 2581 0df4 0423      		and r16,r20
 2582 0df6 1523      		and r17,r21
 2583               	.LVL146:
 2584               	.LM355:
 2585 0df8 CA5D      		subi r28,lo8(-294)
 2586 0dfa DE4F      		sbci r29,hi8(-294)
 2587 0dfc A880      		ld r10,Y
 2588 0dfe B980      		ldd r11,Y+1
 2589 0e00 CA80      		ldd r12,Y+2
 2590 0e02 DB80      		ldd r13,Y+3
 2591 0e04 C652      		subi r28,lo8(294)
 2592 0e06 D140      		sbci r29,hi8(294)
 2593               	.LVL147:
 2594 0e08 AE0C      		add r10,r14
 2595 0e0a BF1C      		adc r11,r15
 2596 0e0c C01E      		adc r12,r16
 2597 0e0e D11E      		adc r13,r17
 2598               	.LM356:
 2599 0e10 AA0C      		lsl r10
 2600 0e12 BB1C      		rol r11
 2601 0e14 CC1C      		rol r12
 2602 0e16 DD1C      		rol r13
 2603               	.LM357:
 2604 0e18 80E0      		ldi r24,lo8(gTextMsg_rjmp)
 2605 0e1a 90E0      		ldi r25,hi8(gTextMsg_rjmp)
 2606 0e1c 60E0      		ldi r22,lo8(0)
 2607 0e1e 0E94 0000 		call PrintFromPROGMEM
 2608               	.LM358:
 2609 0e22 BB27      		clr r27
 2610 0e24 A12F      		mov r26,r17
 2611 0e26 902F      		mov r25,r16
 2612 0e28 8F2D      		mov r24,r15
 2613 0e2a 0E94 0000 		call PrintHexByte
 2614               	.LM359:
 2615 0e2e 8E2D      		mov r24,r14
 2616 0e30 0E94 0000 		call PrintHexByte
 2617               	.LBB651:
 2618               	.LBB652:
 2619               	.LM360:
 2620 0e34 30E2      		ldi r19,lo8(32)
 2621 0e36 3093 C600 		sts 198,r19
 2622               	.LVL148:
 2623               	.L151:
 2624               	.LM361:
 2625 0e3a 8091 C000 		lds r24,192
 2626 0e3e 86FF      		sbrs r24,6
 2627 0e40 00C0      		rjmp .L151
 2628               	.LM362:
 2629 0e42 8091 C000 		lds r24,192
 2630 0e46 8064      		ori r24,lo8(64)
 2631 0e48 8093 C000 		sts 192,r24
 2632               	.LBE652:
 2633               	.LBE651:
 2634               	.LBB653:
 2635               	.LBB654:
 2636               	.LM363:
 2637 0e4c 4EE3      		ldi r20,lo8(62)
 2638 0e4e 4093 C600 		sts 198,r20
 2639               	.L152:
 2640               	.LM364:
 2641 0e52 8091 C000 		lds r24,192
 2642 0e56 86FF      		sbrs r24,6
 2643 0e58 00C0      		rjmp .L152
 2644 0e5a 00C0      		rjmp .L353
 2645               	.LVL149:
 2646               	.L150:
 2647               	.LBE654:
 2648               	.LBE653:
 2649               	.LM365:
 2650 0e5c 8EE0      		ldi r24,lo8(65038)
 2651 0e5e 9EEF      		ldi r25,hi8(65038)
 2652 0e60 A0E0      		ldi r26,hlo8(65038)
 2653 0e62 B0E0      		ldi r27,hhi8(65038)
 2654 0e64 E822      		and r14,r24
 2655 0e66 F922      		and r15,r25
 2656 0e68 0A23      		and r16,r26
 2657 0e6a 1B23      		and r17,r27
 2658 0e6c 9CE0      		ldi r25,lo8(37900)
 2659 0e6e E916      		cp r14,r25
 2660 0e70 94E9      		ldi r25,hi8(37900)
 2661 0e72 F906      		cpc r15,r25
 2662 0e74 90E0      		ldi r25,hlo8(37900)
 2663 0e76 0907      		cpc r16,r25
 2664 0e78 90E0      		ldi r25,hhi8(37900)
 2665 0e7a 1907      		cpc r17,r25
 2666 0e7c 01F0      		breq .+2
 2667 0e7e 00C0      		rjmp .L149
 2668               	.LM366:
 2669 0e80 C45D      		subi r28,lo8(-300)
 2670 0e82 DE4F      		sbci r29,hi8(-300)
 2671 0e84 A881      		ld r26,Y
 2672 0e86 CC52      		subi r28,lo8(300)
 2673 0e88 D140      		sbci r29,hi8(300)
 2674 0e8a EA2E      		mov r14,r26
 2675               	.LVL150:
 2676 0e8c FF24      		clr r15
 2677               	.LVL151:
 2678 0e8e 00E0      		ldi r16,lo8(0)
 2679 0e90 10E0      		ldi r17,hi8(0)
 2680               	.LVL152:
 2681 0e92 102F      		mov r17,r16
 2682 0e94 0F2D      		mov r16,r15
 2683 0e96 FE2C      		mov r15,r14
 2684 0e98 EE24      		clr r14
 2685               	.LVL153:
 2686 0e9a C55D      		subi r28,lo8(-299)
 2687 0e9c DE4F      		sbci r29,hi8(-299)
 2688 0e9e B881      		ld r27,Y
 2689 0ea0 CB52      		subi r28,lo8(299)
 2690 0ea2 D140      		sbci r29,hi8(299)
 2691 0ea4 EB0E      		add r14,r27
 2692 0ea6 F11C      		adc r15,__zero_reg__
 2693 0ea8 011D      		adc r16,__zero_reg__
 2694 0eaa 111D      		adc r17,__zero_reg__
 2695 0eac D601      		movw r26,r12
 2696 0eae C501      		movw r24,r10
 2697 0eb0 8170      		andi r24,lo8(1)
 2698 0eb2 9070      		andi r25,hi8(1)
 2699 0eb4 A070      		andi r26,hlo8(1)
 2700 0eb6 B070      		andi r27,hhi8(1)
 2701 0eb8 DC01      		movw r26,r24
 2702 0eba 9927      		clr r25
 2703 0ebc 8827      		clr r24
 2704 0ebe E80E      		add r14,r24
 2705 0ec0 F91E      		adc r15,r25
 2706 0ec2 0A1F      		adc r16,r26
 2707 0ec4 1B1F      		adc r17,r27
 2708 0ec6 20EF      		ldi r18,lo8(240)
 2709 0ec8 30E0      		ldi r19,hi8(240)
 2710 0eca 40E0      		ldi r20,hlo8(240)
 2711 0ecc 50E0      		ldi r21,hhi8(240)
 2712 0ece A222      		and r10,r18
 2713 0ed0 B322      		and r11,r19
 2714 0ed2 C422      		and r12,r20
 2715 0ed4 D522      		and r13,r21
 2716               	.LVL154:
 2717 0ed6 41E1      		ldi r20,17
 2718 0ed8 AA0C      	1:	lsl r10
 2719 0eda BB1C      		rol r11
 2720 0edc CC1C      		rol r12
 2721 0ede DD1C      		rol r13
 2722 0ee0 4A95      		dec r20
 2723 0ee2 01F4      		brne 1b
 2724 0ee4 EA0C      		add r14,r10
 2725 0ee6 FB1C      		adc r15,r11
 2726 0ee8 0C1D      		adc r16,r12
 2727 0eea 1D1D      		adc r17,r13
 2728 0eec 81E0      		ldi r24,lo8(1)
 2729 0eee 90E0      		ldi r25,hi8(1)
 2730 0ef0 A0E0      		ldi r26,hlo8(1)
 2731 0ef2 B0E0      		ldi r27,hhi8(1)
 2732 0ef4 2822      		and r2,r24
 2733 0ef6 3922      		and r3,r25
 2734 0ef8 4A22      		and r4,r26
 2735 0efa 5B22      		and r5,r27
 2736               	.LVL155:
 2737 0efc 35E1      		ldi r19,21
 2738 0efe 220C      	1:	lsl r2
 2739 0f00 331C      		rol r3
 2740 0f02 441C      		rol r4
 2741 0f04 551C      		rol r5
 2742 0f06 3A95      		dec r19
 2743 0f08 01F4      		brne 1b
 2744 0f0a E20C      		add r14,r2
 2745 0f0c F31C      		adc r15,r3
 2746 0f0e 041D      		adc r16,r4
 2747 0f10 151D      		adc r17,r5
 2748               	.LM367:
 2749 0f12 5701      		movw r10,r14
 2750 0f14 6801      		movw r12,r16
 2751               	.LVL156:
 2752 0f16 AA0C      		lsl r10
 2753 0f18 BB1C      		rol r11
 2754 0f1a CC1C      		rol r12
 2755 0f1c DD1C      		rol r13
 2756               	.LM368:
 2757 0f1e 80E0      		ldi r24,lo8(gTextMsg_jmp)
 2758 0f20 90E0      		ldi r25,hi8(gTextMsg_jmp)
 2759 0f22 60E0      		ldi r22,lo8(0)
 2760 0f24 0E94 0000 		call PrintFromPROGMEM
 2761               	.LM369:
 2762 0f28 C801      		movw r24,r16
 2763 0f2a AA27      		clr r26
 2764 0f2c BB27      		clr r27
 2765 0f2e 0E94 0000 		call PrintHexByte
 2766               	.LM370:
 2767 0f32 BB27      		clr r27
 2768 0f34 A12F      		mov r26,r17
 2769 0f36 902F      		mov r25,r16
 2770 0f38 8F2D      		mov r24,r15
 2771 0f3a 0E94 0000 		call PrintHexByte
 2772               	.LM371:
 2773 0f3e 8E2D      		mov r24,r14
 2774 0f40 0E94 0000 		call PrintHexByte
 2775               	.LBB655:
 2776               	.LBB656:
 2777               	.LM372:
 2778 0f44 90E2      		ldi r25,lo8(32)
 2779 0f46 9093 C600 		sts 198,r25
 2780               	.L153:
 2781               	.LM373:
 2782 0f4a 8091 C000 		lds r24,192
 2783 0f4e 86FF      		sbrs r24,6
 2784 0f50 00C0      		rjmp .L153
 2785               	.LM374:
 2786 0f52 8091 C000 		lds r24,192
 2787 0f56 8064      		ori r24,lo8(64)
 2788 0f58 8093 C000 		sts 192,r24
 2789               	.LBE656:
 2790               	.LBE655:
 2791               	.LBB657:
 2792               	.LBB658:
 2793               	.LM375:
 2794 0f5c AEE3      		ldi r26,lo8(62)
 2795 0f5e A093 C600 		sts 198,r26
 2796               	.L154:
 2797               	.LM376:
 2798 0f62 8091 C000 		lds r24,192
 2799 0f66 86FF      		sbrs r24,6
 2800 0f68 00C0      		rjmp .L154
 2801               	.LVL157:
 2802               	.L353:
 2803               	.LM377:
 2804 0f6a 8091 C000 		lds r24,192
 2805 0f6e 8064      		ori r24,lo8(64)
 2806 0f70 8093 C000 		sts 192,r24
 2807               	.LBE658:
 2808               	.LBE657:
 2809               	.LM378:
 2810 0f74 C601      		movw r24,r12
 2811 0f76 AA27      		clr r26
 2812 0f78 BB27      		clr r27
 2813 0f7a 0E94 0000 		call PrintHexByte
 2814               	.LM379:
 2815 0f7e BB27      		clr r27
 2816 0f80 AD2D      		mov r26,r13
 2817 0f82 9C2D      		mov r25,r12
 2818 0f84 8B2D      		mov r24,r11
 2819 0f86 0E94 0000 		call PrintHexByte
 2820               	.LM380:
 2821 0f8a 8A2D      		mov r24,r10
 2822 0f8c 0E94 0000 		call PrintHexByte
 2823               	.LVL158:
 2824               	.L149:
 2825               	.LM381:
 2826 0f90 0E94 0000 		call PrintNewLine
 2827               	.LM382:
 2828 0f94 CC5D      		subi r28,lo8(-292)
 2829 0f96 DE4F      		sbci r29,hi8(-292)
 2830 0f98 E881      		ld r30,Y
 2831 0f9a F981      		ldd r31,Y+1
 2832 0f9c C452      		subi r28,lo8(292)
 2833 0f9e D140      		sbci r29,hi8(292)
 2834 0fa0 F997      		sbiw r30,57
 2835 0fa2 01F4      		brne .+2
 2836 0fa4 00C0      		rjmp .L344
 2837 0fa6 F4E0      		ldi r31,lo8(4)
 2838 0fa8 EF2E      		mov r14,r31
 2839 0faa F12C      		mov r15,__zero_reg__
 2840 0fac 012D      		mov r16,__zero_reg__
 2841 0fae 112D      		mov r17,__zero_reg__
 2842               	.LVL159:
 2843 0fb0 6E0C      		add r6,r14
 2844 0fb2 7F1C      		adc r7,r15
 2845 0fb4 801E      		adc r8,r16
 2846 0fb6 911E      		adc r9,r17
 2847 0fb8 00C0      		rjmp .L155
 2848               	.LVL160:
 2849               	.L361:
 2850               	.LBE626:
 2851               	.LBE625:
 2852               	.LM383:
 2853 0fba 80E0      		ldi r24,lo8(gTextMsg_HELP_MSG_Y)
 2854 0fbc 90E0      		ldi r25,hi8(gTextMsg_HELP_MSG_Y)
 2855 0fbe 62E0      		ldi r22,lo8(2)
 2856 0fc0 0E94 0000 		call PrintFromPROGMEMln
 2857               	.LVL161:
 2858               	.LBB659:
 2859               	.LBB660:
 2860               	.LM384:
 2861 0fc4 80E0      		ldi r24,lo8(gTextMsg_WHAT_PORT)
 2862 0fc6 90E0      		ldi r25,hi8(gTextMsg_WHAT_PORT)
 2863 0fc8 60E0      		ldi r22,lo8(0)
 2864 0fca 0E94 0000 		call PrintFromPROGMEM
 2865               	.L156:
 2866               	.LBB661:
 2867               	.LBB662:
 2868               	.LM385:
 2869 0fce 8091 C000 		lds r24,192
 2870 0fd2 87FF      		sbrs r24,7
 2871 0fd4 00C0      		rjmp .L156
 2872               	.LM386:
 2873 0fd6 1091 C600 		lds r17,198
 2874               	.LVL162:
 2875               	.LBE662:
 2876               	.LBE661:
 2877               	.LM387:
 2878 0fda 1F75      		andi r17,lo8(95)
 2879               	.LBB663:
 2880               	.LBB664:
 2881               	.LM388:
 2882 0fdc 1093 C600 		sts 198,r17
 2883               	.L157:
 2884               	.LM389:
 2885 0fe0 8091 C000 		lds r24,192
 2886 0fe4 86FF      		sbrs r24,6
 2887 0fe6 00C0      		rjmp .L157
 2888               	.LM390:
 2889 0fe8 8091 C000 		lds r24,192
 2890 0fec 8064      		ori r24,lo8(64)
 2891 0fee 8093 C000 		sts 192,r24
 2892               	.LBE664:
 2893               	.LBE663:
 2894               	.LM391:
 2895 0ff2 0E94 0000 		call PrintNewLine
 2896               	.LM392:
 2897 0ff6 812F      		mov r24,r17
 2898 0ff8 8154      		subi r24,lo8(-(-65))
 2899 0ffa 8A31      		cpi r24,lo8(26)
 2900 0ffc 00F0      		brlo .+2
 2901 0ffe 00C0      		rjmp .L158
 2902               	.LM393:
 2903 1000 1634      		cpi r17,lo8(70)
 2904 1002 01F4      		brne .+2
 2905 1004 00C0      		rjmp .L165
 2906 1006 1734      		cpi r17,lo8(71)
 2907 1008 00F4      		brsh .L171
 2908 100a 1334      		cpi r17,lo8(67)
 2909 100c 01F4      		brne .+2
 2910 100e 00C0      		rjmp .L162
 2911 1010 1434      		cpi r17,lo8(68)
 2912 1012 00F4      		brsh .L172
 2913 1014 1134      		cpi r17,lo8(65)
 2914 1016 01F0      		breq .L160
 2915 1018 1234      		cpi r17,lo8(66)
 2916 101a 01F0      		breq .+2
 2917 101c 00C0      		rjmp .L159
 2918 101e 00C0      		rjmp .L362
 2919               	.L172:
 2920 1020 1434      		cpi r17,lo8(68)
 2921 1022 01F4      		brne .+2
 2922 1024 00C0      		rjmp .L163
 2923 1026 1534      		cpi r17,lo8(69)
 2924 1028 01F0      		breq .+2
 2925 102a 00C0      		rjmp .L159
 2926 102c 00C0      		rjmp .L363
 2927               	.L171:
 2928 102e 1A34      		cpi r17,lo8(74)
 2929 1030 01F4      		brne .+2
 2930 1032 00C0      		rjmp .L168
 2931 1034 1B34      		cpi r17,lo8(75)
 2932 1036 00F4      		brsh .L173
 2933 1038 1734      		cpi r17,lo8(71)
 2934 103a 01F4      		brne .+2
 2935 103c 00C0      		rjmp .L166
 2936 103e 1834      		cpi r17,lo8(72)
 2937 1040 01F0      		breq .+2
 2938 1042 00C0      		rjmp .L159
 2939 1044 00C0      		rjmp .L364
 2940               	.L173:
 2941 1046 1B34      		cpi r17,lo8(75)
 2942 1048 01F4      		brne .+2
 2943 104a 00C0      		rjmp .L169
 2944 104c 1C34      		cpi r17,lo8(76)
 2945 104e 01F0      		breq .+2
 2946 1050 00C0      		rjmp .L159
 2947 1052 00C0      		rjmp .L365
 2948               	.L160:
 2949               	.LM394:
 2950 1054 8FEF      		ldi r24,lo8(-1)
 2951 1056 81B9      		out 33-32,r24
 2952 1058 00C0      		rjmp .L174
 2953               	.LVL163:
 2954               	.L176:
 2955               	.LM395:
 2956 105a 82B1      		in r24,34-32
 2957 105c 8095      		com r24
 2958 105e 82B9      		out 34-32,r24
 2959 1060 80E0      		ldi r24,lo8(0)
 2960 1062 90E0      		ldi r25,hi8(0)
 2961               	.LVL164:
 2962               	.L175:
 2963               	.LBB665:
 2964               	.LBB666:
 2965               	.LBB667:
 2966               	.LBB668:
 2967               	.LBB669:
 2968               	.LBB670:
 2969               	.LM396:
 2970 1064 E0ED      		ldi r30,lo8(2000)
 2971 1066 F7E0      		ldi r31,hi8(2000)
 2972               	/* #APP */
 2973               	 ;  105 "c:/winavr-20100110/lib/gcc/../../avr/include/util/delay_basic.h" 1
 2974 1068 3197      		1: sbiw r30,1
 2975 106a 01F4      		brne 1b
 2976               	 ;  0 "" 2
 2977               	/* #NOAPP */
 2978               	.LBE670:
 2979               	.LBE669:
 2980               	.LBE668:
 2981               	.LBE667:
 2982               	.LM397:
 2983 106c 0196      		adiw r24,1
 2984 106e 883C      		cpi r24,200
 2985 1070 9105      		cpc r25,__zero_reg__
 2986 1072 01F4      		brne .L175
 2987               	.L174:
 2988               	.LBE666:
 2989               	.LBE665:
 2990               	.LBB671:
 2991               	.LBB672:
 2992               	.LM398:
 2993 1074 8091 C000 		lds r24,192
 2994               	.LVL165:
 2995               	.LBE672:
 2996               	.LBE671:
 2997               	.LM399:
 2998 1078 87FF      		sbrs r24,7
 2999 107a 00C0      		rjmp .L176
 3000               	.LM400:
 3001 107c 12B8      		out 34-32,__zero_reg__
 3002 107e 00C0      		rjmp .L284
 3003               	.LVL166:
 3004               	.L362:
 3005               	.LM401:
 3006 1080 8FEF      		ldi r24,lo8(-1)
 3007 1082 84B9      		out 36-32,r24
 3008 1084 00C0      		rjmp .L178
 3009               	.LVL167:
 3010               	.L180:
 3011               	.LM402:
 3012 1086 85B1      		in r24,37-32
 3013 1088 8095      		com r24
 3014 108a 85B9      		out 37-32,r24
 3015 108c 80E0      		ldi r24,lo8(0)
 3016 108e 90E0      		ldi r25,hi8(0)
 3017               	.LVL168:
 3018               	.L179:
 3019               	.LBB673:
 3020               	.LBB674:
 3021               	.LBB675:
 3022               	.LBB676:
 3023               	.LBB677:
 3024               	.LBB678:
 3025               	.LM403:
 3026 1090 E0ED      		ldi r30,lo8(2000)
 3027 1092 F7E0      		ldi r31,hi8(2000)
 3028               	/* #APP */
 3029               	 ;  105 "c:/winavr-20100110/lib/gcc/../../avr/include/util/delay_basic.h" 1
 3030 1094 3197      		1: sbiw r30,1
 3031 1096 01F4      		brne 1b
 3032               	 ;  0 "" 2
 3033               	/* #NOAPP */
 3034               	.LBE678:
 3035               	.LBE677:
 3036               	.LBE676:
 3037               	.LBE675:
 3038               	.LM404:
 3039 1098 0196      		adiw r24,1
 3040 109a 883C      		cpi r24,200
 3041 109c 9105      		cpc r25,__zero_reg__
 3042 109e 01F4      		brne .L179
 3043               	.L178:
 3044               	.LBE674:
 3045               	.LBE673:
 3046               	.LBB679:
 3047               	.LBB680:
 3048               	.LM405:
 3049 10a0 8091 C000 		lds r24,192
 3050               	.LVL169:
 3051               	.LBE680:
 3052               	.LBE679:
 3053               	.LM406:
 3054 10a4 87FF      		sbrs r24,7
 3055 10a6 00C0      		rjmp .L180
 3056               	.LM407:
 3057 10a8 15B8      		out 37-32,__zero_reg__
 3058 10aa 00C0      		rjmp .L284
 3059               	.LVL170:
 3060               	.L162:
 3061               	.LM408:
 3062 10ac 8FEF      		ldi r24,lo8(-1)
 3063 10ae 87B9      		out 39-32,r24
 3064 10b0 00C0      		rjmp .L181
 3065               	.LVL171:
 3066               	.L183:
 3067               	.LM409:
 3068 10b2 88B1      		in r24,40-32
 3069 10b4 8095      		com r24
 3070 10b6 88B9      		out 40-32,r24
 3071 10b8 80E0      		ldi r24,lo8(0)
 3072 10ba 90E0      		ldi r25,hi8(0)
 3073               	.LVL172:
 3074               	.L182:
 3075               	.LBB681:
 3076               	.LBB682:
 3077               	.LBB683:
 3078               	.LBB684:
 3079               	.LBB685:
 3080               	.LBB686:
 3081               	.LM410:
 3082 10bc E0ED      		ldi r30,lo8(2000)
 3083 10be F7E0      		ldi r31,hi8(2000)
 3084               	/* #APP */
 3085               	 ;  105 "c:/winavr-20100110/lib/gcc/../../avr/include/util/delay_basic.h" 1
 3086 10c0 3197      		1: sbiw r30,1
 3087 10c2 01F4      		brne 1b
 3088               	 ;  0 "" 2
 3089               	/* #NOAPP */
 3090               	.LBE686:
 3091               	.LBE685:
 3092               	.LBE684:
 3093               	.LBE683:
 3094               	.LM411:
 3095 10c4 0196      		adiw r24,1
 3096 10c6 883C      		cpi r24,200
 3097 10c8 9105      		cpc r25,__zero_reg__
 3098 10ca 01F4      		brne .L182
 3099               	.L181:
 3100               	.LBE682:
 3101               	.LBE681:
 3102               	.LBB687:
 3103               	.LBB688:
 3104               	.LM412:
 3105 10cc 8091 C000 		lds r24,192
 3106               	.LVL173:
 3107               	.LBE688:
 3108               	.LBE687:
 3109               	.LM413:
 3110 10d0 87FF      		sbrs r24,7
 3111 10d2 00C0      		rjmp .L183
 3112               	.LM414:
 3113 10d4 18B8      		out 40-32,__zero_reg__
 3114 10d6 00C0      		rjmp .L284
 3115               	.LVL174:
 3116               	.L163:
 3117               	.LM415:
 3118 10d8 8FEF      		ldi r24,lo8(-1)
 3119 10da 8AB9      		out 42-32,r24
 3120 10dc 00C0      		rjmp .L184
 3121               	.LVL175:
 3122               	.L186:
 3123               	.LM416:
 3124 10de 8BB1      		in r24,43-32
 3125 10e0 8095      		com r24
 3126 10e2 8BB9      		out 43-32,r24
 3127 10e4 80E0      		ldi r24,lo8(0)
 3128 10e6 90E0      		ldi r25,hi8(0)
 3129               	.LVL176:
 3130               	.L185:
 3131               	.LBB689:
 3132               	.LBB690:
 3133               	.LBB691:
 3134               	.LBB692:
 3135               	.LBB693:
 3136               	.LBB694:
 3137               	.LM417:
 3138 10e8 E0ED      		ldi r30,lo8(2000)
 3139 10ea F7E0      		ldi r31,hi8(2000)
 3140               	/* #APP */
 3141               	 ;  105 "c:/winavr-20100110/lib/gcc/../../avr/include/util/delay_basic.h" 1
 3142 10ec 3197      		1: sbiw r30,1
 3143 10ee 01F4      		brne 1b
 3144               	 ;  0 "" 2
 3145               	/* #NOAPP */
 3146               	.LBE694:
 3147               	.LBE693:
 3148               	.LBE692:
 3149               	.LBE691:
 3150               	.LM418:
 3151 10f0 0196      		adiw r24,1
 3152 10f2 883C      		cpi r24,200
 3153 10f4 9105      		cpc r25,__zero_reg__
 3154 10f6 01F4      		brne .L185
 3155               	.L184:
 3156               	.LBE690:
 3157               	.LBE689:
 3158               	.LBB695:
 3159               	.LBB696:
 3160               	.LM419:
 3161 10f8 8091 C000 		lds r24,192
 3162               	.LVL177:
 3163               	.LBE696:
 3164               	.LBE695:
 3165               	.LM420:
 3166 10fc 87FF      		sbrs r24,7
 3167 10fe 00C0      		rjmp .L186
 3168               	.LM421:
 3169 1100 1BB8      		out 43-32,__zero_reg__
 3170 1102 00C0      		rjmp .L284
 3171               	.LVL178:
 3172               	.L363:
 3173               	.LM422:
 3174 1104 8FEF      		ldi r24,lo8(-1)
 3175 1106 8DB9      		out 45-32,r24
 3176 1108 00C0      		rjmp .L187
 3177               	.LVL179:
 3178               	.L189:
 3179               	.LM423:
 3180 110a 8EB1      		in r24,46-32
 3181 110c 8095      		com r24
 3182 110e 8EB9      		out 46-32,r24
 3183 1110 80E0      		ldi r24,lo8(0)
 3184 1112 90E0      		ldi r25,hi8(0)
 3185               	.LVL180:
 3186               	.L188:
 3187               	.LBB697:
 3188               	.LBB698:
 3189               	.LBB699:
 3190               	.LBB700:
 3191               	.LBB701:
 3192               	.LBB702:
 3193               	.LM424:
 3194 1114 E0ED      		ldi r30,lo8(2000)
 3195 1116 F7E0      		ldi r31,hi8(2000)
 3196               	/* #APP */
 3197               	 ;  105 "c:/winavr-20100110/lib/gcc/../../avr/include/util/delay_basic.h" 1
 3198 1118 3197      		1: sbiw r30,1
 3199 111a 01F4      		brne 1b
 3200               	 ;  0 "" 2
 3201               	/* #NOAPP */
 3202               	.LBE702:
 3203               	.LBE701:
 3204               	.LBE700:
 3205               	.LBE699:
 3206               	.LM425:
 3207 111c 0196      		adiw r24,1
 3208 111e 883C      		cpi r24,200
 3209 1120 9105      		cpc r25,__zero_reg__
 3210 1122 01F4      		brne .L188
 3211               	.L187:
 3212               	.LBE698:
 3213               	.LBE697:
 3214               	.LBB703:
 3215               	.LBB704:
 3216               	.LM426:
 3217 1124 8091 C000 		lds r24,192
 3218               	.LVL181:
 3219               	.LBE704:
 3220               	.LBE703:
 3221               	.LM427:
 3222 1128 87FF      		sbrs r24,7
 3223 112a 00C0      		rjmp .L189
 3224               	.LM428:
 3225 112c 1EB8      		out 46-32,__zero_reg__
 3226 112e 00C0      		rjmp .L284
 3227               	.LVL182:
 3228               	.L165:
 3229               	.LM429:
 3230 1130 8FEF      		ldi r24,lo8(-1)
 3231 1132 80BB      		out 48-32,r24
 3232 1134 00C0      		rjmp .L190
 3233               	.LVL183:
 3234               	.L192:
 3235               	.LM430:
 3236 1136 81B3      		in r24,49-32
 3237 1138 8095      		com r24
 3238 113a 81BB      		out 49-32,r24
 3239 113c 80E0      		ldi r24,lo8(0)
 3240 113e 90E0      		ldi r25,hi8(0)
 3241               	.LVL184:
 3242               	.L191:
 3243               	.LBB705:
 3244               	.LBB706:
 3245               	.LBB707:
 3246               	.LBB708:
 3247               	.LBB709:
 3248               	.LBB710:
 3249               	.LM431:
 3250 1140 E0ED      		ldi r30,lo8(2000)
 3251 1142 F7E0      		ldi r31,hi8(2000)
 3252               	/* #APP */
 3253               	 ;  105 "c:/winavr-20100110/lib/gcc/../../avr/include/util/delay_basic.h" 1
 3254 1144 3197      		1: sbiw r30,1
 3255 1146 01F4      		brne 1b
 3256               	 ;  0 "" 2
 3257               	/* #NOAPP */
 3258               	.LBE710:
 3259               	.LBE709:
 3260               	.LBE708:
 3261               	.LBE707:
 3262               	.LM432:
 3263 1148 0196      		adiw r24,1
 3264 114a 883C      		cpi r24,200
 3265 114c 9105      		cpc r25,__zero_reg__
 3266 114e 01F4      		brne .L191
 3267               	.L190:
 3268               	.LBE706:
 3269               	.LBE705:
 3270               	.LBB711:
 3271               	.LBB712:
 3272               	.LM433:
 3273 1150 8091 C000 		lds r24,192
 3274               	.LVL185:
 3275               	.LBE712:
 3276               	.LBE711:
 3277               	.LM434:
 3278 1154 87FF      		sbrs r24,7
 3279 1156 00C0      		rjmp .L192
 3280               	.LM435:
 3281 1158 11BA      		out 49-32,__zero_reg__
 3282 115a 00C0      		rjmp .L284
 3283               	.LVL186:
 3284               	.L166:
 3285               	.LM436:
 3286 115c 8FEF      		ldi r24,lo8(-1)
 3287 115e 83BB      		out 51-32,r24
 3288 1160 00C0      		rjmp .L193
 3289               	.LVL187:
 3290               	.L195:
 3291               	.LM437:
 3292 1162 84B3      		in r24,52-32
 3293 1164 8095      		com r24
 3294 1166 84BB      		out 52-32,r24
 3295 1168 80E0      		ldi r24,lo8(0)
 3296 116a 90E0      		ldi r25,hi8(0)
 3297               	.LVL188:
 3298               	.L194:
 3299               	.LBB713:
 3300               	.LBB714:
 3301               	.LBB715:
 3302               	.LBB716:
 3303               	.LBB717:
 3304               	.LBB718:
 3305               	.LM438:
 3306 116c E0ED      		ldi r30,lo8(2000)
 3307 116e F7E0      		ldi r31,hi8(2000)
 3308               	/* #APP */
 3309               	 ;  105 "c:/winavr-20100110/lib/gcc/../../avr/include/util/delay_basic.h" 1
 3310 1170 3197      		1: sbiw r30,1
 3311 1172 01F4      		brne 1b
 3312               	 ;  0 "" 2
 3313               	/* #NOAPP */
 3314               	.LBE718:
 3315               	.LBE717:
 3316               	.LBE716:
 3317               	.LBE715:
 3318               	.LM439:
 3319 1174 0196      		adiw r24,1
 3320 1176 883C      		cpi r24,200
 3321 1178 9105      		cpc r25,__zero_reg__
 3322 117a 01F4      		brne .L194
 3323               	.L193:
 3324               	.LBE714:
 3325               	.LBE713:
 3326               	.LBB719:
 3327               	.LBB720:
 3328               	.LM440:
 3329 117c 8091 C000 		lds r24,192
 3330               	.LVL189:
 3331               	.LBE720:
 3332               	.LBE719:
 3333               	.LM441:
 3334 1180 87FF      		sbrs r24,7
 3335 1182 00C0      		rjmp .L195
 3336               	.LM442:
 3337 1184 14BA      		out 52-32,__zero_reg__
 3338 1186 00C0      		rjmp .L284
 3339               	.LVL190:
 3340               	.L364:
 3341               	.LM443:
 3342 1188 8FEF      		ldi r24,lo8(-1)
 3343 118a 8093 0101 		sts 257,r24
 3344 118e 00C0      		rjmp .L196
 3345               	.LVL191:
 3346               	.L198:
 3347               	.LM444:
 3348 1190 8091 0201 		lds r24,258
 3349 1194 8095      		com r24
 3350 1196 8093 0201 		sts 258,r24
 3351 119a 80E0      		ldi r24,lo8(0)
 3352 119c 90E0      		ldi r25,hi8(0)
 3353               	.LVL192:
 3354               	.L197:
 3355               	.LBB721:
 3356               	.LBB722:
 3357               	.LBB723:
 3358               	.LBB724:
 3359               	.LBB725:
 3360               	.LBB726:
 3361               	.LM445:
 3362 119e E0ED      		ldi r30,lo8(2000)
 3363 11a0 F7E0      		ldi r31,hi8(2000)
 3364               	/* #APP */
 3365               	 ;  105 "c:/winavr-20100110/lib/gcc/../../avr/include/util/delay_basic.h" 1
 3366 11a2 3197      		1: sbiw r30,1
 3367 11a4 01F4      		brne 1b
 3368               	 ;  0 "" 2
 3369               	/* #NOAPP */
 3370               	.LBE726:
 3371               	.LBE725:
 3372               	.LBE724:
 3373               	.LBE723:
 3374               	.LM446:
 3375 11a6 0196      		adiw r24,1
 3376 11a8 883C      		cpi r24,200
 3377 11aa 9105      		cpc r25,__zero_reg__
 3378 11ac 01F4      		brne .L197
 3379               	.L196:
 3380               	.LBE722:
 3381               	.LBE721:
 3382               	.LBB727:
 3383               	.LBB728:
 3384               	.LM447:
 3385 11ae 8091 C000 		lds r24,192
 3386               	.LVL193:
 3387               	.LBE728:
 3388               	.LBE727:
 3389               	.LM448:
 3390 11b2 87FF      		sbrs r24,7
 3391 11b4 00C0      		rjmp .L198
 3392               	.LM449:
 3393 11b6 1092 0201 		sts 258,__zero_reg__
 3394 11ba 00C0      		rjmp .L284
 3395               	.LVL194:
 3396               	.L168:
 3397               	.LM450:
 3398 11bc 8FEF      		ldi r24,lo8(-1)
 3399 11be 8093 0401 		sts 260,r24
 3400 11c2 00C0      		rjmp .L199
 3401               	.LVL195:
 3402               	.L201:
 3403               	.LM451:
 3404 11c4 8091 0501 		lds r24,261
 3405 11c8 8095      		com r24
 3406 11ca 8093 0501 		sts 261,r24
 3407 11ce 80E0      		ldi r24,lo8(0)
 3408 11d0 90E0      		ldi r25,hi8(0)
 3409               	.LVL196:
 3410               	.L200:
 3411               	.LBB729:
 3412               	.LBB730:
 3413               	.LBB731:
 3414               	.LBB732:
 3415               	.LBB733:
 3416               	.LBB734:
 3417               	.LM452:
 3418 11d2 E0ED      		ldi r30,lo8(2000)
 3419 11d4 F7E0      		ldi r31,hi8(2000)
 3420               	/* #APP */
 3421               	 ;  105 "c:/winavr-20100110/lib/gcc/../../avr/include/util/delay_basic.h" 1
 3422 11d6 3197      		1: sbiw r30,1
 3423 11d8 01F4      		brne 1b
 3424               	 ;  0 "" 2
 3425               	/* #NOAPP */
 3426               	.LBE734:
 3427               	.LBE733:
 3428               	.LBE732:
 3429               	.LBE731:
 3430               	.LM453:
 3431 11da 0196      		adiw r24,1
 3432 11dc 883C      		cpi r24,200
 3433 11de 9105      		cpc r25,__zero_reg__
 3434 11e0 01F4      		brne .L200
 3435               	.L199:
 3436               	.LBE730:
 3437               	.LBE729:
 3438               	.LBB735:
 3439               	.LBB736:
 3440               	.LM454:
 3441 11e2 8091 C000 		lds r24,192
 3442               	.LVL197:
 3443               	.LBE736:
 3444               	.LBE735:
 3445               	.LM455:
 3446 11e6 87FF      		sbrs r24,7
 3447 11e8 00C0      		rjmp .L201
 3448               	.LM456:
 3449 11ea 1092 0501 		sts 261,__zero_reg__
 3450 11ee 00C0      		rjmp .L284
 3451               	.LVL198:
 3452               	.L169:
 3453               	.LM457:
 3454 11f0 8FEF      		ldi r24,lo8(-1)
 3455 11f2 8093 0701 		sts 263,r24
 3456 11f6 00C0      		rjmp .L202
 3457               	.LVL199:
 3458               	.L204:
 3459               	.LM458:
 3460 11f8 8091 0801 		lds r24,264
 3461 11fc 8095      		com r24
 3462 11fe 8093 0801 		sts 264,r24
 3463 1202 80E0      		ldi r24,lo8(0)
 3464 1204 90E0      		ldi r25,hi8(0)
 3465               	.LVL200:
 3466               	.L203:
 3467               	.LBB737:
 3468               	.LBB738:
 3469               	.LBB739:
 3470               	.LBB740:
 3471               	.LBB741:
 3472               	.LBB742:
 3473               	.LM459:
 3474 1206 E0ED      		ldi r30,lo8(2000)
 3475 1208 F7E0      		ldi r31,hi8(2000)
 3476               	/* #APP */
 3477               	 ;  105 "c:/winavr-20100110/lib/gcc/../../avr/include/util/delay_basic.h" 1
 3478 120a 3197      		1: sbiw r30,1
 3479 120c 01F4      		brne 1b
 3480               	 ;  0 "" 2
 3481               	/* #NOAPP */
 3482               	.LBE742:
 3483               	.LBE741:
 3484               	.LBE740:
 3485               	.LBE739:
 3486               	.LM460:
 3487 120e 0196      		adiw r24,1
 3488 1210 883C      		cpi r24,200
 3489 1212 9105      		cpc r25,__zero_reg__
 3490 1214 01F4      		brne .L203
 3491               	.L202:
 3492               	.LBE738:
 3493               	.LBE737:
 3494               	.LBB743:
 3495               	.LBB744:
 3496               	.LM461:
 3497 1216 8091 C000 		lds r24,192
 3498               	.LVL201:
 3499               	.LBE744:
 3500               	.LBE743:
 3501               	.LM462:
 3502 121a 87FF      		sbrs r24,7
 3503 121c 00C0      		rjmp .L204
 3504               	.LM463:
 3505 121e 1092 0801 		sts 264,__zero_reg__
 3506 1222 00C0      		rjmp .L284
 3507               	.LVL202:
 3508               	.L365:
 3509               	.LM464:
 3510 1224 8FEF      		ldi r24,lo8(-1)
 3511 1226 8093 0A01 		sts 266,r24
 3512 122a 00C0      		rjmp .L205
 3513               	.LVL203:
 3514               	.L207:
 3515               	.LM465:
 3516 122c 8091 0B01 		lds r24,267
 3517 1230 8095      		com r24
 3518 1232 8093 0B01 		sts 267,r24
 3519 1236 80E0      		ldi r24,lo8(0)
 3520 1238 90E0      		ldi r25,hi8(0)
 3521               	.LVL204:
 3522               	.L206:
 3523               	.LBB745:
 3524               	.LBB746:
 3525               	.LBB747:
 3526               	.LBB748:
 3527               	.LBB749:
 3528               	.LBB750:
 3529               	.LM466:
 3530 123a E0ED      		ldi r30,lo8(2000)
 3531 123c F7E0      		ldi r31,hi8(2000)
 3532               	/* #APP */
 3533               	 ;  105 "c:/winavr-20100110/lib/gcc/../../avr/include/util/delay_basic.h" 1
 3534 123e 3197      		1: sbiw r30,1
 3535 1240 01F4      		brne 1b
 3536               	 ;  0 "" 2
 3537               	/* #NOAPP */
 3538               	.LBE750:
 3539               	.LBE749:
 3540               	.LBE748:
 3541               	.LBE747:
 3542               	.LM467:
 3543 1242 0196      		adiw r24,1
 3544 1244 883C      		cpi r24,200
 3545 1246 9105      		cpc r25,__zero_reg__
 3546 1248 01F4      		brne .L206
 3547               	.L205:
 3548               	.LBE746:
 3549               	.LBE745:
 3550               	.LBB751:
 3551               	.LBB752:
 3552               	.LM468:
 3553 124a 8091 C000 		lds r24,192
 3554               	.LVL205:
 3555               	.LBE752:
 3556               	.LBE751:
 3557               	.LM469:
 3558 124e 87FF      		sbrs r24,7
 3559 1250 00C0      		rjmp .L207
 3560               	.LM470:
 3561 1252 1092 0B01 		sts 267,__zero_reg__
 3562 1256 00C0      		rjmp .L284
 3563               	.LVL206:
 3564               	.L159:
 3565               	.LM471:
 3566 1258 80E0      		ldi r24,lo8(gTextMsg_PortNotSupported)
 3567 125a 90E0      		ldi r25,hi8(gTextMsg_PortNotSupported)
 3568 125c 00C0      		rjmp .L350
 3569               	.LVL207:
 3570               	.L284:
 3571               	.LBB753:
 3572               	.LBB754:
 3573               	.LM472:
 3574 125e 8091 C000 		lds r24,192
 3575 1262 87FF      		sbrs r24,7
 3576 1264 00C0      		rjmp .L284
 3577               	.LVL208:
 3578               	.L352:
 3579               	.LM473:
 3580 1266 8091 C600 		lds r24,198
 3581 126a 00C0      		rjmp .L344
 3582               	.LVL209:
 3583               	.L158:
 3584               	.LBE754:
 3585               	.LBE753:
 3586               	.LM474:
 3587 126c 80E0      		ldi r24,lo8(gTextMsg_MustBeLetter)
 3588 126e 90E0      		ldi r25,hi8(gTextMsg_MustBeLetter)
 3589 1270 00C0      		rjmp .L350
 3590               	.LVL210:
 3591               	.L102:
 3592               	.LBE660:
 3593               	.LBE659:
 3594               	.LM475:
 3595 1272 80E0      		ldi r24,lo8(gTextMsg_HUH)
 3596 1274 90E0      		ldi r25,hi8(gTextMsg_HUH)
 3597 1276 00C0      		rjmp .L350
 3598               	.LVL211:
 3599               	.L91:
 3600 1278 8824      		clr r8
 3601 127a 9924      		clr r9
 3602               	.L92:
 3603               	.LBE579:
 3604               	.LBE578:
 3605               	.LM476:
 3606 127c 9330      		cpi r25,lo8(3)
 3607 127e 01F0      		breq .L212
 3608 1280 9430      		cpi r25,lo8(4)
 3609 1282 00F4      		brsh .L216
 3610 1284 9130      		cpi r25,lo8(1)
 3611 1286 01F0      		breq .L210
 3612 1288 9230      		cpi r25,lo8(2)
 3613 128a 00F4      		brsh .L211
 3614 128c 00C0      		rjmp .L366
 3615               	.L216:
 3616 128e 9530      		cpi r25,lo8(5)
 3617 1290 01F0      		breq .L214
 3618 1292 9530      		cpi r25,lo8(5)
 3619 1294 00F0      		brlo .L213
 3620 1296 9630      		cpi r25,lo8(6)
 3621 1298 01F0      		breq .+2
 3622 129a 00C0      		rjmp .L347
 3623 129c 00C0      		rjmp .L367
 3624               	.L366:
 3625               	.LM477:
 3626 129e 2B31      		cpi r18,lo8(27)
 3627 12a0 01F0      		breq .+2
 3628 12a2 00C0      		rjmp .L345
 3629 12a4 91E0      		ldi r25,lo8(1)
 3630 12a6 6BE1      		ldi r22,lo8(27)
 3631 12a8 00C0      		rjmp .L345
 3632               	.L210:
 3633               	.LM478:
 3634 12aa 6227      		eor r22,r18
 3635 12ac C15D      		subi r28,lo8(-303)
 3636 12ae DE4F      		sbci r29,hi8(-303)
 3637 12b0 2883      		st Y,r18
 3638 12b2 CF52      		subi r28,lo8(303)
 3639 12b4 D140      		sbci r29,hi8(303)
 3640               	.LVL212:
 3641 12b6 92E0      		ldi r25,lo8(2)
 3642 12b8 00C0      		rjmp .L345
 3643               	.L211:
 3644               	.LM479:
 3645 12ba B22F      		mov r27,r18
 3646               	.LVL213:
 3647 12bc A0E0      		ldi r26,lo8(0)
 3648               	.LVL214:
 3649               	.LM480:
 3650 12be 6227      		eor r22,r18
 3651 12c0 93E0      		ldi r25,lo8(3)
 3652 12c2 00C0      		rjmp .L345
 3653               	.LVL215:
 3654               	.L212:
 3655               	.LM481:
 3656 12c4 822F      		mov r24,r18
 3657 12c6 90E0      		ldi r25,lo8(0)
 3658               	.LVL216:
 3659 12c8 A82B      		or r26,r24
 3660 12ca B92B      		or r27,r25
 3661               	.LM482:
 3662 12cc 6227      		eor r22,r18
 3663 12ce 94E0      		ldi r25,lo8(4)
 3664               	.LVL217:
 3665 12d0 00C0      		rjmp .L345
 3666               	.LVL218:
 3667               	.L213:
 3668               	.LM483:
 3669 12d2 2E30      		cpi r18,lo8(14)
 3670 12d4 01F0      		breq .+2
 3671 12d6 00C0      		rjmp .L218
 3672               	.LM484:
 3673 12d8 6227      		eor r22,r18
 3674 12da 95E0      		ldi r25,lo8(5)
 3675 12dc C05D      		subi r28,lo8(-304)
 3676 12de DE4F      		sbci r29,hi8(-304)
 3677 12e0 1982      		std Y+1,__zero_reg__
 3678 12e2 1882      		st Y,__zero_reg__
 3679 12e4 C053      		subi r28,lo8(304)
 3680 12e6 D140      		sbci r29,hi8(304)
 3681               	.LVL219:
 3682 12e8 00C0      		rjmp .L345
 3683               	.L214:
 3684               	.LM485:
 3685 12ea E1E0      		ldi r30,lo8(1)
 3686 12ec F0E0      		ldi r31,hi8(1)
 3687               	.LVL220:
 3688 12ee EC0F      		add r30,r28
 3689 12f0 FD1F      		adc r31,r29
 3690 12f2 C05D      		subi r28,lo8(-304)
 3691 12f4 DE4F      		sbci r29,hi8(-304)
 3692 12f6 0881      		ld r16,Y
 3693 12f8 1981      		ldd r17,Y+1
 3694 12fa C053      		subi r28,lo8(304)
 3695 12fc D140      		sbci r29,hi8(304)
 3696 12fe E00F      		add r30,r16
 3697 1300 F11F      		adc r31,r17
 3698 1302 2083      		st Z,r18
 3699 1304 0F5F      		subi r16,lo8(-(1))
 3700 1306 1F4F      		sbci r17,hi8(-(1))
 3701 1308 C05D      		subi r28,lo8(-304)
 3702 130a DE4F      		sbci r29,hi8(-304)
 3703 130c 1983      		std Y+1,r17
 3704 130e 0883      		st Y,r16
 3705 1310 C053      		subi r28,lo8(304)
 3706 1312 D140      		sbci r29,hi8(304)
 3707               	.LVL221:
 3708               	.LM486:
 3709 1314 6227      		eor r22,r18
 3710               	.LM487:
 3711 1316 0A17      		cp r16,r26
 3712 1318 1B07      		cpc r17,r27
 3713 131a 01F0      		breq .+2
 3714 131c 00C0      		rjmp .L345
 3715 131e D801      		movw r26,r16
 3716 1320 96E0      		ldi r25,lo8(6)
 3717 1322 00C0      		rjmp .L345
 3718               	.LVL222:
 3719               	.L367:
 3720               	.LM488:
 3721 1324 2617      		cp r18,r22
 3722 1326 01F0      		breq .+2
 3723 1328 00C0      		rjmp .L218
 3724 132a 00C0      		rjmp .L219
 3725               	.L347:
 3726               	.LM489:
 3727 132c 9730      		cpi r25,lo8(7)
 3728 132e 01F0      		breq .+2
 3729 1330 00C0      		rjmp .L345
 3730               	.L219:
 3731 1332 7724      		clr r7
 3732               	.LVL223:
 3733               	.L137:
 3734               	.LM490:
 3735 1334 9981      		ldd r25,Y+1
 3736               	.LVL224:
 3737 1336 9331      		cpi r25,lo8(19)
 3738 1338 01F4      		brne .+2
 3739 133a 00C0      		rjmp .L227
 3740 133c 9431      		cpi r25,lo8(20)
 3741 133e 00F4      		brsh .L234
 3742 1340 9630      		cpi r25,lo8(6)
 3743 1342 01F4      		brne .+2
 3744 1344 00C0      		rjmp .L224
 3745 1346 9730      		cpi r25,lo8(7)
 3746 1348 00F4      		brsh .L235
 3747 134a 9230      		cpi r25,lo8(2)
 3748 134c 01F4      		brne .+2
 3749 134e 00C0      		rjmp .L357
 3750 1350 9330      		cpi r25,lo8(3)
 3751 1352 01F4      		brne .+2
 3752 1354 00C0      		rjmp .L223
 3753 1356 9130      		cpi r25,lo8(1)
 3754 1358 01F0      		breq .+2
 3755 135a 00C0      		rjmp .L220
 3756 135c 00C0      		rjmp .L368
 3757               	.L235:
 3758 135e 9131      		cpi r25,lo8(17)
 3759 1360 01F4      		brne .+2
 3760 1362 00C0      		rjmp .L225
 3761 1364 9231      		cpi r25,lo8(18)
 3762 1366 00F0      		brlo .+2
 3763 1368 00C0      		rjmp .L226
 3764 136a 9031      		cpi r25,lo8(16)
 3765 136c 01F0      		breq .+2
 3766 136e 00C0      		rjmp .L220
 3767 1370 00C0      		rjmp .L357
 3768               	.L234:
 3769 1372 9831      		cpi r25,lo8(24)
 3770 1374 01F4      		brne .+2
 3771 1376 00C0      		rjmp .L229
 3772 1378 9931      		cpi r25,lo8(25)
 3773 137a 00F4      		brsh .L236
 3774 137c 9531      		cpi r25,lo8(21)
 3775 137e 01F4      		brne .+2
 3776 1380 00C0      		rjmp .L227
 3777 1382 9531      		cpi r25,lo8(21)
 3778 1384 00F4      		brsh .+2
 3779 1386 00C0      		rjmp .L228
 3780 1388 9631      		cpi r25,lo8(22)
 3781 138a 01F0      		breq .+2
 3782 138c 00C0      		rjmp .L220
 3783 138e 00C0      		rjmp .L228
 3784               	.L236:
 3785 1390 9A31      		cpi r25,lo8(26)
 3786 1392 01F4      		brne .+2
 3787 1394 00C0      		rjmp .L231
 3788 1396 9A31      		cpi r25,lo8(26)
 3789 1398 00F4      		brsh .+2
 3790 139a 00C0      		rjmp .L230
 3791 139c 9B31      		cpi r25,lo8(27)
 3792 139e 01F4      		brne .+2
 3793 13a0 00C0      		rjmp .L232
 3794 13a2 9D31      		cpi r25,lo8(29)
 3795 13a4 01F0      		breq .+2
 3796 13a6 00C0      		rjmp .L220
 3797               	.LBB755:
 3798               	.LM491:
 3799 13a8 9D81      		ldd r25,Y+5
 3800 13aa 9033      		cpi r25,lo8(48)
 3801 13ac 01F4      		brne .L237
 3802               	.LBB756:
 3803               	.LM492:
 3804 13ae 8F81      		ldd r24,Y+7
 3805               	.LVL225:
 3806               	.LM493:
 3807 13b0 8823      		tst r24
 3808 13b2 01F4      		brne .L238
 3809 13b4 9EE1      		ldi r25,lo8(30)
 3810               	.LVL226:
 3811 13b6 00C0      		rjmp .L239
 3812               	.LVL227:
 3813               	.L238:
 3814               	.LM494:
 3815 13b8 8130      		cpi r24,lo8(1)
 3816 13ba 01F0      		breq .L240
 3817 13bc 91E0      		ldi r25,lo8(1)
 3818               	.LVL228:
 3819 13be 00C0      		rjmp .L239
 3820               	.LVL229:
 3821               	.L240:
 3822 13c0 98E9      		ldi r25,lo8(-104)
 3823               	.LVL230:
 3824 13c2 00C0      		rjmp .L239
 3825               	.LVL231:
 3826               	.L237:
 3827               	.LBE756:
 3828               	.LM495:
 3829 13c4 892F      		mov r24,r25
 3830 13c6 8075      		andi r24,lo8(80)
 3831 13c8 01F0      		breq .L241
 3832               	.LM496:
 3833 13ca 9035      		cpi r25,lo8(80)
 3834 13cc 01F4      		brne .L242
 3835               	.LBB757:
 3836               	.LM497:
 3837 13ce E0E0      		ldi r30,lo8(0)
 3838 13d0 F0E0      		ldi r31,hi8(0)
 3839               	.LVL232:
 3840 13d2 89E0      		ldi r24,lo8(9)
 3841               	/* #APP */
 3842               	 ;  842 "stk500boot.c" 1
 3843 13d4 8093 5700 		sts 87, r24
 3844 13d8 9491      		lpm r25, Z
 3845               		
 3846               	 ;  0 "" 2
 3847               	.LVL233:
 3848               	/* #NOAPP */
 3849 13da 00C0      		rjmp .L239
 3850               	.LVL234:
 3851               	.L242:
 3852               	.LBE757:
 3853               	.LM498:
 3854 13dc 9835      		cpi r25,lo8(88)
 3855 13de 01F4      		brne .L241
 3856               	.LBB758:
 3857               	.LM499:
 3858 13e0 E3E0      		ldi r30,lo8(3)
 3859 13e2 F0E0      		ldi r31,hi8(3)
 3860               	.LVL235:
 3861 13e4 89E0      		ldi r24,lo8(9)
 3862               	/* #APP */
 3863               	 ;  846 "stk500boot.c" 1
 3864 13e6 8093 5700 		sts 87, r24
 3865 13ea 9491      		lpm r25, Z
 3866               		
 3867               	 ;  0 "" 2
 3868               	.LVL236:
 3869               	/* #NOAPP */
 3870 13ec 00C0      		rjmp .L239
 3871               	.LVL237:
 3872               	.L241:
 3873 13ee 90E0      		ldi r25,lo8(0)
 3874               	.LVL238:
 3875               	.L239:
 3876               	.LBE758:
 3877               	.LM500:
 3878 13f0 1A82      		std Y+2,__zero_reg__
 3879               	.LM501:
 3880 13f2 1B82      		std Y+3,__zero_reg__
 3881               	.LM502:
 3882 13f4 8D81      		ldd r24,Y+5
 3883               	.LVL239:
 3884 13f6 8C83      		std Y+4,r24
 3885               	.LM503:
 3886 13f8 1D82      		std Y+5,__zero_reg__
 3887               	.LM504:
 3888 13fa 9E83      		std Y+6,r25
 3889               	.LM505:
 3890 13fc 1F82      		std Y+7,__zero_reg__
 3891 13fe 27E0      		ldi r18,lo8(7)
 3892 1400 30E0      		ldi r19,hi8(7)
 3893               	.LVL240:
 3894 1402 00C0      		rjmp .L243
 3895               	.LVL241:
 3896               	.L368:
 3897               	.LBE755:
 3898               	.LM506:
 3899 1404 1A82      		std Y+2,__zero_reg__
 3900               	.LM507:
 3901 1406 88E0      		ldi r24,lo8(8)
 3902 1408 8B83      		std Y+3,r24
 3903               	.LM508:
 3904 140a 81E4      		ldi r24,lo8(65)
 3905 140c 8C83      		std Y+4,r24
 3906               	.LM509:
 3907 140e 86E5      		ldi r24,lo8(86)
 3908 1410 8D83      		std Y+5,r24
 3909               	.LM510:
 3910 1412 82E5      		ldi r24,lo8(82)
 3911 1414 8E83      		std Y+6,r24
 3912               	.LM511:
 3913 1416 89E4      		ldi r24,lo8(73)
 3914 1418 8F83      		std Y+7,r24
 3915               	.LM512:
 3916 141a 83E5      		ldi r24,lo8(83)
 3917 141c 8887      		std Y+8,r24
 3918               	.LM513:
 3919 141e 80E5      		ldi r24,lo8(80)
 3920 1420 8987      		std Y+9,r24
 3921               	.LM514:
 3922 1422 8FE5      		ldi r24,lo8(95)
 3923 1424 8A87      		std Y+10,r24
 3924               	.LM515:
 3925 1426 82E3      		ldi r24,lo8(50)
 3926 1428 8B87      		std Y+11,r24
 3927 142a 2BE0      		ldi r18,lo8(11)
 3928 142c 30E0      		ldi r19,hi8(11)
 3929               	.LVL242:
 3930 142e 00C0      		rjmp .L243
 3931               	.LVL243:
 3932               	.L223:
 3933               	.LBB759:
 3934               	.LM516:
 3935 1430 8A81      		ldd r24,Y+2
 3936 1432 8139      		cpi r24,lo8(-111)
 3937 1434 01F0      		breq .L246
 3938 1436 8239      		cpi r24,lo8(-110)
 3939 1438 01F0      		breq .L247
 3940 143a 8039      		cpi r24,lo8(-112)
 3941 143c 01F4      		brne .L348
 3942 143e 8FE0      		ldi r24,lo8(15)
 3943               	.LVL244:
 3944 1440 00C0      		rjmp .L248
 3945               	.LVL245:
 3946               	.L348:
 3947 1442 80E0      		ldi r24,lo8(0)
 3948               	.LVL246:
 3949 1444 00C0      		rjmp .L248
 3950               	.LVL247:
 3951               	.L246:
 3952 1446 82E0      		ldi r24,lo8(2)
 3953               	.LVL248:
 3954 1448 00C0      		rjmp .L248
 3955               	.LVL249:
 3956               	.L247:
 3957               	.LM517:
 3958 144a 8AE0      		ldi r24,lo8(10)
 3959               	.LVL250:
 3960               	.L248:
 3961               	.LM518:
 3962 144c 1A82      		std Y+2,__zero_reg__
 3963               	.LM519:
 3964 144e 8B83      		std Y+3,r24
 3965 1450 00C0      		rjmp .L354
 3966               	.LVL251:
 3967               	.L225:
 3968               	.LM520:
 3969 1452 7724      		clr r7
 3970 1454 7394      		inc r7
 3971 1456 00C0      		rjmp .L357
 3972               	.L232:
 3973               	.LBE759:
 3974               	.LBB760:
 3975               	.LM521:
 3976 1458 8D81      		ldd r24,Y+5
 3977               	.LVL252:
 3978               	.LM522:
 3979 145a 8823      		tst r24
 3980 145c 01F4      		brne .L249
 3981 145e 8EE1      		ldi r24,lo8(30)
 3982               	.LVL253:
 3983 1460 00C0      		rjmp .L254
 3984               	.LVL254:
 3985               	.L249:
 3986               	.LM523:
 3987 1462 8130      		cpi r24,lo8(1)
 3988 1464 01F0      		breq .L251
 3989 1466 81E0      		ldi r24,lo8(1)
 3990               	.LVL255:
 3991 1468 00C0      		rjmp .L254
 3992               	.LVL256:
 3993               	.L251:
 3994 146a 88E9      		ldi r24,lo8(-104)
 3995               	.LVL257:
 3996 146c 00C0      		rjmp .L254
 3997               	.LVL258:
 3998               	.L231:
 3999               	.LBE760:
 4000               	.LM524:
 4001 146e 1A82      		std Y+2,__zero_reg__
 4002               	.LBB761:
 4003               	.LM525:
 4004 1470 E1E0      		ldi r30,lo8(1)
 4005 1472 F0E0      		ldi r31,hi8(1)
 4006               	.LVL259:
 4007 1474 89E0      		ldi r24,lo8(9)
 4008               	/* #APP */
 4009               	 ;  947 "stk500boot.c" 1
 4010 1476 8093 5700 		sts 87, r24
 4011 147a 8491      		lpm r24, Z
 4012               		
 4013               	 ;  0 "" 2
 4014               	.LVL260:
 4015               	/* #NOAPP */
 4016               	.L356:
 4017               	.LBE761:
 4018 147c 8B83      		std Y+3,r24
 4019               	.LM526:
 4020 147e 1C82      		std Y+4,__zero_reg__
 4021 1480 24E0      		ldi r18,lo8(4)
 4022 1482 30E0      		ldi r19,hi8(4)
 4023               	.LVL261:
 4024 1484 00C0      		rjmp .L243
 4025               	.LVL262:
 4026               	.L229:
 4027               	.LBB762:
 4028               	.LM527:
 4029 1486 8B81      		ldd r24,Y+3
 4030 1488 8035      		cpi r24,lo8(80)
 4031 148a 01F4      		brne .L252
 4032               	.LM528:
 4033 148c 8C81      		ldd r24,Y+4
 4034 148e 8830      		cpi r24,lo8(8)
 4035 1490 01F4      		brne .L253
 4036               	.LBB763:
 4037               	.LM529:
 4038 1492 E2E0      		ldi r30,lo8(2)
 4039 1494 F0E0      		ldi r31,hi8(2)
 4040               	.LVL263:
 4041 1496 89E0      		ldi r24,lo8(9)
 4042               	/* #APP */
 4043               	 ;  958 "stk500boot.c" 1
 4044 1498 8093 5700 		sts 87, r24
 4045 149c 8491      		lpm r24, Z
 4046               		
 4047               	 ;  0 "" 2
 4048               	.LVL264:
 4049               	/* #NOAPP */
 4050 149e 00C0      		rjmp .L254
 4051               	.LVL265:
 4052               	.L253:
 4053               	.LBE763:
 4054               	.LBB764:
 4055               	.LM530:
 4056 14a0 E0E0      		ldi r30,lo8(0)
 4057 14a2 F0E0      		ldi r31,hi8(0)
 4058               	.LVL266:
 4059 14a4 89E0      		ldi r24,lo8(9)
 4060               	/* #APP */
 4061               	 ;  960 "stk500boot.c" 1
 4062 14a6 8093 5700 		sts 87, r24
 4063 14aa 8491      		lpm r24, Z
 4064               		
 4065               	 ;  0 "" 2
 4066               	.LVL267:
 4067               	/* #NOAPP */
 4068 14ac 00C0      		rjmp .L254
 4069               	.LVL268:
 4070               	.L252:
 4071               	.LBE764:
 4072               	.LBB765:
 4073               	.LM531:
 4074 14ae E3E0      		ldi r30,lo8(3)
 4075 14b0 F0E0      		ldi r31,hi8(3)
 4076               	.LVL269:
 4077 14b2 89E0      		ldi r24,lo8(9)
 4078               	/* #APP */
 4079               	 ;  964 "stk500boot.c" 1
 4080 14b4 8093 5700 		sts 87, r24
 4081 14b8 8491      		lpm r24, Z
 4082               		
 4083               	 ;  0 "" 2
 4084               	.LVL270:
 4085               	/* #NOAPP */
 4086               	.L254:
 4087               	.LBE765:
 4088               	.LM532:
 4089 14ba 1A82      		std Y+2,__zero_reg__
 4090 14bc 00C0      		rjmp .L356
 4091               	.LVL271:
 4092               	.L230:
 4093               	.LBE762:
 4094               	.LBB766:
 4095               	.LM533:
 4096 14be 8D81      		ldd r24,Y+5
 4097               	.LBB767:
 4098               	.LM534:
 4099 14c0 836C      		ori r24,lo8(-61)
 4100 14c2 99E0      		ldi r25,lo8(9)
 4101               	/* #APP */
 4102               	 ;  979 "stk500boot.c" 1
 4103 14c4 E1E0      		ldi r30, 1
 4104 14c6 F0E0      		ldi r31, 0
 4105 14c8 082E      		mov r0, r24
 4106 14ca 9093 5700 		sts 87, r25
 4107 14ce E895      		spm
 4108               		
 4109               	 ;  0 "" 2
 4110               	.LVL272:
 4111               	/* #NOAPP */
 4112               	.L255:
 4113               	.LBE767:
 4114               	.LM535:
 4115 14d0 07B6      		in __tmp_reg__,87-32
 4116 14d2 00FC      		sbrc __tmp_reg__,0
 4117 14d4 00C0      		rjmp .L255
 4118               	.LM536:
 4119 14d6 1A82      		std Y+2,__zero_reg__
 4120               	.LM537:
 4121 14d8 1B82      		std Y+3,__zero_reg__
 4122               	.LVL273:
 4123               	.L354:
 4124 14da 23E0      		ldi r18,lo8(3)
 4125 14dc 30E0      		ldi r19,hi8(3)
 4126               	.LVL274:
 4127 14de 00C0      		rjmp .L243
 4128               	.LVL275:
 4129               	.L226:
 4130               	.LBE766:
 4131               	.LM538:
 4132 14e0 80EC      		ldi r24,lo8(-64)
 4133 14e2 8A83      		std Y+2,r24
 4134 14e4 CE5C      		subi r28,lo8(-306)
 4135 14e6 DE4F      		sbci r29,hi8(-306)
 4136 14e8 1882      		st Y,__zero_reg__
 4137 14ea 1982      		std Y+1,__zero_reg__
 4138 14ec 1A82      		std Y+2,__zero_reg__
 4139 14ee 1B82      		std Y+3,__zero_reg__
 4140 14f0 C253      		subi r28,lo8(306)
 4141 14f2 D140      		sbci r29,hi8(306)
 4142               	.LVL276:
 4143 14f4 00C0      		rjmp .L355
 4144               	.L224:
 4145               	.LM539:
 4146 14f6 8A81      		ldd r24,Y+2
 4147 14f8 90E0      		ldi r25,lo8(0)
 4148 14fa A0E0      		ldi r26,lo8(0)
 4149 14fc B0E0      		ldi r27,hi8(0)
 4150               	.LVL277:
 4151 14fe 582F      		mov r21,r24
 4152 1500 4427      		clr r20
 4153 1502 3327      		clr r19
 4154 1504 2227      		clr r18
 4155               	.LVL278:
 4156 1506 8B81      		ldd r24,Y+3
 4157 1508 90E0      		ldi r25,lo8(0)
 4158 150a A0E0      		ldi r26,lo8(0)
 4159 150c B0E0      		ldi r27,hi8(0)
 4160 150e DC01      		movw r26,r24
 4161 1510 9927      		clr r25
 4162 1512 8827      		clr r24
 4163 1514 282B      		or r18,r24
 4164 1516 392B      		or r19,r25
 4165 1518 4A2B      		or r20,r26
 4166 151a 5B2B      		or r21,r27
 4167 151c 8D81      		ldd r24,Y+5
 4168 151e 90E0      		ldi r25,lo8(0)
 4169 1520 A0E0      		ldi r26,lo8(0)
 4170 1522 B0E0      		ldi r27,hi8(0)
 4171 1524 282B      		or r18,r24
 4172 1526 392B      		or r19,r25
 4173 1528 4A2B      		or r20,r26
 4174 152a 5B2B      		or r21,r27
 4175 152c 8C81      		ldd r24,Y+4
 4176 152e 90E0      		ldi r25,lo8(0)
 4177 1530 A0E0      		ldi r26,lo8(0)
 4178 1532 B0E0      		ldi r27,hi8(0)
 4179 1534 BA2F      		mov r27,r26
 4180 1536 A92F      		mov r26,r25
 4181 1538 982F      		mov r25,r24
 4182 153a 8827      		clr r24
 4183               	.LVL279:
 4184 153c 282B      		or r18,r24
 4185 153e 392B      		or r19,r25
 4186 1540 4A2B      		or r20,r26
 4187 1542 5B2B      		or r21,r27
 4188 1544 220F      		lsl r18
 4189 1546 331F      		rol r19
 4190 1548 441F      		rol r20
 4191 154a 551F      		rol r21
 4192 154c C05E      		subi r28,lo8(-288)
 4193 154e DE4F      		sbci r29,hi8(-288)
 4194 1550 2883      		st Y,r18
 4195 1552 3983      		std Y+1,r19
 4196 1554 4A83      		std Y+2,r20
 4197 1556 5B83      		std Y+3,r21
 4198 1558 C052      		subi r28,lo8(288)
 4199 155a D140      		sbci r29,hi8(288)
 4200               	.LVL280:
 4201               	.L357:
 4202               	.LM540:
 4203 155c 1A82      		std Y+2,__zero_reg__
 4204 155e 00C0      		rjmp .L355
 4205               	.L227:
 4206               	.LBB768:
 4207               	.LM541:
 4208 1560 3A81      		ldd r19,Y+2
 4209               	.LVL281:
 4210 1562 C95C      		subi r28,lo8(-311)
 4211 1564 DE4F      		sbci r29,hi8(-311)
 4212 1566 3883      		st Y,r19
 4213 1568 C753      		subi r28,lo8(311)
 4214 156a D140      		sbci r29,hi8(311)
 4215 156c CA5C      		subi r28,lo8(-310)
 4216 156e DE4F      		sbci r29,hi8(-310)
 4217 1570 1882      		st Y,__zero_reg__
 4218 1572 C653      		subi r28,lo8(310)
 4219 1574 D140      		sbci r29,hi8(310)
 4220 1576 8B81      		ldd r24,Y+3
 4221 1578 C82E      		mov r12,r24
 4222               	.LVL282:
 4223 157a DD24      		clr r13
 4224               	.LVL283:
 4225 157c CA5C      		subi r28,lo8(-310)
 4226 157e DE4F      		sbci r29,hi8(-310)
 4227 1580 4881      		ld r20,Y
 4228 1582 5981      		ldd r21,Y+1
 4229 1584 C653      		subi r28,lo8(310)
 4230 1586 D140      		sbci r29,hi8(310)
 4231 1588 C42A      		or r12,r20
 4232 158a D52A      		or r13,r21
 4233               	.LVL284:
 4234               	.LM542:
 4235 158c 9331      		cpi r25,lo8(19)
 4236 158e 01F0      		breq .+2
 4237 1590 00C0      		rjmp .L256
 4238               	.LM543:
 4239 1592 CE5C      		subi r28,lo8(-306)
 4240 1594 DE4F      		sbci r29,hi8(-306)
 4241 1596 8881      		ld r24,Y
 4242 1598 9981      		ldd r25,Y+1
 4243 159a AA81      		ldd r26,Y+2
 4244 159c BB81      		ldd r27,Y+3
 4245 159e C253      		subi r28,lo8(306)
 4246 15a0 D140      		sbci r29,hi8(306)
 4247 15a2 8050      		subi r24,lo8(245760)
 4248 15a4 904C      		sbci r25,hi8(245760)
 4249 15a6 A340      		sbci r26,hlo8(245760)
 4250 15a8 B040      		sbci r27,hhi8(245760)
 4251               	.LVL285:
 4252 15aa 00F4      		brsh .L257
 4253               	.LM544:
 4254 15ac 83E0      		ldi r24,lo8(3)
 4255 15ae CE5C      		subi r28,lo8(-306)
 4256 15b0 DE4F      		sbci r29,hi8(-306)
 4257 15b2 E880      		ld r14,Y
 4258 15b4 F980      		ldd r15,Y+1
 4259 15b6 0A81      		ldd r16,Y+2
 4260 15b8 1B81      		ldd r17,Y+3
 4261 15ba C253      		subi r28,lo8(306)
 4262 15bc D140      		sbci r29,hi8(306)
 4263               	.LVL286:
 4264               	/* #APP */
 4265               	 ;  1020 "stk500boot.c" 1
 4266 15be F701      		movw r30, r14
 4267 15c0 0093 5B00 		sts  91, r16
 4268 15c4 8093 5700 		sts 87, r24
 4269 15c8 E895      		spm
 4270               		
 4271               	 ;  0 "" 2
 4272               	/* #NOAPP */
 4273               	.L258:
 4274               	.LM545:
 4275 15ca 07B6      		in __tmp_reg__,87-32
 4276 15cc 00FC      		sbrc __tmp_reg__,0
 4277 15ce 00C0      		rjmp .L258
 4278               	.LM546:
 4279 15d0 CE5C      		subi r28,lo8(-306)
 4280 15d2 DE4F      		sbci r29,hi8(-306)
 4281 15d4 0881      		ld r16,Y
 4282 15d6 1981      		ldd r17,Y+1
 4283 15d8 2A81      		ldd r18,Y+2
 4284 15da 3B81      		ldd r19,Y+3
 4285 15dc C253      		subi r28,lo8(306)
 4286 15de D140      		sbci r29,hi8(306)
 4287               	.LVL287:
 4288 15e0 0050      		subi r16,lo8(-(256))
 4289 15e2 1F4F      		sbci r17,hi8(-(256))
 4290 15e4 2F4F      		sbci r18,hlo8(-(256))
 4291 15e6 3F4F      		sbci r19,hhi8(-(256))
 4292 15e8 CE5C      		subi r28,lo8(-306)
 4293 15ea DE4F      		sbci r29,hi8(-306)
 4294 15ec 0883      		st Y,r16
 4295 15ee 1983      		std Y+1,r17
 4296 15f0 2A83      		std Y+2,r18
 4297 15f2 3B83      		std Y+3,r19
 4298 15f4 C253      		subi r28,lo8(306)
 4299 15f6 D140      		sbci r29,hi8(306)
 4300               	.LVL288:
 4301               	.L257:
 4302 15f8 C05E      		subi r28,lo8(-288)
 4303 15fa DE4F      		sbci r29,hi8(-288)
 4304 15fc 4881      		ld r20,Y
 4305 15fe 5981      		ldd r21,Y+1
 4306 1600 6A81      		ldd r22,Y+2
 4307 1602 7B81      		ldd r23,Y+3
 4308 1604 C052      		subi r28,lo8(288)
 4309 1606 D140      		sbci r29,hi8(288)
 4310 1608 DE01      		movw r26,r28
 4311               	.LVL289:
 4312 160a 1B96      		adiw r26,11
 4313               	.LM547:
 4314 160c 31E0      		ldi r19,lo8(1)
 4315               	.LVL290:
 4316               	.L259:
 4317               	.LM548:
 4318 160e 8C91      		ld r24,X
 4319               	.LVL291:
 4320               	.LM549:
 4321 1610 1196      		adiw r26,1
 4322 1612 2C91      		ld r18,X
 4323 1614 1197      		sbiw r26,1
 4324               	.LVL292:
 4325               	.LM550:
 4326 1616 1296      		adiw r26,2
 4327               	.LM551:
 4328 1618 C75C      		subi r28,lo8(-313)
 4329 161a DE4F      		sbci r29,hi8(-313)
 4330 161c 2883      		st Y,r18
 4331 161e C953      		subi r28,lo8(313)
 4332 1620 D140      		sbci r29,hi8(313)
 4333 1622 C85C      		subi r28,lo8(-312)
 4334 1624 DE4F      		sbci r29,hi8(-312)
 4335 1626 1882      		st Y,__zero_reg__
 4336 1628 C853      		subi r28,lo8(312)
 4337 162a D140      		sbci r29,hi8(312)
 4338 162c 90E0      		ldi r25,lo8(0)
 4339 162e C85C      		subi r28,lo8(-312)
 4340 1630 DE4F      		sbci r29,hi8(-312)
 4341 1632 E881      		ld r30,Y
 4342 1634 F981      		ldd r31,Y+1
 4343 1636 C853      		subi r28,lo8(312)
 4344 1638 D140      		sbci r29,hi8(312)
 4345 163a 8E2B      		or r24,r30
 4346 163c 9F2B      		or r25,r31
 4347               	.LVL293:
 4348               	/* #APP */
 4349               	 ;  1031 "stk500boot.c" 1
 4350 163e 0C01      		movw  r0, r24
 4351 1640 FA01      		movw r30, r20
 4352 1642 6093 5B00 		sts 91, r22
 4353 1646 3093 5700 		sts 87, r19
 4354 164a E895      		spm
 4355 164c 1124      		clr  r1
 4356               		
 4357               	 ;  0 "" 2
 4358               	.LM552:
 4359               	/* #NOAPP */
 4360 164e 4E5F      		subi r20,lo8(-(2))
 4361 1650 5F4F      		sbci r21,hi8(-(2))
 4362 1652 6F4F      		sbci r22,hlo8(-(2))
 4363 1654 7F4F      		sbci r23,hhi8(-(2))
 4364               	.LM553:
 4365 1656 0EEF      		ldi r16,lo8(-2)
 4366 1658 E02E      		mov r14,r16
 4367 165a 0FEF      		ldi r16,hi8(-2)
 4368 165c F02E      		mov r15,r16
 4369               	.LVL294:
 4370 165e CE0C      		add r12,r14
 4371 1660 DF1C      		adc r13,r15
 4372               	.LM554:
 4373 1662 C114      		cp r12,__zero_reg__
 4374 1664 D104      		cpc r13,__zero_reg__
 4375 1666 01F4      		brne .L259
 4376               	.LM555:
 4377 1668 85E0      		ldi r24,lo8(5)
 4378               	.LVL295:
 4379 166a C05E      		subi r28,lo8(-288)
 4380 166c DE4F      		sbci r29,hi8(-288)
 4381 166e 0881      		ld r16,Y
 4382 1670 1981      		ldd r17,Y+1
 4383 1672 2A81      		ldd r18,Y+2
 4384 1674 3B81      		ldd r19,Y+3
 4385 1676 C052      		subi r28,lo8(288)
 4386 1678 D140      		sbci r29,hi8(288)
 4387               	/* #APP */
 4388               	 ;  1037 "stk500boot.c" 1
 4389 167a F801      		movw r30, r16
 4390 167c 2093 5B00 		sts 91, r18
 4391 1680 8093 5700 		sts 87, r24
 4392 1684 E895      		spm
 4393               		
 4394               	 ;  0 "" 2
 4395               	.LVL296:
 4396               	/* #NOAPP */
 4397               	.L260:
 4398               	.LM556:
 4399 1686 07B6      		in __tmp_reg__,87-32
 4400 1688 00FC      		sbrc __tmp_reg__,0
 4401 168a 00C0      		rjmp .L260
 4402               	.LM557:
 4403 168c 81E1      		ldi r24,lo8(17)
 4404               	/* #APP */
 4405               	 ;  1039 "stk500boot.c" 1
 4406 168e 8093 5700 		sts 87, r24
 4407 1692 E895      		spm
 4408               		
 4409               	 ;  0 "" 2
 4410               	/* #NOAPP */
 4411 1694 00C0      		rjmp .L261
 4412               	.LVL297:
 4413               	.L256:
 4414               	.LBB769:
 4415               	.LM558:
 4416 1696 C05E      		subi r28,lo8(-288)
 4417 1698 DE4F      		sbci r29,hi8(-288)
 4418 169a 8881      		ld r24,Y
 4419 169c 9981      		ldd r25,Y+1
 4420 169e AA81      		ldd r26,Y+2
 4421 16a0 BB81      		ldd r27,Y+3
 4422 16a2 C052      		subi r28,lo8(288)
 4423 16a4 D140      		sbci r29,hi8(288)
 4424 16a6 B695      		lsr r27
 4425 16a8 A795      		ror r26
 4426 16aa 9795      		ror r25
 4427 16ac 8795      		ror r24
 4428               	.LVL298:
 4429 16ae 7C01      		movw r14,r24
 4430               	.LVL299:
 4431 16b0 8601      		movw r16,r12
 4432               	.LVL300:
 4433 16b2 ABE0      		ldi r26,lo8(11)
 4434 16b4 AA2E      		mov r10,r26
 4435 16b6 B12C      		mov r11,__zero_reg__
 4436               	.LVL301:
 4437 16b8 AC0E      		add r10,r28
 4438 16ba BD1E      		adc r11,r29
 4439 16bc 00C0      		rjmp .L262
 4440               	.LVL302:
 4441               	.L263:
 4442               	.LM559:
 4443 16be D501      		movw r26,r10
 4444 16c0 6D91      		ld r22,X+
 4445               	.LVL303:
 4446 16c2 5D01      		movw r10,r26
 4447 16c4 C701      		movw r24,r14
 4448 16c6 0E94 0000 		call __eewr_byte_m2560
 4449               	.LVL304:
 4450               	.LM560:
 4451 16ca 0894      		sec
 4452 16cc E11C      		adc r14,__zero_reg__
 4453 16ce F11C      		adc r15,__zero_reg__
 4454               	.LM561:
 4455 16d0 0150      		subi r16,lo8(-(-1))
 4456 16d2 1040      		sbci r17,hi8(-(-1))
 4457               	.LVL305:
 4458               	.L262:
 4459               	.LM562:
 4460 16d4 0115      		cp r16,__zero_reg__
 4461 16d6 1105      		cpc r17,__zero_reg__
 4462 16d8 01F4      		brne .L263
 4463 16da A601      		movw r20,r12
 4464               	.LVL306:
 4465 16dc 60E0      		ldi r22,lo8(0)
 4466 16de 70E0      		ldi r23,hi8(0)
 4467               	.LVL307:
 4468 16e0 440F      		lsl r20
 4469 16e2 551F      		rol r21
 4470 16e4 661F      		rol r22
 4471 16e6 771F      		rol r23
 4472               	.LVL308:
 4473 16e8 C05E      		subi r28,lo8(-288)
 4474 16ea DE4F      		sbci r29,hi8(-288)
 4475 16ec E880      		ld r14,Y
 4476 16ee F980      		ldd r15,Y+1
 4477 16f0 0A81      		ldd r16,Y+2
 4478 16f2 1B81      		ldd r17,Y+3
 4479 16f4 C052      		subi r28,lo8(288)
 4480 16f6 D140      		sbci r29,hi8(288)
 4481               	.LVL309:
 4482 16f8 4E0D      		add r20,r14
 4483 16fa 5F1D      		adc r21,r15
 4484 16fc 601F      		adc r22,r16
 4485 16fe 711F      		adc r23,r17
 4486               	.LVL310:
 4487               	.L261:
 4488               	.LBE769:
 4489               	.LM563:
 4490 1700 1A82      		std Y+2,__zero_reg__
 4491 1702 C05E      		subi r28,lo8(-288)
 4492 1704 DE4F      		sbci r29,hi8(-288)
 4493 1706 4883      		st Y,r20
 4494 1708 5983      		std Y+1,r21
 4495 170a 6A83      		std Y+2,r22
 4496 170c 7B83      		std Y+3,r23
 4497 170e C052      		subi r28,lo8(288)
 4498 1710 D140      		sbci r29,hi8(288)
 4499 1712 00C0      		rjmp .L355
 4500               	.LVL311:
 4501               	.L228:
 4502               	.LBE768:
 4503               	.LBB770:
 4504               	.LM564:
 4505 1714 FA80      		ldd r15,Y+2
 4506               	.LVL312:
 4507 1716 C55C      		subi r28,lo8(-315)
 4508 1718 DE4F      		sbci r29,hi8(-315)
 4509 171a F882      		st Y,r15
 4510 171c CB53      		subi r28,lo8(315)
 4511 171e D140      		sbci r29,hi8(315)
 4512 1720 C65C      		subi r28,lo8(-314)
 4513 1722 DE4F      		sbci r29,hi8(-314)
 4514 1724 1882      		st Y,__zero_reg__
 4515 1726 CA53      		subi r28,lo8(314)
 4516 1728 D140      		sbci r29,hi8(314)
 4517 172a 8B81      		ldd r24,Y+3
 4518 172c C82E      		mov r12,r24
 4519               	.LVL313:
 4520 172e DD24      		clr r13
 4521               	.LVL314:
 4522 1730 C65C      		subi r28,lo8(-314)
 4523 1732 DE4F      		sbci r29,hi8(-314)
 4524 1734 0881      		ld r16,Y
 4525 1736 1981      		ldd r17,Y+1
 4526 1738 CA53      		subi r28,lo8(314)
 4527 173a D140      		sbci r29,hi8(314)
 4528               	.LVL315:
 4529 173c C02A      		or r12,r16
 4530 173e D12A      		or r13,r17
 4531               	.LVL316:
 4532               	.LM565:
 4533 1740 1A82      		std Y+2,__zero_reg__
 4534               	.LM566:
 4535 1742 8981      		ldd r24,Y+1
 4536 1744 BE01      		movw r22,r28
 4537               	.LVL317:
 4538 1746 6D5F      		subi r22,lo8(-(3))
 4539 1748 7F4F      		sbci r23,hi8(-(3))
 4540 174a 8431      		cpi r24,lo8(20)
 4541 174c 01F4      		brne .L264
 4542 174e 9601      		movw r18,r12
 4543               	.LVL318:
 4544               	.L265:
 4545               	.LBB771:
 4546               	.LBB772:
 4547               	.LM567:
 4548 1750 C05E      		subi r28,lo8(-288)
 4549 1752 DE4F      		sbci r29,hi8(-288)
 4550 1754 E880      		ld r14,Y
 4551 1756 F980      		ldd r15,Y+1
 4552 1758 0A81      		ldd r16,Y+2
 4553 175a 1B81      		ldd r17,Y+3
 4554 175c C052      		subi r28,lo8(288)
 4555 175e D140      		sbci r29,hi8(288)
 4556               	.LVL319:
 4557               	/* #APP */
 4558               	 ;  1074 "stk500boot.c" 1
 4559 1760 0BBF      		out 59, r16
 4560 1762 F701      		movw r30, r14
 4561 1764 8791      		elpm r24, Z+
 4562 1766 9691      		elpm r25, Z
 4563               		
 4564               	 ;  0 "" 2
 4565               	.LVL320:
 4566               	/* #NOAPP */
 4567               	.LBE772:
 4568               	.LM568:
 4569 1768 DB01      		movw r26,r22
 4570               	.LVL321:
 4571 176a 8C93      		st X,r24
 4572               	.LM569:
 4573 176c 1196      		adiw r26,1
 4574 176e 9C93      		st X,r25
 4575               	.LM570:
 4576 1770 6E5F      		subi r22,lo8(-(2))
 4577 1772 7F4F      		sbci r23,hi8(-(2))
 4578               	.LVL322:
 4579               	.LM571:
 4580 1774 D801      		movw r26,r16
 4581 1776 C701      		movw r24,r14
 4582               	.LVL323:
 4583 1778 0296      		adiw r24,2
 4584 177a A11D      		adc r26,__zero_reg__
 4585 177c B11D      		adc r27,__zero_reg__
 4586 177e C05E      		subi r28,lo8(-288)
 4587 1780 DE4F      		sbci r29,hi8(-288)
 4588 1782 8883      		st Y,r24
 4589 1784 9983      		std Y+1,r25
 4590 1786 AA83      		std Y+2,r26
 4591 1788 BB83      		std Y+3,r27
 4592 178a C052      		subi r28,lo8(288)
 4593 178c D140      		sbci r29,hi8(288)
 4594               	.LVL324:
 4595               	.LM572:
 4596 178e 2250      		subi r18,lo8(-(-2))
 4597 1790 3040      		sbci r19,hi8(-(-2))
 4598               	.LM573:
 4599 1792 01F4      		brne .L265
 4600 1794 00C0      		rjmp .L266
 4601               	.LVL325:
 4602               	.L264:
 4603 1796 C05E      		subi r28,lo8(-288)
 4604 1798 DE4F      		sbci r29,hi8(-288)
 4605 179a 2881      		ld r18,Y
 4606 179c 3981      		ldd r19,Y+1
 4607 179e 4A81      		ldd r20,Y+2
 4608 17a0 5B81      		ldd r21,Y+3
 4609 17a2 C052      		subi r28,lo8(288)
 4610 17a4 D140      		sbci r29,hi8(288)
 4611               	.LVL326:
 4612               	.LBE771:
 4613               	.LM574:
 4614 17a6 0894      		sec
 4615 17a8 C108      		sbc r12,__zero_reg__
 4616 17aa D108      		sbc r13,__zero_reg__
 4617               	.LM575:
 4618 17ac 7601      		movw r14,r12
 4619               	.LVL327:
 4620 17ae 00E0      		ldi r16,lo8(0)
 4621 17b0 10E0      		ldi r17,hi8(0)
 4622 17b2 0894      		sec
 4623 17b4 C11C      		adc r12,__zero_reg__
 4624 17b6 D11C      		adc r13,__zero_reg__
 4625 17b8 0894      		sec
 4626 17ba E11C      		adc r14,__zero_reg__
 4627 17bc F11C      		adc r15,__zero_reg__
 4628 17be 011D      		adc r16,__zero_reg__
 4629 17c0 111D      		adc r17,__zero_reg__
 4630 17c2 E20E      		add r14,r18
 4631 17c4 F31E      		adc r15,r19
 4632 17c6 041F      		adc r16,r20
 4633 17c8 151F      		adc r17,r21
 4634               	.LVL328:
 4635               	.L267:
 4636               	.LM576:
 4637 17ca 21BD      		out 65-32,r18
 4638               	.LM577:
 4639 17cc BB27      		clr r27
 4640 17ce A52F      		mov r26,r21
 4641 17d0 942F      		mov r25,r20
 4642 17d2 832F      		mov r24,r19
 4643               	.LVL329:
 4644 17d4 82BD      		out 66-32,r24
 4645               	.LM578:
 4646 17d6 2F5F      		subi r18,lo8(-(1))
 4647 17d8 3F4F      		sbci r19,hi8(-(1))
 4648 17da 4F4F      		sbci r20,hlo8(-(1))
 4649 17dc 5F4F      		sbci r21,hhi8(-(1))
 4650               	.LM579:
 4651 17de F89A      		sbi 63-32,0
 4652               	.LM580:
 4653 17e0 80B5      		in r24,64-32
 4654 17e2 DB01      		movw r26,r22
 4655               	.LVL330:
 4656 17e4 8D93      		st X+,r24
 4657 17e6 BD01      		movw r22,r26
 4658               	.LVL331:
 4659               	.LM581:
 4660 17e8 2E15      		cp r18,r14
 4661 17ea 3F05      		cpc r19,r15
 4662 17ec 4007      		cpc r20,r16
 4663 17ee 5107      		cpc r21,r17
 4664 17f0 01F4      		brne .L267
 4665 17f2 C05E      		subi r28,lo8(-288)
 4666 17f4 DE4F      		sbci r29,hi8(-288)
 4667 17f6 2883      		st Y,r18
 4668 17f8 3983      		std Y+1,r19
 4669 17fa 4A83      		std Y+2,r20
 4670 17fc 5B83      		std Y+3,r21
 4671 17fe C052      		subi r28,lo8(288)
 4672 1800 D140      		sbci r29,hi8(288)
 4673               	.LVL332:
 4674               	.L266:
 4675               	.LM582:
 4676 1802 9601      		movw r18,r12
 4677               	.LVL333:
 4678 1804 2D5F      		subi r18,lo8(-(3))
 4679 1806 3F4F      		sbci r19,hi8(-(3))
 4680               	.LM583:
 4681 1808 FB01      		movw r30,r22
 4682 180a 1082      		st Z,__zero_reg__
 4683 180c 00C0      		rjmp .L243
 4684               	.LVL334:
 4685               	.L220:
 4686               	.LBE770:
 4687               	.LM584:
 4688 180e 80EC      		ldi r24,lo8(-64)
 4689 1810 8A83      		std Y+2,r24
 4690               	.LVL335:
 4691               	.L355:
 4692 1812 22E0      		ldi r18,lo8(2)
 4693 1814 30E0      		ldi r19,hi8(2)
 4694               	.LVL336:
 4695               	.L243:
 4696               	.LBB773:
 4697               	.LBB774:
 4698               	.LM585:
 4699 1816 8BE1      		ldi r24,lo8(27)
 4700               	.LVL337:
 4701 1818 8093 C600 		sts 198,r24
 4702               	.L268:
 4703               	.LM586:
 4704 181c 8091 C000 		lds r24,192
 4705 1820 86FF      		sbrs r24,6
 4706 1822 00C0      		rjmp .L268
 4707               	.LM587:
 4708 1824 8091 C000 		lds r24,192
 4709 1828 8064      		ori r24,lo8(64)
 4710 182a 8093 C000 		sts 192,r24
 4711               	.LBE774:
 4712               	.LBE773:
 4713               	.LBB775:
 4714               	.LBB776:
 4715               	.LM588:
 4716 182e C15D      		subi r28,lo8(-303)
 4717 1830 DE4F      		sbci r29,hi8(-303)
 4718 1832 F881      		ld r31,Y
 4719 1834 CF52      		subi r28,lo8(303)
 4720 1836 D140      		sbci r29,hi8(303)
 4721 1838 F093 C600 		sts 198,r31
 4722               	.L269:
 4723               	.LM589:
 4724 183c 8091 C000 		lds r24,192
 4725 1840 86FF      		sbrs r24,6
 4726 1842 00C0      		rjmp .L269
 4727               	.LM590:
 4728 1844 8091 C000 		lds r24,192
 4729 1848 8064      		ori r24,lo8(64)
 4730 184a 8093 C000 		sts 192,r24
 4731               	.LBE776:
 4732               	.LBE775:
 4733               	.LM591:
 4734 184e 432F      		mov r20,r19
 4735               	.LVL338:
 4736               	.LBB777:
 4737               	.LBB778:
 4738               	.LM592:
 4739 1850 3093 C600 		sts 198,r19
 4740               	.LVL339:
 4741               	.L270:
 4742               	.LM593:
 4743 1854 8091 C000 		lds r24,192
 4744 1858 86FF      		sbrs r24,6
 4745 185a 00C0      		rjmp .L270
 4746               	.LM594:
 4747 185c 8091 C000 		lds r24,192
 4748 1860 8064      		ori r24,lo8(64)
 4749 1862 8093 C000 		sts 192,r24
 4750               	.LBE778:
 4751               	.LBE777:
 4752               	.LM595:
 4753 1866 922F      		mov r25,r18
 4754               	.LVL340:
 4755               	.LBB779:
 4756               	.LBB780:
 4757               	.LM596:
 4758 1868 2093 C600 		sts 198,r18
 4759               	.L271:
 4760               	.LM597:
 4761 186c 8091 C000 		lds r24,192
 4762 1870 86FF      		sbrs r24,6
 4763 1872 00C0      		rjmp .L271
 4764               	.LM598:
 4765 1874 8091 C000 		lds r24,192
 4766 1878 8064      		ori r24,lo8(64)
 4767 187a 8093 C000 		sts 192,r24
 4768               	.LBE780:
 4769               	.LBE779:
 4770               	.LBB781:
 4771               	.LBB782:
 4772               	.LM599:
 4773 187e 8EE0      		ldi r24,lo8(14)
 4774 1880 8093 C600 		sts 198,r24
 4775               	.L272:
 4776               	.LM600:
 4777 1884 8091 C000 		lds r24,192
 4778 1888 86FF      		sbrs r24,6
 4779 188a 00C0      		rjmp .L272
 4780               	.LM601:
 4781 188c 8091 C000 		lds r24,192
 4782 1890 8064      		ori r24,lo8(64)
 4783 1892 8093 C000 		sts 192,r24
 4784               	.LBE782:
 4785               	.LBE781:
 4786               	.LM602:
 4787 1896 65E1      		ldi r22,lo8(21)
 4788               	.LVL341:
 4789 1898 C15D      		subi r28,lo8(-303)
 4790 189a DE4F      		sbci r29,hi8(-303)
 4791 189c E880      		ld r14,Y
 4792 189e CF52      		subi r28,lo8(303)
 4793 18a0 D140      		sbci r29,hi8(303)
 4794               	.LVL342:
 4795 18a2 6E25      		eor r22,r14
 4796               	.LM603:
 4797 18a4 6927      		eor r22,r25
 4798               	.LM604:
 4799 18a6 6427      		eor r22,r20
 4800 18a8 FE01      		movw r30,r28
 4801 18aa 3196      		adiw r30,1
 4802 18ac 00C0      		rjmp .L273
 4803               	.L275:
 4804               	.LM605:
 4805 18ae 9081      		ld r25,Z
 4806               	.LBB783:
 4807               	.LBB784:
 4808               	.LM606:
 4809 18b0 9093 C600 		sts 198,r25
 4810               	.L274:
 4811               	.LM607:
 4812 18b4 8091 C000 		lds r24,192
 4813 18b8 86FF      		sbrs r24,6
 4814 18ba 00C0      		rjmp .L274
 4815               	.LBE784:
 4816               	.LBE783:
 4817               	.LM608:
 4818 18bc 3196      		adiw r30,1
 4819               	.LBB786:
 4820               	.LBB785:
 4821               	.LM609:
 4822 18be 8091 C000 		lds r24,192
 4823 18c2 8064      		ori r24,lo8(64)
 4824 18c4 8093 C000 		sts 192,r24
 4825               	.LBE785:
 4826               	.LBE786:
 4827               	.LM610:
 4828 18c8 6927      		eor r22,r25
 4829               	.LM611:
 4830 18ca 2150      		subi r18,lo8(-(-1))
 4831 18cc 3040      		sbci r19,hi8(-(-1))
 4832               	.LVL343:
 4833               	.L273:
 4834               	.LM612:
 4835 18ce 2115      		cp r18,__zero_reg__
 4836 18d0 3105      		cpc r19,__zero_reg__
 4837 18d2 01F4      		brne .L275
 4838               	.LBB787:
 4839               	.LBB788:
 4840               	.LM613:
 4841 18d4 6093 C600 		sts 198,r22
 4842               	.L276:
 4843               	.LM614:
 4844 18d8 8091 C000 		lds r24,192
 4845 18dc 86FF      		sbrs r24,6
 4846 18de 00C0      		rjmp .L276
 4847               	.LM615:
 4848 18e0 8091 C000 		lds r24,192
 4849 18e4 8064      		ori r24,lo8(64)
 4850 18e6 8093 C000 		sts 192,r24
 4851               	.LBE788:
 4852               	.LBE787:
 4853               	.LM616:
 4854 18ea 8091 0801 		lds r24,264
 4855 18ee 90E4      		ldi r25,lo8(64)
 4856               	.LVL344:
 4857 18f0 8927      		eor r24,r25
 4858 18f2 8093 0801 		sts 264,r24
 4859               	.LM617:
 4860 18f6 7720      		tst r7
 4861 18f8 01F4      		brne .L84
 4862               	.LM618:
 4863 18fa C15D      		subi r28,lo8(-303)
 4864 18fc DE4F      		sbci r29,hi8(-303)
 4865 18fe 0881      		ld r16,Y
 4866 1900 CF52      		subi r28,lo8(303)
 4867 1902 D140      		sbci r29,hi8(303)
 4868               	.LVL345:
 4869 1904 0F5F      		subi r16,lo8(-(1))
 4870 1906 C15D      		subi r28,lo8(-303)
 4871 1908 DE4F      		sbci r29,hi8(-303)
 4872 190a 0883      		st Y,r16
 4873 190c CF52      		subi r28,lo8(303)
 4874 190e D140      		sbci r29,hi8(303)
 4875               	.LVL346:
 4876               	.L85:
 4877 1910 90E0      		ldi r25,lo8(0)
 4878               	.LVL347:
 4879 1912 A0E0      		ldi r26,lo8(0)
 4880 1914 B0E0      		ldi r27,hi8(0)
 4881               	.LVL348:
 4882 1916 0C94 0000 		jmp .L345
 4883               	.LVL349:
 4884               	.L84:
 4885               	.LM619:
 4886 191a 8091 0701 		lds r24,263
 4887 191e 8F7B      		andi r24,lo8(-65)
 4888 1920 8093 0701 		sts 263,r24
 4889               	.LM620:
 4890 1924 8091 0801 		lds r24,264
 4891 1928 8F7B      		andi r24,lo8(-65)
 4892 192a 8093 0801 		sts 264,r24
 4893 192e 80E0      		ldi r24,lo8(0)
 4894 1930 90E0      		ldi r25,hi8(0)
 4895               	.LVL350:
 4896               	.LBB789:
 4897               	.LBB790:
 4898               	.LBB791:
 4899               	.LBB792:
 4900               	.LBB793:
 4901               	.LBB794:
 4902               	.LM621:
 4903 1932 20ED      		ldi r18,lo8(2000)
 4904 1934 37E0      		ldi r19,hi8(2000)
 4905               	.LVL351:
 4906               	.L277:
 4907 1936 F901      		movw r30,r18
 4908               	.LVL352:
 4909               	/* #APP */
 4910               	 ;  105 "c:/winavr-20100110/lib/gcc/../../avr/include/util/delay_basic.h" 1
 4911 1938 3197      		1: sbiw r30,1
 4912 193a 01F4      		brne 1b
 4913               	 ;  0 "" 2
 4914               	/* #NOAPP */
 4915               	.LBE794:
 4916               	.LBE793:
 4917               	.LBE792:
 4918               	.LBE791:
 4919               	.LM622:
 4920 193c 0196      		adiw r24,1
 4921 193e 8436      		cpi r24,100
 4922 1940 9105      		cpc r25,__zero_reg__
 4923 1942 01F4      		brne .L277
 4924               	.LBE790:
 4925               	.LBE789:
 4926               	.LM623:
 4927               	/* #APP */
 4928               	 ;  1181 "stk500boot.c" 1
 4929 1944 0000      		nop
 4930               	 ;  0 "" 2
 4931               	.LM624:
 4932               	/* #NOAPP */
 4933 1946 8091 C000 		lds r24,192
 4934               	.LVL353:
 4935 194a 8D7F      		andi r24,lo8(-3)
 4936 194c 8093 C000 		sts 192,r24
 4937               	.LM625:
 4938 1950 81E1      		ldi r24,lo8(17)
 4939               	/* #APP */
 4940               	 ;  1188 "stk500boot.c" 1
 4941 1952 8093 5700 		sts 87, r24
 4942 1956 E895      		spm
 4943               		
 4944               	 ;  0 "" 2
 4945               	.LM626:
 4946               	 ;  1191 "stk500boot.c" 1
 4947 1958 EE27      		clr	r30		
 4948 195a FF27      		clr	r31		
 4949 195c 0994      		ijmp	
 4950               		
 4951               	 ;  0 "" 2
 4952               	/* #NOAPP */
 4953               	.L278:
 4954 195e 00C0      		rjmp .L278
 4955               	.LVL354:
 4956               	.L218:
 4957 1960 90E0      		ldi r25,lo8(0)
 4958 1962 0C94 0000 		jmp .L345
 4959               	.LFE13:
 4961               	.global	app_start
 4962               	.global	app_start
 4963               		.section .bss
 4966               	app_start:
 4967 0000 0000      		.skip 2,0
 4968               	.global	gTextMsg_CPU_Name
 4969               		.section	.progmem.data,"a",@progbits
 4972               	gTextMsg_CPU_Name:
 4973 0000 4154 6D65 		.string	"ATmega2560"
 4973      6761 3235 
 4973      3630 00
 4974               	.global	gTextMsg_Explorer
 4977               	gTextMsg_Explorer:
 4978 000b 4172 6475 		.string	"Arduino explorer stk500V2 by MLS"
 4978      696E 6F20 
 4978      6578 706C 
 4978      6F72 6572 
 4978      2073 746B 
 4979               	.global	gTextMsg_Prompt
 4982               	gTextMsg_Prompt:
 4983 002c 426F 6F74 		.string	"Bootloader>"
 4983      6C6F 6164 
 4983      6572 3E00 
 4984               	.global	gTextMsg_HUH
 4987               	gTextMsg_HUH:
 4988 0038 4875 683F 		.string	"Huh?"
 4988      00
 4989               	.global	gTextMsg_COMPILED_ON
 4992               	gTextMsg_COMPILED_ON:
 4993 003d 436F 6D70 		.string	"Compiled on = "
 4993      696C 6564 
 4993      206F 6E20 
 4993      3D20 00
 4994               	.global	gTextMsg_CPU_Type
 4997               	gTextMsg_CPU_Type:
 4998 004c 4350 5520 		.string	"CPU Type    = "
 4998      5479 7065 
 4998      2020 2020 
 4998      3D20 00
 4999               	.global	gTextMsg_AVR_ARCH
 5002               	gTextMsg_AVR_ARCH:
 5003 005b 5F5F 4156 		.string	"__AVR_ARCH__= "
 5003      525F 4152 
 5003      4348 5F5F 
 5003      3D20 00
 5004               	.global	gTextMsg_AVR_LIBC
 5007               	gTextMsg_AVR_LIBC:
 5008 006a 4156 5220 		.string	"AVR LibC Ver= "
 5008      4C69 6243 
 5008      2056 6572 
 5008      3D20 00
 5009               	.global	gTextMsg_GCC_VERSION
 5012               	gTextMsg_GCC_VERSION:
 5013 0079 4743 4320 		.string	"GCC Version = "
 5013      5665 7273 
 5013      696F 6E20 
 5013      3D20 00
 5014               	.global	gTextMsg_CPU_SIGNATURE
 5017               	gTextMsg_CPU_SIGNATURE:
 5018 0088 4350 5520 		.string	"CPU ID      = "
 5018      4944 2020 
 5018      2020 2020 
 5018      3D20 00
 5019               	.global	gTextMsg_FUSE_BYTE_LOW
 5022               	gTextMsg_FUSE_BYTE_LOW:
 5023 0097 4C6F 7720 		.string	"Low fuse    = "
 5023      6675 7365 
 5023      2020 2020 
 5023      3D20 00
 5024               	.global	gTextMsg_FUSE_BYTE_HIGH
 5027               	gTextMsg_FUSE_BYTE_HIGH:
 5028 00a6 4869 6768 		.string	"High fuse   = "
 5028      2066 7573 
 5028      6520 2020 
 5028      3D20 00
 5029               	.global	gTextMsg_FUSE_BYTE_EXT
 5032               	gTextMsg_FUSE_BYTE_EXT:
 5033 00b5 4578 7420 		.string	"Ext fuse    = "
 5033      6675 7365 
 5033      2020 2020 
 5033      3D20 00
 5034               	.global	gTextMsg_FUSE_BYTE_LOCK
 5037               	gTextMsg_FUSE_BYTE_LOCK:
 5038 00c4 4C6F 636B 		.string	"Lock fuse   = "
 5038      2066 7573 
 5038      6520 2020 
 5038      3D20 00
 5039               	.global	gTextMsg_GCC_DATE_STR
 5042               	gTextMsg_GCC_DATE_STR:
 5043 00d3 4D61 7220 		.string	"Mar 17 2017"
 5043      3137 2032 
 5043      3031 3700 
 5044               	.global	gTextMsg_AVR_LIBC_VER_STR
 5047               	gTextMsg_AVR_LIBC_VER_STR:
 5048 00df 312E 362E 		.string	"1.6.7"
 5048      3700 
 5049               	.global	gTextMsg_GCC_VERSION_STR
 5052               	gTextMsg_GCC_VERSION_STR:
 5053 00e5 342E 332E 		.string	"4.3.3"
 5053      3300 
 5054               	.global	gTextMsg_VECTOR_HEADER
 5057               	gTextMsg_VECTOR_HEADER:
 5058 00eb 5623 2020 		.string	"V#   ADDR   op code     instruction addr   Interrupt"
 5058      2041 4444 
 5058      5220 2020 
 5058      6F70 2063 
 5058      6F64 6520 
 5059               	.global	gTextMsg_noVector
 5062               	gTextMsg_noVector:
 5063 0120 6E6F 2076 		.string	"no vector"
 5063      6563 746F 
 5063      7200 
 5064               	.global	gTextMsg_rjmp
 5067               	gTextMsg_rjmp:
 5068 012a 726A 6D70 		.string	"rjmp  "
 5068      2020 00
 5069               	.global	gTextMsg_jmp
 5072               	gTextMsg_jmp:
 5073 0131 6A6D 7020 		.string	"jmp "
 5073      00
 5074               	.global	gTextMsg_WHAT_PORT
 5077               	gTextMsg_WHAT_PORT:
 5078 0136 5768 6174 		.string	"What port:"
 5078      2070 6F72 
 5078      743A 00
 5079               	.global	gTextMsg_PortNotSupported
 5082               	gTextMsg_PortNotSupported:
 5083 0141 506F 7274 		.string	"Port not supported"
 5083      206E 6F74 
 5083      2073 7570 
 5083      706F 7274 
 5083      6564 00
 5084               	.global	gTextMsg_MustBeLetter
 5087               	gTextMsg_MustBeLetter:
 5088 0154 4D75 7374 		.string	"Must be a letter"
 5088      2062 6520 
 5088      6120 6C65 
 5088      7474 6572 
 5088      00
 5089               	.global	gTextMsg_SPACE
 5092               	gTextMsg_SPACE:
 5093 0165 2000      		.string	" "
 5094               	.global	gTextMsg_WriteToEEprom
 5097               	gTextMsg_WriteToEEprom:
 5098 0167 5772 6974 		.string	"Writting EE"
 5098      7469 6E67 
 5098      2045 4500 
 5099               	.global	gTextMsg_ReadingEEprom
 5102               	gTextMsg_ReadingEEprom:
 5103 0173 5265 6164 		.string	"Reading EE"
 5103      696E 6720 
 5103      4545 00
 5104               	.global	gTextMsg_EEPROMerrorCnt
 5107               	gTextMsg_EEPROMerrorCnt:
 5108 017e 4545 2065 		.string	"EE err cnt="
 5108      7272 2063 
 5108      6E74 3D00 
 5109               	.global	gTextMsg_PORT
 5112               	gTextMsg_PORT:
 5113 018a 504F 5254 		.string	"PORT"
 5113      00
 5114               	.global	gTextMsg_HELP_MSG_0
 5117               	gTextMsg_HELP_MSG_0:
 5118 018f 303D 5A65 		.string	"0=Zero addr"
 5118      726F 2061 
 5118      6464 7200 
 5119               	.global	gTextMsg_HELP_MSG_QM
 5122               	gTextMsg_HELP_MSG_QM:
 5123 019b 3F3D 4350 		.string	"?=CPU stats"
 5123      5520 7374 
 5123      6174 7300 
 5124               	.global	gTextMsg_HELP_MSG_AT
 5127               	gTextMsg_HELP_MSG_AT:
 5128 01a7 403D 4545 		.string	"@=EEPROM test"
 5128      5052 4F4D 
 5128      2074 6573 
 5128      7400 
 5129               	.global	gTextMsg_HELP_MSG_B
 5132               	gTextMsg_HELP_MSG_B:
 5133 01b5 423D 426C 		.string	"B=Blink LED"
 5133      696E 6B20 
 5133      4C45 4400 
 5134               	.global	gTextMsg_HELP_MSG_E
 5137               	gTextMsg_HELP_MSG_E:
 5138 01c1 453D 4475 		.string	"E=Dump EEPROM"
 5138      6D70 2045 
 5138      4550 524F 
 5138      4D00 
 5139               	.global	gTextMsg_HELP_MSG_F
 5142               	gTextMsg_HELP_MSG_F:
 5143 01cf 463D 4475 		.string	"F=Dump FLASH"
 5143      6D70 2046 
 5143      4C41 5348 
 5143      00
 5144               	.global	gTextMsg_HELP_MSG_H
 5147               	gTextMsg_HELP_MSG_H:
 5148 01dc 483D 4865 		.string	"H=Help"
 5148      6C70 00
 5149               	.global	gTextMsg_HELP_MSG_L
 5152               	gTextMsg_HELP_MSG_L:
 5153 01e3 4C3D 4C69 		.string	"L=List I/O Ports"
 5153      7374 2049 
 5153      2F4F 2050 
 5153      6F72 7473 
 5153      00
 5154               	.global	gTextMsg_HELP_MSG_Q
 5157               	gTextMsg_HELP_MSG_Q:
 5158 01f4 513D 5175 		.string	"Q=Quit"
 5158      6974 00
 5159               	.global	gTextMsg_HELP_MSG_R
 5162               	gTextMsg_HELP_MSG_R:
 5163 01fb 523D 4475 		.string	"R=Dump RAM"
 5163      6D70 2052 
 5163      414D 00
 5164               	.global	gTextMsg_HELP_MSG_V
 5167               	gTextMsg_HELP_MSG_V:
 5168 0206 563D 7368 		.string	"V=show interrupt Vectors"
 5168      6F77 2069 
 5168      6E74 6572 
 5168      7275 7074 
 5168      2056 6563 
 5169               	.global	gTextMsg_HELP_MSG_Y
 5172               	gTextMsg_HELP_MSG_Y:
 5173 021f 593D 506F 		.string	"Y=Port blink"
 5173      7274 2062 
 5173      6C69 6E6B 
 5173      00
 5174               	.global	gTextMsg_END
 5177               	gTextMsg_END:
 5178 022c 2A00      		.string	"*"
 5179               		.comm gRamIndex,4,1
 5180               		.comm gFlashIndex,4,1
 5181               		.comm gEepromIndex,4,1
 5294               	.Letext0:
DEFINED SYMBOLS
                            *ABS*:00000000 stk500boot.c
C:\Users\AGARCI~1\AppData\Local\Temp/ccU9n0iZ.s:2      *ABS*:0000003f __SREG__
C:\Users\AGARCI~1\AppData\Local\Temp/ccU9n0iZ.s:3      *ABS*:0000003e __SP_H__
C:\Users\AGARCI~1\AppData\Local\Temp/ccU9n0iZ.s:4      *ABS*:0000003d __SP_L__
C:\Users\AGARCI~1\AppData\Local\Temp/ccU9n0iZ.s:5      *ABS*:00000034 __CCP__
C:\Users\AGARCI~1\AppData\Local\Temp/ccU9n0iZ.s:6      *ABS*:00000000 __tmp_reg__
C:\Users\AGARCI~1\AppData\Local\Temp/ccU9n0iZ.s:7      *ABS*:00000001 __zero_reg__
C:\Users\AGARCI~1\AppData\Local\Temp/ccU9n0iZ.s:19     .init9:00000000 __jumpMain
C:\Users\AGARCI~1\AppData\Local\Temp/ccU9n0iZ.s:27     *ABS*:000021ff __stack
C:\Users\AGARCI~1\AppData\Local\Temp/ccU9n0iZ.s:804    .text:00000378 main
C:\Users\AGARCI~1\AppData\Local\Temp/ccU9n0iZ.s:65     .text:00000000 delay_ms
C:\Users\AGARCI~1\AppData\Local\Temp/ccU9n0iZ.s:110    .text:0000001c init_ports
C:\Users\AGARCI~1\AppData\Local\Temp/ccU9n0iZ.s:145    .text:0000003c PrintFromPROGMEM
C:\Users\AGARCI~1\AppData\Local\Temp/ccU9n0iZ.s:202    .text:00000070 PrintNewLine
C:\Users\AGARCI~1\AppData\Local\Temp/ccU9n0iZ.s:246    .text:000000a2 PrintFromPROGMEMln
C:\Users\AGARCI~1\AppData\Local\Temp/ccU9n0iZ.s:264    .text:000000ac PrintString
C:\Users\AGARCI~1\AppData\Local\Temp/ccU9n0iZ.s:306    .text:000000d2 PrintHexByte
C:\Users\AGARCI~1\AppData\Local\Temp/ccU9n0iZ.s:376    .text:00000120 PrintDecInt
C:\Users\AGARCI~1\AppData\Local\Temp/ccU9n0iZ.s:479    .text:000001ae PrintAvailablePort
C:\Users\AGARCI~1\AppData\Local\Temp/ccU9n0iZ.s:5112   .progmem.data:0000018a gTextMsg_PORT
C:\Users\AGARCI~1\AppData\Local\Temp/ccU9n0iZ.s:518    .text:000001da DumpHex
C:\Users\AGARCI~1\AppData\Local\Temp/ccU9n0iZ.s:4966   .bss:00000000 app_start
                            *COM*:00000004 gRamIndex
                            *COM*:00000004 gFlashIndex
                            *COM*:00000004 gEepromIndex
C:\Users\AGARCI~1\AppData\Local\Temp/ccU9n0iZ.s:4977   .progmem.data:0000000b gTextMsg_Explorer
C:\Users\AGARCI~1\AppData\Local\Temp/ccU9n0iZ.s:4982   .progmem.data:0000002c gTextMsg_Prompt
C:\Users\AGARCI~1\AppData\Local\Temp/ccU9n0iZ.s:5117   .progmem.data:0000018f gTextMsg_HELP_MSG_0
C:\Users\AGARCI~1\AppData\Local\Temp/ccU9n0iZ.s:5122   .progmem.data:0000019b gTextMsg_HELP_MSG_QM
C:\Users\AGARCI~1\AppData\Local\Temp/ccU9n0iZ.s:4992   .progmem.data:0000003d gTextMsg_COMPILED_ON
C:\Users\AGARCI~1\AppData\Local\Temp/ccU9n0iZ.s:5042   .progmem.data:000000d3 gTextMsg_GCC_DATE_STR
C:\Users\AGARCI~1\AppData\Local\Temp/ccU9n0iZ.s:4997   .progmem.data:0000004c gTextMsg_CPU_Type
C:\Users\AGARCI~1\AppData\Local\Temp/ccU9n0iZ.s:4972   .progmem.data:00000000 gTextMsg_CPU_Name
C:\Users\AGARCI~1\AppData\Local\Temp/ccU9n0iZ.s:5002   .progmem.data:0000005b gTextMsg_AVR_ARCH
C:\Users\AGARCI~1\AppData\Local\Temp/ccU9n0iZ.s:5012   .progmem.data:00000079 gTextMsg_GCC_VERSION
C:\Users\AGARCI~1\AppData\Local\Temp/ccU9n0iZ.s:5052   .progmem.data:000000e5 gTextMsg_GCC_VERSION_STR
C:\Users\AGARCI~1\AppData\Local\Temp/ccU9n0iZ.s:5007   .progmem.data:0000006a gTextMsg_AVR_LIBC
C:\Users\AGARCI~1\AppData\Local\Temp/ccU9n0iZ.s:5047   .progmem.data:000000df gTextMsg_AVR_LIBC_VER_STR
C:\Users\AGARCI~1\AppData\Local\Temp/ccU9n0iZ.s:5017   .progmem.data:00000088 gTextMsg_CPU_SIGNATURE
C:\Users\AGARCI~1\AppData\Local\Temp/ccU9n0iZ.s:5022   .progmem.data:00000097 gTextMsg_FUSE_BYTE_LOW
C:\Users\AGARCI~1\AppData\Local\Temp/ccU9n0iZ.s:5027   .progmem.data:000000a6 gTextMsg_FUSE_BYTE_HIGH
C:\Users\AGARCI~1\AppData\Local\Temp/ccU9n0iZ.s:5032   .progmem.data:000000b5 gTextMsg_FUSE_BYTE_EXT
C:\Users\AGARCI~1\AppData\Local\Temp/ccU9n0iZ.s:5037   .progmem.data:000000c4 gTextMsg_FUSE_BYTE_LOCK
C:\Users\AGARCI~1\AppData\Local\Temp/ccU9n0iZ.s:5127   .progmem.data:000001a7 gTextMsg_HELP_MSG_AT
C:\Users\AGARCI~1\AppData\Local\Temp/ccU9n0iZ.s:5097   .progmem.data:00000167 gTextMsg_WriteToEEprom
C:\Users\AGARCI~1\AppData\Local\Temp/ccU9n0iZ.s:5092   .progmem.data:00000165 gTextMsg_SPACE
C:\Users\AGARCI~1\AppData\Local\Temp/ccU9n0iZ.s:5102   .progmem.data:00000173 gTextMsg_ReadingEEprom
C:\Users\AGARCI~1\AppData\Local\Temp/ccU9n0iZ.s:5107   .progmem.data:0000017e gTextMsg_EEPROMerrorCnt
C:\Users\AGARCI~1\AppData\Local\Temp/ccU9n0iZ.s:5132   .progmem.data:000001b5 gTextMsg_HELP_MSG_B
C:\Users\AGARCI~1\AppData\Local\Temp/ccU9n0iZ.s:5137   .progmem.data:000001c1 gTextMsg_HELP_MSG_E
C:\Users\AGARCI~1\AppData\Local\Temp/ccU9n0iZ.s:5142   .progmem.data:000001cf gTextMsg_HELP_MSG_F
C:\Users\AGARCI~1\AppData\Local\Temp/ccU9n0iZ.s:5147   .progmem.data:000001dc gTextMsg_HELP_MSG_H
C:\Users\AGARCI~1\AppData\Local\Temp/ccU9n0iZ.s:5152   .progmem.data:000001e3 gTextMsg_HELP_MSG_L
C:\Users\AGARCI~1\AppData\Local\Temp/ccU9n0iZ.s:5157   .progmem.data:000001f4 gTextMsg_HELP_MSG_Q
C:\Users\AGARCI~1\AppData\Local\Temp/ccU9n0iZ.s:5162   .progmem.data:000001fb gTextMsg_HELP_MSG_R
C:\Users\AGARCI~1\AppData\Local\Temp/ccU9n0iZ.s:5167   .progmem.data:00000206 gTextMsg_HELP_MSG_V
C:\Users\AGARCI~1\AppData\Local\Temp/ccU9n0iZ.s:5172   .progmem.data:0000021f gTextMsg_HELP_MSG_Y
C:\Users\AGARCI~1\AppData\Local\Temp/ccU9n0iZ.s:5057   .progmem.data:000000eb gTextMsg_VECTOR_HEADER
C:\Users\AGARCI~1\AppData\Local\Temp/ccU9n0iZ.s:5062   .progmem.data:00000120 gTextMsg_noVector
C:\Users\AGARCI~1\AppData\Local\Temp/ccU9n0iZ.s:5067   .progmem.data:0000012a gTextMsg_rjmp
C:\Users\AGARCI~1\AppData\Local\Temp/ccU9n0iZ.s:5072   .progmem.data:00000131 gTextMsg_jmp
C:\Users\AGARCI~1\AppData\Local\Temp/ccU9n0iZ.s:5077   .progmem.data:00000136 gTextMsg_WHAT_PORT
C:\Users\AGARCI~1\AppData\Local\Temp/ccU9n0iZ.s:5082   .progmem.data:00000141 gTextMsg_PortNotSupported
C:\Users\AGARCI~1\AppData\Local\Temp/ccU9n0iZ.s:5087   .progmem.data:00000154 gTextMsg_MustBeLetter
C:\Users\AGARCI~1\AppData\Local\Temp/ccU9n0iZ.s:4987   .progmem.data:00000038 gTextMsg_HUH
C:\Users\AGARCI~1\AppData\Local\Temp/ccU9n0iZ.s:5177   .progmem.data:0000022c gTextMsg_END

UNDEFINED SYMBOLS
__divmodhi4
__eerd_byte_m2560
__udivmodsi4
__eewr_byte_m2560
__do_clear_bss
