   1               		.file	"stk500boot.c"
   2               	__SREG__ = 0x3f
   3               	__SP_H__ = 0x3e
   4               	__SP_L__ = 0x3d
   5               	__CCP__  = 0x34
   6               	__tmp_reg__ = 0
   7               	__zero_reg__ = 1
  15               	.Ltext0:
  16               		.section	.init9,"ax",@progbits
  17               	.global	__jumpMain
  19               	__jumpMain:
  20               	.LFB6:
  21               	.LSM0:
  22               	/* prologue: naked */
  23               	/* frame size = 0 */
  24               	.LSM1:
  25               	/* #APP */
  26               	 ;  439 "stk500boot.c" 1
  27               		.set __stack, 8703
  28               	 ;  0 "" 2
  29               	.LSM2:
  30               	 ;  443 "stk500boot.c" 1
  31 0000 01E2      		ldi	16, 33
  32               	 ;  0 "" 2
  33               	.LSM3:
  34               	 ;  444 "stk500boot.c" 1
  35 0002 0EBF      		out 62,16
  36               	 ;  0 "" 2
  37               	.LSM4:
  38               	 ;  446 "stk500boot.c" 1
  39 0004 0FEF      		ldi	16, 255
  40               	 ;  0 "" 2
  41               	.LSM5:
  42               	 ;  447 "stk500boot.c" 1
  43 0006 0DBF      		out 61,16
  44               	 ;  0 "" 2
  45               	.LSM6:
  46               	 ;  449 "stk500boot.c" 1
  47 0008 1124      		clr __zero_reg__
  48               	 ;  0 "" 2
  49               	.LSM7:
  50               	 ;  450 "stk500boot.c" 1
  51 000a 1FBE      		out 63, __zero_reg__
  52               	 ;  0 "" 2
  53               	.LSM8:
  54               	 ;  451 "stk500boot.c" 1
  55 000c 0C94 0000 		jmp main
  56               	 ;  0 "" 2
  57               	/* epilogue start */
  58               	.LSM9:
  59               	/* #NOAPP */
  60               	.LFE6:
  62               		.text
  63               	.global	delay_ms
  65               	delay_ms:
  66               	.LFB7:
  67               	.LM1:
  68               	.LVL0:
  69               	/* prologue: function */
  70               	/* frame size = 0 */
  71               	.LM2:
  72 0000 20E0      		ldi r18,lo8(0)
  73 0002 30E0      		ldi r19,hi8(0)
  74               	.LVL1:
  75               	.LBB286:
  76               	.LBB287:
  77               	.LBB288:
  78               	.LBB289:
  79               	.LM3:
  80 0004 40ED      		ldi r20,lo8(2000)
  81 0006 57E0      		ldi r21,hi8(2000)
  82 0008 00C0      		rjmp .L4
  83               	.LVL2:
  84               	.L5:
  85 000a FA01      		movw r30,r20
  86               	/* #APP */
  87               	 ;  105 "c:/winavr-20100110/lib/gcc/../../avr/include/util/delay_basic.h" 1
  88 000c 3197      		1: sbiw r30,1
  89 000e 01F4      		brne 1b
  90               	 ;  0 "" 2
  91               	/* #NOAPP */
  92               	.LBE289:
  93               	.LBE288:
  94               	.LBE287:
  95               	.LBE286:
  96               	.LM4:
  97 0010 2F5F      		subi r18,lo8(-(1))
  98 0012 3F4F      		sbci r19,hi8(-(1))
  99               	.L4:
 100 0014 2817      		cp r18,r24
 101 0016 3907      		cpc r19,r25
 102 0018 00F0      		brlo .L5
 103               	/* epilogue start */
 104               	.LM5:
 105 001a 0895      		ret
 106               	.LFE7:
 108               	.global	init_ports
 110               	init_ports:
 111               	.LFB12:
 112               	.LM6:
 113               	/* prologue: function */
 114               	/* frame size = 0 */
 115               	.LM7:
 116 001c 90E1      		ldi r25,lo8(16)
 117 001e 9093 0501 		sts 261,r25
 118               	.LM8:
 119 0022 88E3      		ldi r24,lo8(56)
 120 0024 8093 0401 		sts 260,r24
 121               	.LM9:
 122 0028 9EB9      		out 46-32,r25
 123               	.LM10:
 124 002a 8DB9      		out 45-32,r24
 125               	.LM11:
 126 002c 80E4      		ldi r24,lo8(64)
 127 002e 88B9      		out 40-32,r24
 128               	.LM12:
 129 0030 80EE      		ldi r24,lo8(-32)
 130 0032 87B9      		out 39-32,r24
 131               	.LM13:
 132 0034 84E4      		ldi r24,lo8(68)
 133 0036 82B9      		out 34-32,r24
 134               	.LM14:
 135 0038 8EEE      		ldi r24,lo8(-18)
 136 003a 81B9      		out 33-32,r24
 137               	.LM15:
 138 003c 84E0      		ldi r24,lo8(4)
 139 003e 81BB      		out 49-32,r24
 140               	.LM16:
 141 0040 8EE0      		ldi r24,lo8(14)
 142 0042 80BB      		out 48-32,r24
 143               	.LM17:
 144 0044 15B8      		out 37-32,__zero_reg__
 145               	.LM18:
 146 0046 94B9      		out 36-32,r25
 147               	/* epilogue start */
 148               	.LM19:
 149 0048 0895      		ret
 150               	.LFE12:
 152               	.global	PrintFromPROGMEM
 154               	PrintFromPROGMEM:
 155               	.LFB16:
 156               	.LM20:
 157               	.LVL3:
 158               	/* prologue: function */
 159               	/* frame size = 0 */
 160               	.LM21:
 161 004a 9C01      		movw r18,r24
 162 004c 260F      		add r18,r22
 163 004e 311D      		adc r19,__zero_reg__
 164               	.LVL4:
 165               	.L12:
 166               	.LBB290:
 167               	.LM22:
 168 0050 C901      		movw r24,r18
 169               	.LVL5:
 170 0052 A0E0      		ldi r26,lo8(0)
 171 0054 B0E0      		ldi r27,hi8(0)
 172 0056 2F5F      		subi r18,lo8(-(1))
 173 0058 3F4F      		sbci r19,hi8(-(1))
 174               	/* #APP */
 175               	 ;  1323 "stk500boot.c" 1
 176 005a ABBF      		out 59, r26
 177 005c FC01      		movw r30, r24
 178 005e 8791      		elpm r24, Z+
 179               		
 180               	 ;  0 "" 2
 181               	.LVL6:
 182               	/* #NOAPP */
 183               	.LBE290:
 184               	.LM23:
 185 0060 8823      		tst r24
 186 0062 01F0      		breq .L13
 187               	.LBB291:
 188               	.LBB292:
 189               	.LM24:
 190 0064 8093 C600 		sts 198,r24
 191               	.L11:
 192               	.LM25:
 193 0068 8091 C000 		lds r24,192
 194               	.LVL7:
 195 006c 86FF      		sbrs r24,6
 196 006e 00C0      		rjmp .L11
 197               	.LM26:
 198 0070 8091 C000 		lds r24,192
 199 0074 8064      		ori r24,lo8(64)
 200 0076 8093 C000 		sts 192,r24
 201 007a 00C0      		rjmp .L12
 202               	.LVL8:
 203               	.L13:
 204 007c 0895      		ret
 205               	.LBE292:
 206               	.LBE291:
 207               	.LFE16:
 209               	.global	PrintNewLine
 211               	PrintNewLine:
 212               	.LFB17:
 213               	.LM27:
 214               	/* prologue: function */
 215               	/* frame size = 0 */
 216               	.LBB293:
 217               	.LBB294:
 218               	.LM28:
 219 007e 8DE0      		ldi r24,lo8(13)
 220 0080 8093 C600 		sts 198,r24
 221               	.L16:
 222               	.LM29:
 223 0084 8091 C000 		lds r24,192
 224 0088 86FF      		sbrs r24,6
 225 008a 00C0      		rjmp .L16
 226               	.LM30:
 227 008c 8091 C000 		lds r24,192
 228 0090 8064      		ori r24,lo8(64)
 229 0092 8093 C000 		sts 192,r24
 230               	.LBE294:
 231               	.LBE293:
 232               	.LBB295:
 233               	.LBB296:
 234               	.LM31:
 235 0096 8AE0      		ldi r24,lo8(10)
 236 0098 8093 C600 		sts 198,r24
 237               	.L17:
 238               	.LM32:
 239 009c 8091 C000 		lds r24,192
 240 00a0 86FF      		sbrs r24,6
 241 00a2 00C0      		rjmp .L17
 242               	.LM33:
 243 00a4 8091 C000 		lds r24,192
 244 00a8 8064      		ori r24,lo8(64)
 245 00aa 8093 C000 		sts 192,r24
 246               	/* epilogue start */
 247               	.LBE296:
 248               	.LBE295:
 249               	.LM34:
 250 00ae 0895      		ret
 251               	.LFE17:
 253               	.global	PrintFromPROGMEMln
 255               	PrintFromPROGMEMln:
 256               	.LFB18:
 257               	.LM35:
 258               	.LVL9:
 259               	/* prologue: function */
 260               	/* frame size = 0 */
 261               	.LM36:
 262 00b0 0E94 0000 		call PrintFromPROGMEM
 263               	.LVL10:
 264               	.LM37:
 265 00b4 0E94 0000 		call PrintNewLine
 266               	/* epilogue start */
 267               	.LM38:
 268 00b8 0895      		ret
 269               	.LFE18:
 271               	.global	PrintString
 273               	PrintString:
 274               	.LFB19:
 275               	.LM39:
 276               	.LVL11:
 277               	/* prologue: function */
 278               	/* frame size = 0 */
 279               	.LM40:
 280 00ba FC01      		movw r30,r24
 281               	.LVL12:
 282               	.L26:
 283               	.LM41:
 284 00bc 9081      		ld r25,Z
 285               	.LM42:
 286 00be 9923      		tst r25
 287 00c0 01F0      		breq .L24
 288               	.LBB297:
 289               	.LBB298:
 290               	.LM43:
 291 00c2 9093 C600 		sts 198,r25
 292               	.L25:
 293               	.LM44:
 294 00c6 8091 C000 		lds r24,192
 295 00ca 86FF      		sbrs r24,6
 296 00cc 00C0      		rjmp .L25
 297               	.LM45:
 298 00ce 8091 C000 		lds r24,192
 299 00d2 8064      		ori r24,lo8(64)
 300 00d4 8093 C000 		sts 192,r24
 301               	.L24:
 302 00d8 3196      		adiw r30,1
 303               	.LBE298:
 304               	.LBE297:
 305               	.LM46:
 306 00da 9923      		tst r25
 307 00dc 01F4      		brne .L26
 308               	/* epilogue start */
 309               	.LM47:
 310 00de 0895      		ret
 311               	.LFE19:
 313               	.global	PrintHexByte
 315               	PrintHexByte:
 316               	.LFB20:
 317               	.LM48:
 318               	.LVL13:
 319               	/* prologue: function */
 320               	/* frame size = 0 */
 321 00e0 282F      		mov r18,r24
 322               	.LM49:
 323 00e2 982F      		mov r25,r24
 324 00e4 9295      		swap r25
 325 00e6 9F70      		andi r25,lo8(15)
 326 00e8 892F      		mov r24,r25
 327               	.LVL14:
 328 00ea 805D      		subi r24,lo8(-(48))
 329               	.LM50:
 330 00ec 8A33      		cpi r24,lo8(58)
 331 00ee 00F0      		brlo .L31
 332               	.LM51:
 333 00f0 895F      		subi r24,lo8(-(7))
 334               	.L31:
 335               	.LBB299:
 336               	.LBB300:
 337               	.LM52:
 338 00f2 8093 C600 		sts 198,r24
 339               	.L32:
 340               	.LM53:
 341 00f6 8091 C000 		lds r24,192
 342               	.LVL15:
 343 00fa 86FF      		sbrs r24,6
 344 00fc 00C0      		rjmp .L32
 345               	.LM54:
 346 00fe 8091 C000 		lds r24,192
 347 0102 8064      		ori r24,lo8(64)
 348 0104 8093 C000 		sts 192,r24
 349               	.LBE300:
 350               	.LBE299:
 351               	.LM55:
 352 0108 822F      		mov r24,r18
 353 010a 8F70      		andi r24,lo8(15)
 354 010c 982F      		mov r25,r24
 355               	.LVL16:
 356 010e 905D      		subi r25,lo8(-(48))
 357               	.LM56:
 358 0110 9A33      		cpi r25,lo8(58)
 359 0112 00F0      		brlo .L33
 360               	.LM57:
 361 0114 995F      		subi r25,lo8(-(7))
 362               	.L33:
 363               	.LBB301:
 364               	.LBB302:
 365               	.LM58:
 366 0116 9093 C600 		sts 198,r25
 367               	.L34:
 368               	.LM59:
 369 011a 8091 C000 		lds r24,192
 370 011e 86FF      		sbrs r24,6
 371 0120 00C0      		rjmp .L34
 372               	.LM60:
 373 0122 8091 C000 		lds r24,192
 374 0126 8064      		ori r24,lo8(64)
 375 0128 8093 C000 		sts 192,r24
 376               	/* epilogue start */
 377               	.LBE302:
 378               	.LBE301:
 379               	.LM61:
 380 012c 0895      		ret
 381               	.LFE20:
 383               	.global	PrintDecInt
 385               	PrintDecInt:
 386               	.LFB21:
 387               	.LM62:
 388               	.LVL17:
 389               	/* prologue: function */
 390               	/* frame size = 0 */
 391 012e 9C01      		movw r18,r24
 392 0130 FB01      		movw r30,r22
 393               	.LM63:
 394 0132 8536      		cpi r24,101
 395 0134 9105      		cpc r25,__zero_reg__
 396 0136 04F4      		brge .L39
 397               	.LVL18:
 398 0138 6330      		cpi r22,3
 399 013a 7105      		cpc r23,__zero_reg__
 400 013c 04F0      		brlt .L40
 401               	.L39:
 402               	.LM64:
 403 013e C901      		movw r24,r18
 404               	.LVL19:
 405 0140 64E6      		ldi r22,lo8(100)
 406 0142 70E0      		ldi r23,hi8(100)
 407 0144 0E94 0000 		call __divmodhi4
 408 0148 605D      		subi r22,lo8(-(48))
 409 014a 7F4F      		sbci r23,hi8(-(48))
 410               	.LBB303:
 411               	.LBB304:
 412               	.LM65:
 413 014c 6093 C600 		sts 198,r22
 414               	.L41:
 415               	.LM66:
 416 0150 8091 C000 		lds r24,192
 417 0154 86FF      		sbrs r24,6
 418 0156 00C0      		rjmp .L41
 419               	.LM67:
 420 0158 8091 C000 		lds r24,192
 421 015c 8064      		ori r24,lo8(64)
 422 015e 8093 C000 		sts 192,r24
 423               	.LVL20:
 424               	.L40:
 425               	.LBE304:
 426               	.LBE303:
 427               	.LM68:
 428 0162 2B30      		cpi r18,11
 429 0164 3105      		cpc r19,__zero_reg__
 430 0166 04F4      		brge .L42
 431 0168 3297      		sbiw r30,2
 432 016a 04F0      		brlt .L43
 433               	.L42:
 434               	.LM69:
 435 016c C901      		movw r24,r18
 436 016e 64E6      		ldi r22,lo8(100)
 437 0170 70E0      		ldi r23,hi8(100)
 438 0172 0E94 0000 		call __divmodhi4
 439 0176 6AE0      		ldi r22,lo8(10)
 440 0178 70E0      		ldi r23,hi8(10)
 441 017a 0E94 0000 		call __divmodhi4
 442 017e 605D      		subi r22,lo8(-(48))
 443 0180 7F4F      		sbci r23,hi8(-(48))
 444               	.LBB305:
 445               	.LBB306:
 446               	.LM70:
 447 0182 6093 C600 		sts 198,r22
 448               	.L44:
 449               	.LM71:
 450 0186 8091 C000 		lds r24,192
 451 018a 86FF      		sbrs r24,6
 452 018c 00C0      		rjmp .L44
 453               	.LM72:
 454 018e 8091 C000 		lds r24,192
 455 0192 8064      		ori r24,lo8(64)
 456 0194 8093 C000 		sts 192,r24
 457               	.LVL21:
 458               	.L43:
 459               	.LBE306:
 460               	.LBE305:
 461               	.LM73:
 462 0198 C901      		movw r24,r18
 463 019a 6AE0      		ldi r22,lo8(10)
 464 019c 70E0      		ldi r23,hi8(10)
 465 019e 0E94 0000 		call __divmodhi4
 466 01a2 C096      		adiw r24,48
 467               	.LBB307:
 468               	.LBB308:
 469               	.LM74:
 470 01a4 8093 C600 		sts 198,r24
 471               	.L45:
 472               	.LM75:
 473 01a8 8091 C000 		lds r24,192
 474 01ac 86FF      		sbrs r24,6
 475 01ae 00C0      		rjmp .L45
 476               	.LM76:
 477 01b0 8091 C000 		lds r24,192
 478 01b4 8064      		ori r24,lo8(64)
 479 01b6 8093 C000 		sts 192,r24
 480               	/* epilogue start */
 481               	.LBE308:
 482               	.LBE307:
 483               	.LM77:
 484 01ba 0895      		ret
 485               	.LFE21:
 488               	PrintAvailablePort:
 489               	.LFB27:
 490               	.LM78:
 491               	.LVL22:
 492 01bc 1F93      		push r17
 493               	/* prologue: function */
 494               	/* frame size = 0 */
 495 01be 182F      		mov r17,r24
 496               	.LM79:
 497 01c0 80E0      		ldi r24,lo8(gTextMsg_PORT)
 498 01c2 90E0      		ldi r25,hi8(gTextMsg_PORT)
 499               	.LVL23:
 500 01c4 60E0      		ldi r22,lo8(0)
 501 01c6 0E94 0000 		call PrintFromPROGMEM
 502               	.LBB309:
 503               	.LBB310:
 504               	.LM80:
 505 01ca 1093 C600 		sts 198,r17
 506               	.L51:
 507               	.LM81:
 508 01ce 8091 C000 		lds r24,192
 509 01d2 86FF      		sbrs r24,6
 510 01d4 00C0      		rjmp .L51
 511               	.LM82:
 512 01d6 8091 C000 		lds r24,192
 513 01da 8064      		ori r24,lo8(64)
 514 01dc 8093 C000 		sts 192,r24
 515               	.LBE310:
 516               	.LBE309:
 517               	.LM83:
 518 01e0 0E94 0000 		call PrintNewLine
 519               	/* epilogue start */
 520               	.LM84:
 521 01e4 1F91      		pop r17
 522               	.LVL24:
 523 01e6 0895      		ret
 524               	.LFE27:
 527               	DumpHex:
 528               	.LFB24:
 529               	.LM85:
 530               	.LVL25:
 531 01e8 2F92      		push r2
 532 01ea 3F92      		push r3
 533 01ec 4F92      		push r4
 534 01ee 5F92      		push r5
 535 01f0 6F92      		push r6
 536 01f2 7F92      		push r7
 537 01f4 8F92      		push r8
 538 01f6 9F92      		push r9
 539 01f8 AF92      		push r10
 540 01fa BF92      		push r11
 541 01fc CF92      		push r12
 542 01fe DF92      		push r13
 543 0200 EF92      		push r14
 544 0202 FF92      		push r15
 545 0204 0F93      		push r16
 546 0206 1F93      		push r17
 547 0208 DF93      		push r29
 548 020a CF93      		push r28
 549 020c CDB7      		in r28,__SP_L__
 550 020e DEB7      		in r29,__SP_H__
 551 0210 6297      		sbiw r28,18
 552 0212 0FB6      		in __tmp_reg__,__SREG__
 553 0214 F894      		cli
 554 0216 DEBF      		out __SP_H__,r29
 555 0218 0FBE      		out __SREG__,__tmp_reg__
 556 021a CDBF      		out __SP_L__,r28
 557               	/* prologue: function */
 558               	/* frame size = 18 */
 559 021c 382E      		mov r3,r24
 560 021e 622E      		mov r6,r18
 561               	.LM86:
 562 0220 CA01      		movw r24,r20
 563               	.LVL26:
 564 0222 DB01      		movw r26,r22
 565 0224 5C01      		movw r10,r24
 566 0226 6D01      		movw r12,r26
 567               	.LVL27:
 568 0228 7724      		clr r7
 569               	.LVL28:
 570               	.LBB311:
 571               	.LBB312:
 572               	.LM87:
 573 022a 20E2      		ldi r18,lo8(32)
 574 022c 222E      		mov r2,r18
 575               	.LVL29:
 576 022e 2E01      		movw r4,r28
 577 0230 0894      		sec
 578 0232 411C      		adc r4,__zero_reg__
 579 0234 511C      		adc r5,__zero_reg__
 580 0236 00C0      		rjmp .L55
 581               	.LVL30:
 582               	.L68:
 583               	.LBE312:
 584               	.LBE311:
 585               	.LM88:
 586 0238 81E0      		ldi r24,lo8(65537)
 587 023a A816      		cp r10,r24
 588 023c 80E0      		ldi r24,hi8(65537)
 589 023e B806      		cpc r11,r24
 590 0240 81E0      		ldi r24,hlo8(65537)
 591 0242 C806      		cpc r12,r24
 592 0244 80E0      		ldi r24,hhi8(65537)
 593 0246 D806      		cpc r13,r24
 594 0248 00F0      		brlo .L56
 595               	.LM89:
 596 024a C601      		movw r24,r12
 597 024c AA27      		clr r26
 598 024e BB27      		clr r27
 599 0250 0E94 0000 		call PrintHexByte
 600               	.L56:
 601               	.LM90:
 602 0254 BB27      		clr r27
 603 0256 AD2D      		mov r26,r13
 604 0258 9C2D      		mov r25,r12
 605 025a 8B2D      		mov r24,r11
 606 025c 0E94 0000 		call PrintHexByte
 607               	.LM91:
 608 0260 8A2D      		mov r24,r10
 609 0262 0E94 0000 		call PrintHexByte
 610               	.LBB314:
 611               	.LBB313:
 612               	.LM92:
 613 0266 2092 C600 		sts 198,r2
 614               	.L57:
 615               	.LM93:
 616 026a 8091 C000 		lds r24,192
 617 026e 86FF      		sbrs r24,6
 618 0270 00C0      		rjmp .L57
 619               	.LM94:
 620 0272 8091 C000 		lds r24,192
 621 0276 8064      		ori r24,lo8(64)
 622 0278 8093 C000 		sts 192,r24
 623               	.LBE313:
 624               	.LBE314:
 625               	.LBB315:
 626               	.LBB316:
 627               	.LM95:
 628 027c 9DE2      		ldi r25,lo8(45)
 629 027e 9093 C600 		sts 198,r25
 630               	.L58:
 631               	.LM96:
 632 0282 8091 C000 		lds r24,192
 633 0286 86FF      		sbrs r24,6
 634 0288 00C0      		rjmp .L58
 635               	.LM97:
 636 028a 8091 C000 		lds r24,192
 637 028e 8064      		ori r24,lo8(64)
 638 0290 8093 C000 		sts 192,r24
 639               	.LBE316:
 640               	.LBE315:
 641               	.LBB317:
 642               	.LBB318:
 643               	.LM98:
 644 0294 2092 C600 		sts 198,r2
 645               	.L59:
 646               	.LM99:
 647 0298 8091 C000 		lds r24,192
 648 029c 86FF      		sbrs r24,6
 649 029e 00C0      		rjmp .L59
 650               	.LM100:
 651 02a0 8091 C000 		lds r24,192
 652 02a4 8064      		ori r24,lo8(64)
 653 02a6 8093 C000 		sts 192,r24
 654               	.LBE318:
 655               	.LBE317:
 656               	.LM101:
 657 02aa 1982      		std Y+1,__zero_reg__
 658 02ac 8601      		movw r16,r12
 659 02ae 7501      		movw r14,r10
 660 02b0 8824      		clr r8
 661 02b2 9924      		clr r9
 662               	.LVL31:
 663               	.L67:
 664               	.LM102:
 665 02b4 A1E0      		ldi r26,lo8(1)
 666 02b6 3A16      		cp r3,r26
 667 02b8 01F0      		breq .L62
 668 02ba 3A16      		cp r3,r26
 669 02bc 00F0      		brlo .L61
 670 02be B2E0      		ldi r27,lo8(2)
 671 02c0 3B16      		cp r3,r27
 672 02c2 01F4      		brne .L60
 673 02c4 00C0      		rjmp .L75
 674               	.L61:
 675               	.LBB319:
 676               	.LM103:
 677               	/* #APP */
 678               	 ;  1532 "stk500boot.c" 1
 679 02c6 0BBF      		out 59, r16
 680 02c8 F701      		movw r30, r14
 681 02ca 7790      		elpm r7, Z+
 682               		
 683               	 ;  0 "" 2
 684               	/* #NOAPP */
 685 02cc 00C0      		rjmp .L60
 686               	.L62:
 687               	.LBE319:
 688               	.LM104:
 689 02ce C701      		movw r24,r14
 690 02d0 0E94 0000 		call __eerd_byte_m2560
 691 02d4 782E      		mov r7,r24
 692 02d6 00C0      		rjmp .L60
 693               	.L75:
 694               	.LM105:
 695 02d8 F701      		movw r30,r14
 696               	.LVL32:
 697 02da 7080      		ld r7,Z
 698               	.LVL33:
 699               	.L60:
 700               	.LM106:
 701 02dc 872D      		mov r24,r7
 702 02de 0E94 0000 		call PrintHexByte
 703               	.LBB320:
 704               	.LBB321:
 705               	.LM107:
 706 02e2 2092 C600 		sts 198,r2
 707               	.L64:
 708               	.LM108:
 709 02e6 8091 C000 		lds r24,192
 710 02ea 86FF      		sbrs r24,6
 711 02ec 00C0      		rjmp .L64
 712               	.LM109:
 713 02ee 8091 C000 		lds r24,192
 714 02f2 8064      		ori r24,lo8(64)
 715 02f4 8093 C000 		sts 192,r24
 716               	.LBE321:
 717               	.LBE320:
 718               	.LM110:
 719 02f8 872D      		mov r24,r7
 720 02fa 8052      		subi r24,lo8(-(-32))
 721 02fc F401      		movw r30,r8
 722 02fe EF70      		andi r30,lo8(15)
 723 0300 F070      		andi r31,hi8(15)
 724 0302 8F35      		cpi r24,lo8(95)
 725 0304 00F4      		brsh .L65
 726               	.LM111:
 727 0306 E40D      		add r30,r4
 728 0308 F51D      		adc r31,r5
 729 030a 7082      		st Z,r7
 730 030c 00C0      		rjmp .L66
 731               	.L65:
 732               	.LM112:
 733 030e E40D      		add r30,r4
 734 0310 F51D      		adc r31,r5
 735 0312 8EE2      		ldi r24,lo8(46)
 736 0314 8083      		st Z,r24
 737               	.L66:
 738               	.LM113:
 739 0316 0894      		sec
 740 0318 E11C      		adc r14,__zero_reg__
 741 031a F11C      		adc r15,__zero_reg__
 742 031c 011D      		adc r16,__zero_reg__
 743 031e 111D      		adc r17,__zero_reg__
 744               	.LVL34:
 745 0320 0894      		sec
 746 0322 811C      		adc r8,__zero_reg__
 747 0324 911C      		adc r9,__zero_reg__
 748               	.LM114:
 749 0326 90E1      		ldi r25,lo8(16)
 750 0328 8916      		cp r8,r25
 751 032a 9104      		cpc r9,__zero_reg__
 752 032c 01F0      		breq .+2
 753 032e 00C0      		rjmp .L67
 754 0330 80E1      		ldi r24,lo8(16)
 755 0332 90E0      		ldi r25,hi8(16)
 756 0334 A0E0      		ldi r26,hlo8(16)
 757 0336 B0E0      		ldi r27,hhi8(16)
 758 0338 A80E      		add r10,r24
 759 033a B91E      		adc r11,r25
 760 033c CA1E      		adc r12,r26
 761 033e DB1E      		adc r13,r27
 762               	.LVL35:
 763               	.LM115:
 764 0340 198A      		std Y+17,__zero_reg__
 765               	.LM116:
 766 0342 C201      		movw r24,r4
 767 0344 0E94 0000 		call PrintString
 768               	.LM117:
 769 0348 0E94 0000 		call PrintNewLine
 770               	.LM118:
 771 034c 6A94      		dec r6
 772               	.LVL36:
 773               	.L55:
 774               	.LM119:
 775 034e 6620      		tst r6
 776 0350 01F0      		breq .+2
 777 0352 00C0      		rjmp .L68
 778               	/* epilogue start */
 779               	.LM120:
 780 0354 6296      		adiw r28,18
 781 0356 0FB6      		in __tmp_reg__,__SREG__
 782 0358 F894      		cli
 783 035a DEBF      		out __SP_H__,r29
 784 035c 0FBE      		out __SREG__,__tmp_reg__
 785 035e CDBF      		out __SP_L__,r28
 786 0360 CF91      		pop r28
 787 0362 DF91      		pop r29
 788 0364 1F91      		pop r17
 789 0366 0F91      		pop r16
 790 0368 FF90      		pop r15
 791 036a EF90      		pop r14
 792 036c DF90      		pop r13
 793 036e CF90      		pop r12
 794 0370 BF90      		pop r11
 795 0372 AF90      		pop r10
 796               	.LVL37:
 797 0374 9F90      		pop r9
 798 0376 8F90      		pop r8
 799 0378 7F90      		pop r7
 800               	.LVL38:
 801 037a 6F90      		pop r6
 802               	.LVL39:
 803 037c 5F90      		pop r5
 804 037e 4F90      		pop r4
 805 0380 3F90      		pop r3
 806               	.LVL40:
 807 0382 2F90      		pop r2
 808 0384 0895      		ret
 809               	.LFE24:
 811               	.global	main
 813               	main:
 814               	.LFB13:
 815               	.LM121:
 816 0386 2F92      		push r2
 817 0388 3F92      		push r3
 818 038a 4F92      		push r4
 819 038c 5F92      		push r5
 820 038e 6F92      		push r6
 821 0390 7F92      		push r7
 822 0392 8F92      		push r8
 823 0394 9F92      		push r9
 824 0396 AF92      		push r10
 825 0398 BF92      		push r11
 826 039a CF92      		push r12
 827 039c DF92      		push r13
 828 039e EF92      		push r14
 829 03a0 FF92      		push r15
 830 03a2 0F93      		push r16
 831 03a4 1F93      		push r17
 832 03a6 DF93      		push r29
 833 03a8 CF93      		push r28
 834 03aa CDB7      		in r28,__SP_L__
 835 03ac DEB7      		in r29,__SP_H__
 836 03ae CD53      		subi r28,lo8(-(-317))
 837 03b0 D140      		sbci r29,hi8(-(-317))
 838 03b2 0FB6      		in __tmp_reg__,__SREG__
 839 03b4 F894      		cli
 840 03b6 DEBF      		out __SP_H__,r29
 841 03b8 0FBE      		out __SREG__,__tmp_reg__
 842 03ba CDBF      		out __SP_L__,r28
 843               	/* prologue: function */
 844               	/* frame size = 317 */
 845               	.LM122:
 846 03bc 0E94 0000 		call init_ports
 847               	.LM123:
 848               	/* #APP */
 849               	 ;  577 "stk500boot.c" 1
 850               		.set __stack, 8703
 851               	 ;  0 "" 2
 852               	.LM124:
 853               	 ;  578 "stk500boot.c" 1
 854 03c0 01E2      		ldi	16, 33
 855               	 ;  0 "" 2
 856               	.LM125:
 857               	 ;  579 "stk500boot.c" 1
 858 03c2 0EBF      		out 62,16
 859               	 ;  0 "" 2
 860               	.LM126:
 861               	 ;  580 "stk500boot.c" 1
 862 03c4 0FEF      		ldi	16, 255
 863               	 ;  0 "" 2
 864               	.LM127:
 865               	 ;  581 "stk500boot.c" 1
 866 03c6 0DBF      		out 61,16
 867               	 ;  0 "" 2
 868               	.LM128:
 869               	/* #NOAPP */
 870 03c8 94B7      		in r25,84-32
 871               	.LVL41:
 872               	.LM129:
 873               	/* #APP */
 874               	 ;  590 "stk500boot.c" 1
 875 03ca F894      		cli
 876               	 ;  0 "" 2
 877               	.LM130:
 878               	 ;  591 "stk500boot.c" 1
 879 03cc A895      		wdr
 880               	 ;  0 "" 2
 881               	.LM131:
 882               	/* #NOAPP */
 883 03ce 14BE      		out 84-32,__zero_reg__
 884               	.LM132:
 885 03d0 8091 6000 		lds r24,96
 886 03d4 8861      		ori r24,lo8(24)
 887 03d6 8093 6000 		sts 96,r24
 888               	.LM133:
 889 03da 1092 6000 		sts 96,__zero_reg__
 890               	.LM134:
 891               	/* #APP */
 892               	 ;  595 "stk500boot.c" 1
 893 03de 7894      		sei
 894               	 ;  0 "" 2
 895               	.LM135:
 896               	/* #NOAPP */
 897 03e0 93FF      		sbrs r25,3
 898 03e2 00C0      		rjmp .L77
 899               	.LM136:
 900 03e4 E091 0000 		lds r30,app_start
 901 03e8 F091 0000 		lds r31,(app_start)+1
 902 03ec 1995      		eicall
 903               	.LVL42:
 904               	.L77:
 905               	.LM137:
 906 03ee 8091 0701 		lds r24,263
 907 03f2 8064      		ori r24,lo8(64)
 908 03f4 8093 0701 		sts 263,r24
 909               	.LM138:
 910 03f8 8091 0801 		lds r24,264
 911 03fc 8064      		ori r24,lo8(64)
 912 03fe 8093 0801 		sts 264,r24
 913               	.LM139:
 914 0402 8091 C000 		lds r24,192
 915 0406 8260      		ori r24,lo8(2)
 916 0408 8093 C000 		sts 192,r24
 917               	.LM140:
 918 040c 80E1      		ldi r24,lo8(16)
 919 040e 8093 C400 		sts 196,r24
 920               	.LM141:
 921 0412 88E1      		ldi r24,lo8(24)
 922 0414 8093 C100 		sts 193,r24
 923               	.LM142:
 924               	/* #APP */
 925               	 ;  646 "stk500boot.c" 1
 926 0418 0000      		nop
 927               	 ;  0 "" 2
 928               	/* #NOAPP */
 929 041a EE24      		clr r14
 930 041c FF24      		clr r15
 931 041e 8701      		movw r16,r14
 932               	.LVL43:
 933               	.LBB561:
 934               	.LBB562:
 935               	.LBB563:
 936               	.LBB564:
 937               	.LM143:
 938 0420 54E0      		ldi r21,lo8(4)
 939 0422 A52E      		mov r10,r21
 940 0424 B12C      		mov r11,__zero_reg__
 941               	.LBE564:
 942               	.LBE563:
 943               	.LBE562:
 944               	.LBE561:
 945               	.LM144:
 946 0426 40E4      		ldi r20,lo8(64)
 947 0428 942E      		mov r9,r20
 948               	.LM145:
 949 042a CC24      		clr r12
 950 042c DD24      		clr r13
 951               	.LVL44:
 952 042e 00C0      		rjmp .L342
 953               	.L82:
 954               	.LBB568:
 955               	.LBB567:
 956               	.LBB566:
 957               	.LBB565:
 958               	.LM146:
 959 0430 C501      		movw r24,r10
 960               	.LVL45:
 961               	/* #APP */
 962               	 ;  105 "c:/winavr-20100110/lib/gcc/../../avr/include/util/delay_basic.h" 1
 963 0432 0197      		1: sbiw r24,1
 964 0434 01F4      		brne 1b
 965               	 ;  0 "" 2
 966               	/* #NOAPP */
 967               	.LBE565:
 968               	.LBE566:
 969               	.LBE567:
 970               	.LBE568:
 971               	.LM147:
 972 0436 0894      		sec
 973 0438 E11C      		adc r14,__zero_reg__
 974 043a F11C      		adc r15,__zero_reg__
 975 043c 011D      		adc r16,__zero_reg__
 976 043e 111D      		adc r17,__zero_reg__
 977 0440 21E2      		ldi r18,lo8(20001)
 978 0442 E216      		cp r14,r18
 979 0444 2EE4      		ldi r18,hi8(20001)
 980 0446 F206      		cpc r15,r18
 981 0448 20E0      		ldi r18,hlo8(20001)
 982 044a 0207      		cpc r16,r18
 983 044c 20E0      		ldi r18,hhi8(20001)
 984 044e 1207      		cpc r17,r18
 985 0450 00F0      		brlo .L79
 986 0452 31E0      		ldi r19,lo8(1)
 987 0454 C32E      		mov r12,r19
 988 0456 D12C      		mov r13,__zero_reg__
 989               	.L79:
 990               	.LM148:
 991 0458 C801      		movw r24,r16
 992 045a B701      		movw r22,r14
 993 045c 21EF      		ldi r18,lo8(1777)
 994 045e 36E0      		ldi r19,hi8(1777)
 995 0460 40E0      		ldi r20,hlo8(1777)
 996 0462 50E0      		ldi r21,hhi8(1777)
 997 0464 0E94 0000 		call __udivmodsi4
 998 0468 6115      		cp r22,__zero_reg__
 999 046a 7105      		cpc r23,__zero_reg__
 1000 046c 8105      		cpc r24,__zero_reg__
 1001 046e 9105      		cpc r25,__zero_reg__
 1002 0470 01F4      		brne .L342
 1003               	.LM149:
 1004 0472 8091 0801 		lds r24,264
 1005               	.LVL46:
 1006 0476 8925      		eor r24,r9
 1007 0478 8093 0801 		sts 264,r24
 1008               	.LVL47:
 1009               	.L342:
 1010               	.LBB569:
 1011               	.LBB570:
 1012               	.LM150:
 1013 047c 8091 C000 		lds r24,192
 1014               	.LVL48:
 1015               	.LBE570:
 1016               	.LBE569:
 1017               	.LM151:
 1018 0480 87FD      		sbrc r24,7
 1019 0482 00C0      		rjmp .L81
 1020 0484 C114      		cp r12,__zero_reg__
 1021 0486 D104      		cpc r13,__zero_reg__
 1022 0488 01F0      		breq .L82
 1023               	.L81:
 1024               	.LM152:
 1025 048a A601      		movw r20,r12
 1026 048c 4F5F      		subi r20,lo8(-(1))
 1027 048e 5F4F      		sbci r21,hi8(-(1))
 1028 0490 C25E      		subi r28,lo8(-286)
 1029 0492 DE4F      		sbci r29,hi8(-286)
 1030 0494 5983      		std Y+1,r21
 1031 0496 4883      		st Y,r20
 1032 0498 CE51      		subi r28,lo8(286)
 1033 049a D140      		sbci r29,hi8(286)
 1034               	.LVL49:
 1035               	.LM153:
 1036 049c C25E      		subi r28,lo8(-286)
 1037 049e DE4F      		sbci r29,hi8(-286)
 1038 04a0 8881      		ld r24,Y
 1039 04a2 9981      		ldd r25,Y+1
 1040 04a4 CE51      		subi r28,lo8(286)
 1041 04a6 D140      		sbci r29,hi8(286)
 1042 04a8 0197      		sbiw r24,1
 1043 04aa 01F0      		breq .+4
 1044 04ac 0C94 0000 		jmp .L84
 1045 04b0 C05D      		subi r28,lo8(-304)
 1046 04b2 DE4F      		sbci r29,hi8(-304)
 1047 04b4 1982      		std Y+1,__zero_reg__
 1048 04b6 1882      		st Y,__zero_reg__
 1049 04b8 C053      		subi r28,lo8(304)
 1050 04ba D140      		sbci r29,hi8(304)
 1051               	.LVL50:
 1052 04bc 60E0      		ldi r22,lo8(0)
 1053               	.LVL51:
 1054 04be C15D      		subi r28,lo8(-303)
 1055 04c0 DE4F      		sbci r29,hi8(-303)
 1056 04c2 1882      		st Y,__zero_reg__
 1057 04c4 CF52      		subi r28,lo8(303)
 1058 04c6 D140      		sbci r29,hi8(303)
 1059               	.LVL52:
 1060 04c8 8824      		clr r8
 1061 04ca 9924      		clr r9
 1062               	.LVL53:
 1063 04cc C35D      		subi r28,lo8(-301)
 1064 04ce DE4F      		sbci r29,hi8(-301)
 1065 04d0 1982      		std Y+1,__zero_reg__
 1066 04d2 1882      		st Y,__zero_reg__
 1067 04d4 CD52      		subi r28,lo8(301)
 1068 04d6 D140      		sbci r29,hi8(301)
 1069               	.LVL54:
 1070 04d8 C05E      		subi r28,lo8(-288)
 1071 04da DE4F      		sbci r29,hi8(-288)
 1072 04dc 1882      		st Y,__zero_reg__
 1073 04de 1982      		std Y+1,__zero_reg__
 1074 04e0 1A82      		std Y+2,__zero_reg__
 1075 04e2 1B82      		std Y+3,__zero_reg__
 1076 04e4 C052      		subi r28,lo8(288)
 1077 04e6 D140      		sbci r29,hi8(288)
 1078               	.LVL55:
 1079 04e8 CE5C      		subi r28,lo8(-306)
 1080 04ea DE4F      		sbci r29,hi8(-306)
 1081 04ec 1882      		st Y,__zero_reg__
 1082 04ee 1982      		std Y+1,__zero_reg__
 1083 04f0 1A82      		std Y+2,__zero_reg__
 1084 04f2 1B82      		std Y+3,__zero_reg__
 1085 04f4 C253      		subi r28,lo8(306)
 1086 04f6 D140      		sbci r29,hi8(306)
 1087               	.LVL56:
 1088               	.LBB571:
 1089               	.LBB572:
 1090               	.LBB573:
 1091               	.LBB574:
 1092               	.LM154:
 1093 04f8 EE24      		clr r14
 1094 04fa FF24      		clr r15
 1095 04fc 8701      		movw r16,r14
 1096               	.LVL57:
 1097               	/* #APP */
 1098               	 ;  512 "stk500boot.c" 1
 1099 04fe 0BBF      		out 59, r16
 1100 0500 F701      		movw r30, r14
 1101 0502 0791      		elpm r16, Z+
 1102 0504 1691      		elpm r17, Z
 1103               		
 1104               	 ;  0 "" 2
 1105               	/* #NOAPP */
 1106 0506 C45C      		subi r28,lo8(-316)
 1107 0508 DE4F      		sbci r29,hi8(-316)
 1108 050a 1983      		std Y+1,r17
 1109 050c 0883      		st Y,r16
 1110 050e CC53      		subi r28,lo8(316)
 1111 0510 D140      		sbci r29,hi8(316)
 1112 0512 0C94 0000 		jmp .L85
 1113               	.LVL58:
 1114               	.L345:
 1115               	.LBE574:
 1116               	.LBE573:
 1117               	.LBE572:
 1118               	.LBE571:
 1119               	.LM155:
 1120 0516 C25E      		subi r28,lo8(-286)
 1121 0518 DE4F      		sbci r29,hi8(-286)
 1122 051a 2881      		ld r18,Y
 1123 051c 3981      		ldd r19,Y+1
 1124 051e CE51      		subi r28,lo8(286)
 1125 0520 D140      		sbci r29,hi8(286)
 1126               	.LVL59:
 1127 0522 2130      		cpi r18,1
 1128 0524 3105      		cpc r19,__zero_reg__
 1129 0526 01F4      		brne .L349
 1130               	.L86:
 1131               	.LM156:
 1132 0528 2091 C600 		lds r18,198
 1133               	.LVL60:
 1134 052c C25E      		subi r28,lo8(-286)
 1135 052e DE4F      		sbci r29,hi8(-286)
 1136 0530 1982      		std Y+1,__zero_reg__
 1137 0532 1882      		st Y,__zero_reg__
 1138 0534 CE51      		subi r28,lo8(286)
 1139 0536 D140      		sbci r29,hi8(286)
 1140               	.LVL61:
 1141 0538 00C0      		rjmp .L88
 1142               	.LVL62:
 1143               	.L90:
 1144               	.LBB577:
 1145               	.LBB576:
 1146               	.LM157:
 1147 053a 2F5F      		subi r18,lo8(-(1))
 1148 053c 3F4F      		sbci r19,hi8(-(1))
 1149 053e 4F4F      		sbci r20,hlo8(-(1))
 1150 0540 5F4F      		sbci r21,hhi8(-(1))
 1151               	.LM158:
 1152 0542 2130      		cpi r18,lo8(8000001)
 1153 0544 82E1      		ldi r24,hi8(8000001)
 1154 0546 3807      		cpc r19,r24
 1155 0548 8AE7      		ldi r24,hlo8(8000001)
 1156 054a 4807      		cpc r20,r24
 1157 054c 80E0      		ldi r24,hhi8(8000001)
 1158 054e 5807      		cpc r21,r24
 1159 0550 00F0      		brlo .L343
 1160               	.LBB575:
 1161               	.LM159:
 1162 0552 C45C      		subi r28,lo8(-316)
 1163 0554 DE4F      		sbci r29,hi8(-316)
 1164 0556 E881      		ld r30,Y
 1165 0558 F981      		ldd r31,Y+1
 1166 055a CC53      		subi r28,lo8(316)
 1167 055c D140      		sbci r29,hi8(316)
 1168               	.LVL63:
 1169 055e EF5F      		subi r30,lo8(-1)
 1170 0560 FF4F      		sbci r31,hi8(-1)
 1171 0562 01F0      		breq .L349
 1172               	.L89:
 1173               	.LM160:
 1174               	/* #APP */
 1175               	 ;  518 "stk500boot.c" 1
 1176 0564 EE27      		clr	r30		
 1177 0566 FF27      		clr	r31		
 1178 0568 0994      		ijmp	
 1179               		
 1180               	 ;  0 "" 2
 1181               	.LVL64:
 1182               	/* #NOAPP */
 1183               	.L349:
 1184 056a 20E0      		ldi r18,lo8(0)
 1185 056c 30E0      		ldi r19,hi8(0)
 1186 056e 40E0      		ldi r20,hlo8(0)
 1187 0570 50E0      		ldi r21,hhi8(0)
 1188               	.L343:
 1189               	.LBE575:
 1190               	.LM161:
 1191 0572 8091 C000 		lds r24,192
 1192 0576 87FF      		sbrs r24,7
 1193 0578 00C0      		rjmp .L90
 1194               	.LM162:
 1195 057a 2091 C600 		lds r18,198
 1196               	.LVL65:
 1197               	.L88:
 1198               	.LBE576:
 1199               	.LBE577:
 1200               	.LM163:
 1201 057e C35D      		subi r28,lo8(-301)
 1202 0580 DE4F      		sbci r29,hi8(-301)
 1203 0582 4881      		ld r20,Y
 1204 0584 5981      		ldd r21,Y+1
 1205 0586 CD52      		subi r28,lo8(301)
 1206 0588 D140      		sbci r29,hi8(301)
 1207 058a 4F5F      		subi r20,lo8(-(1))
 1208 058c 5F4F      		sbci r21,hi8(-(1))
 1209 058e C35D      		subi r28,lo8(-301)
 1210 0590 DE4F      		sbci r29,hi8(-301)
 1211 0592 5983      		std Y+1,r21
 1212 0594 4883      		st Y,r20
 1213 0596 CD52      		subi r28,lo8(301)
 1214 0598 D140      		sbci r29,hi8(301)
 1215               	.LVL66:
 1216               	.LM164:
 1217 059a 2132      		cpi r18,lo8(33)
 1218 059c 01F0      		breq .+2
 1219 059e 00C0      		rjmp .L91
 1220 05a0 4A30      		cpi r20,10
 1221 05a2 5105      		cpc r21,__zero_reg__
 1222 05a4 00F0      		brlo .+2
 1223 05a6 00C0      		rjmp .L91
 1224               	.LM165:
 1225 05a8 0894      		sec
 1226 05aa 811C      		adc r8,__zero_reg__
 1227 05ac 911C      		adc r9,__zero_reg__
 1228               	.LM166:
 1229 05ae 53E0      		ldi r21,lo8(3)
 1230 05b0 8516      		cp r8,r21
 1231 05b2 9104      		cpc r9,__zero_reg__
 1232 05b4 01F0      		breq .+2
 1233 05b6 00C0      		rjmp .L92
 1234 05b8 00E0      		ldi r16,lo8(0)
 1235 05ba 10E0      		ldi r17,hi8(0)
 1236               	.LVL67:
 1237 05bc 00C0      		rjmp .L93
 1238               	.LVL68:
 1239               	.L95:
 1240               	.LBB578:
 1241               	.LBB579:
 1242               	.LBB580:
 1243               	.LBB581:
 1244               	.LM167:
 1245 05be 81E2      		ldi r24,lo8(33)
 1246 05c0 8093 C600 		sts 198,r24
 1247               	.L94:
 1248               	.LM168:
 1249 05c4 8091 C000 		lds r24,192
 1250 05c8 86FF      		sbrs r24,6
 1251 05ca 00C0      		rjmp .L94
 1252               	.LM169:
 1253 05cc 8091 C000 		lds r24,192
 1254 05d0 8064      		ori r24,lo8(64)
 1255 05d2 8093 C000 		sts 192,r24
 1256               	.LBE581:
 1257               	.LBE580:
 1258               	.LM170:
 1259 05d6 2F5F      		subi r18,lo8(-(1))
 1260 05d8 3F4F      		sbci r19,hi8(-(1))
 1261 05da 2931      		cpi r18,25
 1262 05dc 3105      		cpc r19,__zero_reg__
 1263 05de 01F4      		brne .L95
 1264               	.LM171:
 1265 05e0 0E94 0000 		call PrintNewLine
 1266               	.LVL69:
 1267               	.LM172:
 1268 05e4 0F5F      		subi r16,lo8(-(1))
 1269 05e6 1F4F      		sbci r17,hi8(-(1))
 1270 05e8 0530      		cpi r16,5
 1271 05ea 1105      		cpc r17,__zero_reg__
 1272 05ec 01F0      		breq .L96
 1273               	.LVL70:
 1274               	.L93:
 1275 05ee 20E0      		ldi r18,lo8(0)
 1276 05f0 30E0      		ldi r19,hi8(0)
 1277               	.LVL71:
 1278 05f2 00C0      		rjmp .L95
 1279               	.LVL72:
 1280               	.L96:
 1281               	.LM173:
 1282 05f4 1092 0000 		sts gRamIndex,__zero_reg__
 1283 05f8 1092 0000 		sts (gRamIndex)+1,__zero_reg__
 1284 05fc 1092 0000 		sts (gRamIndex)+2,__zero_reg__
 1285 0600 1092 0000 		sts (gRamIndex)+3,__zero_reg__
 1286               	.LM174:
 1287 0604 1092 0000 		sts gFlashIndex,__zero_reg__
 1288 0608 1092 0000 		sts (gFlashIndex)+1,__zero_reg__
 1289 060c 1092 0000 		sts (gFlashIndex)+2,__zero_reg__
 1290 0610 1092 0000 		sts (gFlashIndex)+3,__zero_reg__
 1291               	.LM175:
 1292 0614 1092 0000 		sts gEepromIndex,__zero_reg__
 1293 0618 1092 0000 		sts (gEepromIndex)+1,__zero_reg__
 1294 061c 1092 0000 		sts (gEepromIndex)+2,__zero_reg__
 1295 0620 1092 0000 		sts (gEepromIndex)+3,__zero_reg__
 1296               	.LM176:
 1297 0624 80E0      		ldi r24,lo8(gTextMsg_Explorer)
 1298 0626 90E0      		ldi r25,hi8(gTextMsg_Explorer)
 1299               	.LVL73:
 1300               	.L350:
 1301 0628 60E0      		ldi r22,lo8(0)
 1302 062a 0E94 0000 		call PrintFromPROGMEMln
 1303               	.LVL74:
 1304               	.LVL75:
 1305               	.L344:
 1306               	.LM177:
 1307 062e 80E0      		ldi r24,lo8(gTextMsg_Prompt)
 1308 0630 90E0      		ldi r25,hi8(gTextMsg_Prompt)
 1309 0632 60E0      		ldi r22,lo8(0)
 1310 0634 0E94 0000 		call PrintFromPROGMEM
 1311               	.LVL76:
 1312               	.L97:
 1313               	.LBB582:
 1314               	.LBB583:
 1315               	.LM178:
 1316 0638 8091 C000 		lds r24,192
 1317 063c 87FF      		sbrs r24,7
 1318 063e 00C0      		rjmp .L97
 1319               	.LM179:
 1320 0640 9091 C600 		lds r25,198
 1321               	.LVL77:
 1322               	.LBE583:
 1323               	.LBE582:
 1324               	.LM180:
 1325 0644 9036      		cpi r25,lo8(96)
 1326 0646 00F0      		brlo .L98
 1327               	.LM181:
 1328 0648 9F75      		andi r25,lo8(95)
 1329               	.L98:
 1330               	.LM182:
 1331 064a 9032      		cpi r25,lo8(32)
 1332 064c 00F0      		brlo .L99
 1333               	.LBB584:
 1334               	.LBB585:
 1335               	.LM183:
 1336 064e 9093 C600 		sts 198,r25
 1337               	.L100:
 1338               	.LM184:
 1339 0652 8091 C000 		lds r24,192
 1340 0656 86FF      		sbrs r24,6
 1341 0658 00C0      		rjmp .L100
 1342               	.LM185:
 1343 065a 8091 C000 		lds r24,192
 1344 065e 8064      		ori r24,lo8(64)
 1345 0660 8093 C000 		sts 192,r24
 1346               	.LBE585:
 1347               	.LBE584:
 1348               	.LBB586:
 1349               	.LBB587:
 1350               	.LM186:
 1351 0664 A0E2      		ldi r26,lo8(32)
 1352 0666 A093 C600 		sts 198,r26
 1353               	.L101:
 1354               	.LM187:
 1355 066a 8091 C000 		lds r24,192
 1356 066e 86FF      		sbrs r24,6
 1357 0670 00C0      		rjmp .L101
 1358               	.LM188:
 1359 0672 8091 C000 		lds r24,192
 1360 0676 8064      		ori r24,lo8(64)
 1361 0678 8093 C000 		sts 192,r24
 1362               	.L99:
 1363               	.LBE587:
 1364               	.LBE586:
 1365               	.LM189:
 1366 067c 9834      		cpi r25,lo8(72)
 1367 067e 01F4      		brne .+2
 1368 0680 00C0      		rjmp .L109
 1369 0682 9934      		cpi r25,lo8(73)
 1370 0684 00F4      		brsh .L115
 1371 0686 9234      		cpi r25,lo8(66)
 1372 0688 01F4      		brne .+2
 1373 068a 00C0      		rjmp .L106
 1374 068c 9334      		cpi r25,lo8(67)
 1375 068e 00F4      		brsh .L116
 1376 0690 9033      		cpi r25,lo8(48)
 1377 0692 01F0      		breq .L103
 1378 0694 9033      		cpi r25,lo8(48)
 1379 0696 00F4      		brsh .+2
 1380 0698 00C0      		rjmp .L102
 1381 069a 9F33      		cpi r25,lo8(63)
 1382 069c 01F0      		breq .L104
 1383 069e 9034      		cpi r25,lo8(64)
 1384 06a0 01F0      		breq .+2
 1385 06a2 00C0      		rjmp .L102
 1386 06a4 00C0      		rjmp .L358
 1387               	.L116:
 1388 06a6 9534      		cpi r25,lo8(69)
 1389 06a8 01F4      		brne .+2
 1390 06aa 00C0      		rjmp .L107
 1391 06ac 9634      		cpi r25,lo8(70)
 1392 06ae 01F0      		breq .+2
 1393 06b0 00C0      		rjmp .L102
 1394 06b2 00C0      		rjmp .L359
 1395               	.L115:
 1396 06b4 9235      		cpi r25,lo8(82)
 1397 06b6 01F4      		brne .+2
 1398 06b8 00C0      		rjmp .L112
 1399 06ba 9335      		cpi r25,lo8(83)
 1400 06bc 00F4      		brsh .L117
 1401 06be 9C34      		cpi r25,lo8(76)
 1402 06c0 01F4      		brne .+2
 1403 06c2 00C0      		rjmp .L110
 1404 06c4 9135      		cpi r25,lo8(81)
 1405 06c6 01F0      		breq .+2
 1406 06c8 00C0      		rjmp .L102
 1407 06ca 00C0      		rjmp .L360
 1408               	.L117:
 1409 06cc 9635      		cpi r25,lo8(86)
 1410 06ce 01F4      		brne .+2
 1411 06d0 00C0      		rjmp .L113
 1412 06d2 9935      		cpi r25,lo8(89)
 1413 06d4 01F0      		breq .+2
 1414 06d6 00C0      		rjmp .L102
 1415 06d8 00C0      		rjmp .L361
 1416               	.L103:
 1417               	.LM190:
 1418 06da 80E0      		ldi r24,lo8(gTextMsg_HELP_MSG_0)
 1419 06dc 90E0      		ldi r25,hi8(gTextMsg_HELP_MSG_0)
 1420 06de 62E0      		ldi r22,lo8(2)
 1421 06e0 0E94 0000 		call PrintFromPROGMEMln
 1422               	.LVL78:
 1423               	.LM191:
 1424 06e4 1092 0000 		sts gFlashIndex,__zero_reg__
 1425 06e8 1092 0000 		sts (gFlashIndex)+1,__zero_reg__
 1426 06ec 1092 0000 		sts (gFlashIndex)+2,__zero_reg__
 1427 06f0 1092 0000 		sts (gFlashIndex)+3,__zero_reg__
 1428               	.LM192:
 1429 06f4 1092 0000 		sts gRamIndex,__zero_reg__
 1430 06f8 1092 0000 		sts (gRamIndex)+1,__zero_reg__
 1431 06fc 1092 0000 		sts (gRamIndex)+2,__zero_reg__
 1432 0700 1092 0000 		sts (gRamIndex)+3,__zero_reg__
 1433 0704 00C0      		rjmp .L351
 1434               	.LVL79:
 1435               	.L104:
 1436               	.LM193:
 1437 0706 80E0      		ldi r24,lo8(gTextMsg_HELP_MSG_QM)
 1438 0708 90E0      		ldi r25,hi8(gTextMsg_HELP_MSG_QM)
 1439 070a 62E0      		ldi r22,lo8(2)
 1440 070c 0E94 0000 		call PrintFromPROGMEMln
 1441               	.LVL80:
 1442               	.LBB588:
 1443               	.LBB589:
 1444               	.LM194:
 1445 0710 80E0      		ldi r24,lo8(gTextMsg_Explorer)
 1446 0712 90E0      		ldi r25,hi8(gTextMsg_Explorer)
 1447 0714 60E0      		ldi r22,lo8(0)
 1448 0716 0E94 0000 		call PrintFromPROGMEMln
 1449               	.LM195:
 1450 071a 80E0      		ldi r24,lo8(gTextMsg_COMPILED_ON)
 1451 071c 90E0      		ldi r25,hi8(gTextMsg_COMPILED_ON)
 1452 071e 60E0      		ldi r22,lo8(0)
 1453 0720 0E94 0000 		call PrintFromPROGMEM
 1454               	.LM196:
 1455 0724 80E0      		ldi r24,lo8(gTextMsg_GCC_DATE_STR)
 1456 0726 90E0      		ldi r25,hi8(gTextMsg_GCC_DATE_STR)
 1457 0728 60E0      		ldi r22,lo8(0)
 1458 072a 0E94 0000 		call PrintFromPROGMEMln
 1459               	.LM197:
 1460 072e 80E0      		ldi r24,lo8(gTextMsg_CPU_Type)
 1461 0730 90E0      		ldi r25,hi8(gTextMsg_CPU_Type)
 1462 0732 60E0      		ldi r22,lo8(0)
 1463 0734 0E94 0000 		call PrintFromPROGMEM
 1464               	.LM198:
 1465 0738 80E0      		ldi r24,lo8(gTextMsg_CPU_Name)
 1466 073a 90E0      		ldi r25,hi8(gTextMsg_CPU_Name)
 1467 073c 60E0      		ldi r22,lo8(0)
 1468 073e 0E94 0000 		call PrintFromPROGMEMln
 1469               	.LM199:
 1470 0742 80E0      		ldi r24,lo8(gTextMsg_AVR_ARCH)
 1471 0744 90E0      		ldi r25,hi8(gTextMsg_AVR_ARCH)
 1472 0746 60E0      		ldi r22,lo8(0)
 1473 0748 0E94 0000 		call PrintFromPROGMEM
 1474               	.LM200:
 1475 074c 86E0      		ldi r24,lo8(6)
 1476 074e 90E0      		ldi r25,hi8(6)
 1477 0750 61E0      		ldi r22,lo8(1)
 1478 0752 70E0      		ldi r23,hi8(1)
 1479 0754 0E94 0000 		call PrintDecInt
 1480               	.LM201:
 1481 0758 0E94 0000 		call PrintNewLine
 1482               	.LM202:
 1483 075c 80E0      		ldi r24,lo8(gTextMsg_GCC_VERSION)
 1484 075e 90E0      		ldi r25,hi8(gTextMsg_GCC_VERSION)
 1485 0760 60E0      		ldi r22,lo8(0)
 1486 0762 0E94 0000 		call PrintFromPROGMEM
 1487               	.LM203:
 1488 0766 80E0      		ldi r24,lo8(gTextMsg_GCC_VERSION_STR)
 1489 0768 90E0      		ldi r25,hi8(gTextMsg_GCC_VERSION_STR)
 1490 076a 60E0      		ldi r22,lo8(0)
 1491 076c 0E94 0000 		call PrintFromPROGMEMln
 1492               	.LM204:
 1493 0770 80E0      		ldi r24,lo8(gTextMsg_AVR_LIBC)
 1494 0772 90E0      		ldi r25,hi8(gTextMsg_AVR_LIBC)
 1495 0774 60E0      		ldi r22,lo8(0)
 1496 0776 0E94 0000 		call PrintFromPROGMEM
 1497               	.LM205:
 1498 077a 80E0      		ldi r24,lo8(gTextMsg_AVR_LIBC_VER_STR)
 1499 077c 90E0      		ldi r25,hi8(gTextMsg_AVR_LIBC_VER_STR)
 1500 077e 60E0      		ldi r22,lo8(0)
 1501 0780 0E94 0000 		call PrintFromPROGMEMln
 1502               	.LM206:
 1503 0784 80E0      		ldi r24,lo8(gTextMsg_CPU_SIGNATURE)
 1504 0786 90E0      		ldi r25,hi8(gTextMsg_CPU_SIGNATURE)
 1505 0788 60E0      		ldi r22,lo8(0)
 1506 078a 0E94 0000 		call PrintFromPROGMEM
 1507               	.LM207:
 1508 078e 8EE1      		ldi r24,lo8(30)
 1509 0790 0E94 0000 		call PrintHexByte
 1510               	.LM208:
 1511 0794 88E9      		ldi r24,lo8(-104)
 1512 0796 0E94 0000 		call PrintHexByte
 1513               	.LM209:
 1514 079a 81E0      		ldi r24,lo8(1)
 1515 079c 0E94 0000 		call PrintHexByte
 1516               	.LM210:
 1517 07a0 0E94 0000 		call PrintNewLine
 1518               	.LM211:
 1519 07a4 80E0      		ldi r24,lo8(gTextMsg_FUSE_BYTE_LOW)
 1520 07a6 90E0      		ldi r25,hi8(gTextMsg_FUSE_BYTE_LOW)
 1521 07a8 60E0      		ldi r22,lo8(0)
 1522 07aa 0E94 0000 		call PrintFromPROGMEM
 1523               	.LBB590:
 1524               	.LM212:
 1525 07ae 19E0      		ldi r17,lo8(9)
 1526               	.LVL81:
 1527 07b0 E0E0      		ldi r30,lo8(0)
 1528 07b2 F0E0      		ldi r31,hi8(0)
 1529               	/* #APP */
 1530               	 ;  1453 "stk500boot.c" 1
 1531 07b4 1093 5700 		sts 87, r17
 1532 07b8 E491      		lpm r30, Z
 1533               		
 1534               	 ;  0 "" 2
 1535               	.LVL82:
 1536               	/* #NOAPP */
 1537               	.LBE590:
 1538               	.LM213:
 1539 07ba 8E2F      		mov r24,r30
 1540 07bc 0E94 0000 		call PrintHexByte
 1541               	.LVL83:
 1542               	.LM214:
 1543 07c0 0E94 0000 		call PrintNewLine
 1544               	.LM215:
 1545 07c4 80E0      		ldi r24,lo8(gTextMsg_FUSE_BYTE_HIGH)
 1546 07c6 90E0      		ldi r25,hi8(gTextMsg_FUSE_BYTE_HIGH)
 1547 07c8 60E0      		ldi r22,lo8(0)
 1548 07ca 0E94 0000 		call PrintFromPROGMEM
 1549               	.LBB591:
 1550               	.LM216:
 1551 07ce E3E0      		ldi r30,lo8(3)
 1552 07d0 F0E0      		ldi r31,hi8(3)
 1553               	/* #APP */
 1554               	 ;  1458 "stk500boot.c" 1
 1555 07d2 1093 5700 		sts 87, r17
 1556 07d6 E491      		lpm r30, Z
 1557               		
 1558               	 ;  0 "" 2
 1559               	.LVL84:
 1560               	/* #NOAPP */
 1561               	.LBE591:
 1562               	.LM217:
 1563 07d8 8E2F      		mov r24,r30
 1564 07da 0E94 0000 		call PrintHexByte
 1565               	.LVL85:
 1566               	.LM218:
 1567 07de 0E94 0000 		call PrintNewLine
 1568               	.LM219:
 1569 07e2 80E0      		ldi r24,lo8(gTextMsg_FUSE_BYTE_EXT)
 1570 07e4 90E0      		ldi r25,hi8(gTextMsg_FUSE_BYTE_EXT)
 1571 07e6 60E0      		ldi r22,lo8(0)
 1572 07e8 0E94 0000 		call PrintFromPROGMEM
 1573               	.LBB592:
 1574               	.LM220:
 1575 07ec E2E0      		ldi r30,lo8(2)
 1576 07ee F0E0      		ldi r31,hi8(2)
 1577               	/* #APP */
 1578               	 ;  1463 "stk500boot.c" 1
 1579 07f0 1093 5700 		sts 87, r17
 1580 07f4 E491      		lpm r30, Z
 1581               		
 1582               	 ;  0 "" 2
 1583               	.LVL86:
 1584               	/* #NOAPP */
 1585               	.LBE592:
 1586               	.LM221:
 1587 07f6 8E2F      		mov r24,r30
 1588 07f8 0E94 0000 		call PrintHexByte
 1589               	.LVL87:
 1590               	.LM222:
 1591 07fc 0E94 0000 		call PrintNewLine
 1592               	.LM223:
 1593 0800 80E0      		ldi r24,lo8(gTextMsg_FUSE_BYTE_LOCK)
 1594 0802 90E0      		ldi r25,hi8(gTextMsg_FUSE_BYTE_LOCK)
 1595 0804 60E0      		ldi r22,lo8(0)
 1596 0806 0E94 0000 		call PrintFromPROGMEM
 1597               	.LBB593:
 1598               	.LM224:
 1599 080a E1E0      		ldi r30,lo8(1)
 1600 080c F0E0      		ldi r31,hi8(1)
 1601               	/* #APP */
 1602               	 ;  1468 "stk500boot.c" 1
 1603 080e 1093 5700 		sts 87, r17
 1604 0812 1491      		lpm r17, Z
 1605               		
 1606               	 ;  0 "" 2
 1607               	.LVL88:
 1608               	/* #NOAPP */
 1609               	.LBE593:
 1610               	.LM225:
 1611 0814 812F      		mov r24,r17
 1612 0816 0E94 0000 		call PrintHexByte
 1613               	.LM226:
 1614 081a 0E94 0000 		call PrintNewLine
 1615 081e 00C0      		rjmp .L344
 1616               	.LVL89:
 1617               	.L358:
 1618               	.LBE589:
 1619               	.LBE588:
 1620               	.LM227:
 1621 0820 80E0      		ldi r24,lo8(gTextMsg_HELP_MSG_AT)
 1622 0822 90E0      		ldi r25,hi8(gTextMsg_HELP_MSG_AT)
 1623 0824 62E0      		ldi r22,lo8(2)
 1624 0826 0E94 0000 		call PrintFromPROGMEMln
 1625               	.LVL90:
 1626               	.LBB594:
 1627               	.LBB595:
 1628               	.LM228:
 1629 082a 80E0      		ldi r24,lo8(gTextMsg_WriteToEEprom)
 1630 082c 90E0      		ldi r25,hi8(gTextMsg_WriteToEEprom)
 1631 082e 60E0      		ldi r22,lo8(0)
 1632 0830 0E94 0000 		call PrintFromPROGMEMln
 1633               	.LM229:
 1634 0834 0E94 0000 		call PrintNewLine
 1635 0838 00E0      		ldi r16,lo8(0)
 1636 083a 10E0      		ldi r17,hi8(0)
 1637               	.LVL91:
 1638 083c 00C0      		rjmp .L119
 1639               	.LVL92:
 1640               	.L124:
 1641               	.LM230:
 1642 083e C801      		movw r24,r16
 1643 0840 6F2D      		mov r22,r15
 1644 0842 0E94 0000 		call __eewr_byte_m2560
 1645               	.LM231:
 1646 0846 FF20      		tst r15
 1647 0848 01F4      		brne .L120
 1648               	.LM232:
 1649 084a 80E0      		ldi r24,lo8(gTextMsg_SPACE)
 1650 084c 90E0      		ldi r25,hi8(gTextMsg_SPACE)
 1651 084e 60E0      		ldi r22,lo8(0)
 1652 0850 0E94 0000 		call PrintFromPROGMEM
 1653 0854 00C0      		rjmp .L121
 1654               	.L120:
 1655               	.LBB597:
 1656               	.LBB598:
 1657               	.LM233:
 1658 0856 F092 C600 		sts 198,r15
 1659               	.L122:
 1660               	.LM234:
 1661 085a 8091 C000 		lds r24,192
 1662 085e 86FF      		sbrs r24,6
 1663 0860 00C0      		rjmp .L122
 1664               	.LM235:
 1665 0862 8091 C000 		lds r24,192
 1666 0866 8064      		ori r24,lo8(64)
 1667 0868 8093 C000 		sts 192,r24
 1668               	.L121:
 1669               	.LBE598:
 1670               	.LBE597:
 1671               	.LM236:
 1672 086c 0F5F      		subi r16,lo8(-(1))
 1673 086e 1F4F      		sbci r17,hi8(-(1))
 1674               	.LVL93:
 1675               	.L119:
 1676               	.LBB596:
 1677               	.LM237:
 1678 0870 C801      		movw r24,r16
 1679 0872 8050      		subi r24,lo8(-(gTextMsg_Explorer))
 1680 0874 9040      		sbci r25,hi8(-(gTextMsg_Explorer))
 1681 0876 A0E0      		ldi r26,lo8(0)
 1682 0878 B0E0      		ldi r27,hi8(0)
 1683               	/* #APP */
 1684               	 ;  1583 "stk500boot.c" 1
 1685 087a ABBF      		out 59, r26
 1686 087c FC01      		movw r30, r24
 1687 087e F790      		elpm r15, Z+
 1688               		
 1689               	 ;  0 "" 2
 1690               	.LVL94:
 1691               	/* #NOAPP */
 1692               	.LBE596:
 1693 0880 BAE2      		ldi r27,lo8(42)
 1694 0882 FB16      		cp r15,r27
 1695 0884 01F0      		breq .L123
 1696 0886 E2E0      		ldi r30,hi8(512)
 1697 0888 0030      		cpi r16,lo8(512)
 1698 088a 1E07      		cpc r17,r30
 1699 088c 01F4      		brne .L124
 1700               	.L123:
 1701               	.LM238:
 1702 088e 0E94 0000 		call PrintNewLine
 1703               	.LM239:
 1704 0892 0E94 0000 		call PrintNewLine
 1705               	.LM240:
 1706 0896 80E0      		ldi r24,lo8(gTextMsg_ReadingEEprom)
 1707 0898 90E0      		ldi r25,hi8(gTextMsg_ReadingEEprom)
 1708 089a 60E0      		ldi r22,lo8(0)
 1709 089c 0E94 0000 		call PrintFromPROGMEMln
 1710               	.LM241:
 1711 08a0 0E94 0000 		call PrintNewLine
 1712 08a4 00E0      		ldi r16,lo8(0)
 1713 08a6 10E0      		ldi r17,hi8(0)
 1714               	.LVL95:
 1715 08a8 CC24      		clr r12
 1716 08aa DD24      		clr r13
 1717               	.LVL96:
 1718 08ac 00C0      		rjmp .L125
 1719               	.LVL97:
 1720               	.L131:
 1721               	.LBE595:
 1722               	.LM242:
 1723 08ae C801      		movw r24,r16
 1724 08b0 0E94 0000 		call __eerd_byte_m2560
 1725 08b4 F82E      		mov r15,r24
 1726               	.LVL98:
 1727               	.LBB602:
 1728               	.LM243:
 1729 08b6 8823      		tst r24
 1730 08b8 01F4      		brne .L126
 1731               	.LVL99:
 1732               	.LM244:
 1733 08ba 80E0      		ldi r24,lo8(gTextMsg_SPACE)
 1734 08bc 90E0      		ldi r25,hi8(gTextMsg_SPACE)
 1735               	.LVL100:
 1736 08be 60E0      		ldi r22,lo8(0)
 1737 08c0 0E94 0000 		call PrintFromPROGMEM
 1738 08c4 00C0      		rjmp .L127
 1739               	.LVL101:
 1740               	.L126:
 1741               	.LBB599:
 1742               	.LBB600:
 1743               	.LM245:
 1744 08c6 8093 C600 		sts 198,r24
 1745               	.LVL102:
 1746               	.L128:
 1747               	.LM246:
 1748 08ca 8091 C000 		lds r24,192
 1749 08ce 86FF      		sbrs r24,6
 1750 08d0 00C0      		rjmp .L128
 1751               	.LM247:
 1752 08d2 8091 C000 		lds r24,192
 1753 08d6 8064      		ori r24,lo8(64)
 1754 08d8 8093 C000 		sts 192,r24
 1755               	.L127:
 1756               	.LBE600:
 1757               	.LBE599:
 1758               	.LM248:
 1759 08dc FE14      		cp r15,r14
 1760 08de 01F0      		breq .L129
 1761               	.LM249:
 1762 08e0 0894      		sec
 1763 08e2 C11C      		adc r12,__zero_reg__
 1764 08e4 D11C      		adc r13,__zero_reg__
 1765               	.L129:
 1766               	.LM250:
 1767 08e6 0F5F      		subi r16,lo8(-(1))
 1768 08e8 1F4F      		sbci r17,hi8(-(1))
 1769               	.LVL103:
 1770               	.L125:
 1771               	.LBB601:
 1772               	.LM251:
 1773 08ea C801      		movw r24,r16
 1774 08ec 8050      		subi r24,lo8(-(gTextMsg_Explorer))
 1775 08ee 9040      		sbci r25,hi8(-(gTextMsg_Explorer))
 1776 08f0 A0E0      		ldi r26,lo8(0)
 1777 08f2 B0E0      		ldi r27,hi8(0)
 1778               	/* #APP */
 1779               	 ;  1608 "stk500boot.c" 1
 1780 08f4 ABBF      		out 59, r26
 1781 08f6 FC01      		movw r30, r24
 1782 08f8 E790      		elpm r14, Z+
 1783               		
 1784               	 ;  0 "" 2
 1785               	.LVL104:
 1786               	/* #NOAPP */
 1787               	.LBE601:
 1788 08fa FAE2      		ldi r31,lo8(42)
 1789 08fc EF16      		cp r14,r31
 1790 08fe 01F0      		breq .L130
 1791 0900 22E0      		ldi r18,hi8(512)
 1792 0902 0030      		cpi r16,lo8(512)
 1793 0904 1207      		cpc r17,r18
 1794 0906 01F4      		brne .L131
 1795               	.L130:
 1796               	.LM252:
 1797 0908 0E94 0000 		call PrintNewLine
 1798               	.LM253:
 1799 090c 0E94 0000 		call PrintNewLine
 1800               	.LM254:
 1801 0910 80E0      		ldi r24,lo8(gTextMsg_EEPROMerrorCnt)
 1802 0912 90E0      		ldi r25,hi8(gTextMsg_EEPROMerrorCnt)
 1803 0914 60E0      		ldi r22,lo8(0)
 1804 0916 0E94 0000 		call PrintFromPROGMEM
 1805               	.LM255:
 1806 091a C601      		movw r24,r12
 1807 091c 61E0      		ldi r22,lo8(1)
 1808 091e 70E0      		ldi r23,hi8(1)
 1809 0920 0E94 0000 		call PrintDecInt
 1810               	.LM256:
 1811 0924 0E94 0000 		call PrintNewLine
 1812               	.LM257:
 1813 0928 0E94 0000 		call PrintNewLine
 1814               	.LVL105:
 1815               	.L351:
 1816               	.LM258:
 1817 092c 1092 0000 		sts gEepromIndex,__zero_reg__
 1818 0930 1092 0000 		sts (gEepromIndex)+1,__zero_reg__
 1819 0934 1092 0000 		sts (gEepromIndex)+2,__zero_reg__
 1820 0938 1092 0000 		sts (gEepromIndex)+3,__zero_reg__
 1821 093c 00C0      		rjmp .L344
 1822               	.LVL106:
 1823               	.L106:
 1824               	.LBE602:
 1825               	.LBE594:
 1826               	.LM259:
 1827 093e 80E0      		ldi r24,lo8(gTextMsg_HELP_MSG_B)
 1828 0940 90E0      		ldi r25,hi8(gTextMsg_HELP_MSG_B)
 1829 0942 62E0      		ldi r22,lo8(2)
 1830 0944 0E94 0000 		call PrintFromPROGMEMln
 1831               	.LVL107:
 1832               	.LBB603:
 1833               	.LBB604:
 1834               	.LM260:
 1835 0948 8091 0701 		lds r24,263
 1836 094c 8064      		ori r24,lo8(64)
 1837 094e 8093 0701 		sts 263,r24
 1838               	.LM261:
 1839 0952 8091 0801 		lds r24,264
 1840 0956 8064      		ori r24,lo8(64)
 1841 0958 8093 0801 		sts 264,r24
 1842 095c 00C0      		rjmp .L132
 1843               	.LVL108:
 1844               	.L135:
 1845               	.LM262:
 1846 095e 8091 0801 		lds r24,264
 1847 0962 8F7B      		andi r24,lo8(-65)
 1848 0964 8093 0801 		sts 264,r24
 1849 0968 80E0      		ldi r24,lo8(0)
 1850 096a 90E0      		ldi r25,hi8(0)
 1851               	.LVL109:
 1852               	.L133:
 1853               	.LBB605:
 1854               	.LBB606:
 1855               	.LBB607:
 1856               	.LBB608:
 1857               	.LBB609:
 1858               	.LBB610:
 1859               	.LM263:
 1860 096c E0ED      		ldi r30,lo8(2000)
 1861 096e F7E0      		ldi r31,hi8(2000)
 1862               	.LVL110:
 1863               	/* #APP */
 1864               	 ;  105 "c:/winavr-20100110/lib/gcc/../../avr/include/util/delay_basic.h" 1
 1865 0970 3197      		1: sbiw r30,1
 1866 0972 01F4      		brne 1b
 1867               	 ;  0 "" 2
 1868               	/* #NOAPP */
 1869               	.LBE610:
 1870               	.LBE609:
 1871               	.LBE608:
 1872               	.LBE607:
 1873               	.LM264:
 1874 0974 0196      		adiw r24,1
 1875 0976 8436      		cpi r24,100
 1876 0978 9105      		cpc r25,__zero_reg__
 1877 097a 01F4      		brne .L133
 1878               	.LBE606:
 1879               	.LBE605:
 1880               	.LM265:
 1881 097c 8091 0801 		lds r24,264
 1882               	.LVL111:
 1883 0980 8064      		ori r24,lo8(64)
 1884 0982 8093 0801 		sts 264,r24
 1885 0986 80E0      		ldi r24,lo8(0)
 1886 0988 90E0      		ldi r25,hi8(0)
 1887               	.LVL112:
 1888               	.L134:
 1889               	.LBB611:
 1890               	.LBB612:
 1891               	.LBB613:
 1892               	.LBB614:
 1893               	.LBB615:
 1894               	.LBB616:
 1895               	.LM266:
 1896 098a E0ED      		ldi r30,lo8(2000)
 1897 098c F7E0      		ldi r31,hi8(2000)
 1898               	.LVL113:
 1899               	/* #APP */
 1900               	 ;  105 "c:/winavr-20100110/lib/gcc/../../avr/include/util/delay_basic.h" 1
 1901 098e 3197      		1: sbiw r30,1
 1902 0990 01F4      		brne 1b
 1903               	 ;  0 "" 2
 1904               	/* #NOAPP */
 1905               	.LBE616:
 1906               	.LBE615:
 1907               	.LBE614:
 1908               	.LBE613:
 1909               	.LM267:
 1910 0992 0196      		adiw r24,1
 1911 0994 8436      		cpi r24,100
 1912 0996 9105      		cpc r25,__zero_reg__
 1913 0998 01F4      		brne .L134
 1914               	.L132:
 1915               	.LBE612:
 1916               	.LBE611:
 1917               	.LBB617:
 1918               	.LBB618:
 1919               	.LM268:
 1920 099a 8091 C000 		lds r24,192
 1921               	.LVL114:
 1922               	.LBE618:
 1923               	.LBE617:
 1924               	.LM269:
 1925 099e 87FF      		sbrs r24,7
 1926 09a0 00C0      		rjmp .L135
 1927               	.L285:
 1928               	.LBB619:
 1929               	.LBB620:
 1930               	.LM270:
 1931 09a2 8091 C000 		lds r24,192
 1932 09a6 87FF      		sbrs r24,7
 1933 09a8 00C0      		rjmp .L285
 1934 09aa 00C0      		rjmp .L352
 1935               	.LVL115:
 1936               	.L107:
 1937               	.LBE620:
 1938               	.LBE619:
 1939               	.LBE604:
 1940               	.LBE603:
 1941               	.LM271:
 1942 09ac 80E0      		ldi r24,lo8(gTextMsg_HELP_MSG_E)
 1943 09ae 90E0      		ldi r25,hi8(gTextMsg_HELP_MSG_E)
 1944 09b0 62E0      		ldi r22,lo8(2)
 1945 09b2 0E94 0000 		call PrintFromPROGMEMln
 1946               	.LVL116:
 1947               	.LM272:
 1948 09b6 4091 0000 		lds r20,gEepromIndex
 1949 09ba 5091 0000 		lds r21,(gEepromIndex)+1
 1950 09be 6091 0000 		lds r22,(gEepromIndex)+2
 1951 09c2 7091 0000 		lds r23,(gEepromIndex)+3
 1952 09c6 81E0      		ldi r24,lo8(1)
 1953 09c8 20E1      		ldi r18,lo8(16)
 1954 09ca 0E94 0000 		call DumpHex
 1955               	.LM273:
 1956 09ce 8091 0000 		lds r24,gEepromIndex
 1957 09d2 9091 0000 		lds r25,(gEepromIndex)+1
 1958 09d6 A091 0000 		lds r26,(gEepromIndex)+2
 1959 09da B091 0000 		lds r27,(gEepromIndex)+3
 1960 09de 8050      		subi r24,lo8(-(256))
 1961 09e0 9F4F      		sbci r25,hi8(-(256))
 1962 09e2 AF4F      		sbci r26,hlo8(-(256))
 1963 09e4 BF4F      		sbci r27,hhi8(-(256))
 1964 09e6 8093 0000 		sts gEepromIndex,r24
 1965 09ea 9093 0000 		sts (gEepromIndex)+1,r25
 1966 09ee A093 0000 		sts (gEepromIndex)+2,r26
 1967 09f2 B093 0000 		sts (gEepromIndex)+3,r27
 1968               	.LM274:
 1969 09f6 8050      		subi r24,lo8(4096)
 1970 09f8 9041      		sbci r25,hi8(4096)
 1971 09fa A040      		sbci r26,hlo8(4096)
 1972 09fc B040      		sbci r27,hhi8(4096)
 1973 09fe 00F4      		brsh .+2
 1974 0a00 00C0      		rjmp .L344
 1975 0a02 00C0      		rjmp .L351
 1976               	.LVL117:
 1977               	.L359:
 1978               	.LM275:
 1979 0a04 80E0      		ldi r24,lo8(gTextMsg_HELP_MSG_F)
 1980 0a06 90E0      		ldi r25,hi8(gTextMsg_HELP_MSG_F)
 1981 0a08 62E0      		ldi r22,lo8(2)
 1982 0a0a 0E94 0000 		call PrintFromPROGMEMln
 1983               	.LVL118:
 1984               	.LM276:
 1985 0a0e 4091 0000 		lds r20,gFlashIndex
 1986 0a12 5091 0000 		lds r21,(gFlashIndex)+1
 1987 0a16 6091 0000 		lds r22,(gFlashIndex)+2
 1988 0a1a 7091 0000 		lds r23,(gFlashIndex)+3
 1989 0a1e 80E0      		ldi r24,lo8(0)
 1990 0a20 20E1      		ldi r18,lo8(16)
 1991 0a22 0E94 0000 		call DumpHex
 1992               	.LM277:
 1993 0a26 8091 0000 		lds r24,gFlashIndex
 1994 0a2a 9091 0000 		lds r25,(gFlashIndex)+1
 1995 0a2e A091 0000 		lds r26,(gFlashIndex)+2
 1996 0a32 B091 0000 		lds r27,(gFlashIndex)+3
 1997 0a36 8050      		subi r24,lo8(-(256))
 1998 0a38 9F4F      		sbci r25,hi8(-(256))
 1999 0a3a AF4F      		sbci r26,hlo8(-(256))
 2000 0a3c BF4F      		sbci r27,hhi8(-(256))
 2001 0a3e 8093 0000 		sts gFlashIndex,r24
 2002 0a42 9093 0000 		sts (gFlashIndex)+1,r25
 2003 0a46 A093 0000 		sts (gFlashIndex)+2,r26
 2004 0a4a B093 0000 		sts (gFlashIndex)+3,r27
 2005 0a4e 00C0      		rjmp .L344
 2006               	.LVL119:
 2007               	.L109:
 2008               	.LM278:
 2009 0a50 80E0      		ldi r24,lo8(gTextMsg_HELP_MSG_H)
 2010 0a52 90E0      		ldi r25,hi8(gTextMsg_HELP_MSG_H)
 2011 0a54 62E0      		ldi r22,lo8(2)
 2012 0a56 0E94 0000 		call PrintFromPROGMEMln
 2013               	.LVL120:
 2014               	.LBB621:
 2015               	.LBB622:
 2016               	.LM279:
 2017 0a5a 80E0      		ldi r24,lo8(gTextMsg_HELP_MSG_0)
 2018 0a5c 90E0      		ldi r25,hi8(gTextMsg_HELP_MSG_0)
 2019 0a5e 60E0      		ldi r22,lo8(0)
 2020 0a60 0E94 0000 		call PrintFromPROGMEMln
 2021               	.LM280:
 2022 0a64 80E0      		ldi r24,lo8(gTextMsg_HELP_MSG_QM)
 2023 0a66 90E0      		ldi r25,hi8(gTextMsg_HELP_MSG_QM)
 2024 0a68 60E0      		ldi r22,lo8(0)
 2025 0a6a 0E94 0000 		call PrintFromPROGMEMln
 2026               	.LM281:
 2027 0a6e 80E0      		ldi r24,lo8(gTextMsg_HELP_MSG_AT)
 2028 0a70 90E0      		ldi r25,hi8(gTextMsg_HELP_MSG_AT)
 2029 0a72 60E0      		ldi r22,lo8(0)
 2030 0a74 0E94 0000 		call PrintFromPROGMEMln
 2031               	.LM282:
 2032 0a78 80E0      		ldi r24,lo8(gTextMsg_HELP_MSG_B)
 2033 0a7a 90E0      		ldi r25,hi8(gTextMsg_HELP_MSG_B)
 2034 0a7c 60E0      		ldi r22,lo8(0)
 2035 0a7e 0E94 0000 		call PrintFromPROGMEMln
 2036               	.LM283:
 2037 0a82 80E0      		ldi r24,lo8(gTextMsg_HELP_MSG_E)
 2038 0a84 90E0      		ldi r25,hi8(gTextMsg_HELP_MSG_E)
 2039 0a86 60E0      		ldi r22,lo8(0)
 2040 0a88 0E94 0000 		call PrintFromPROGMEMln
 2041               	.LM284:
 2042 0a8c 80E0      		ldi r24,lo8(gTextMsg_HELP_MSG_F)
 2043 0a8e 90E0      		ldi r25,hi8(gTextMsg_HELP_MSG_F)
 2044 0a90 60E0      		ldi r22,lo8(0)
 2045 0a92 0E94 0000 		call PrintFromPROGMEMln
 2046               	.LM285:
 2047 0a96 80E0      		ldi r24,lo8(gTextMsg_HELP_MSG_H)
 2048 0a98 90E0      		ldi r25,hi8(gTextMsg_HELP_MSG_H)
 2049 0a9a 60E0      		ldi r22,lo8(0)
 2050 0a9c 0E94 0000 		call PrintFromPROGMEMln
 2051               	.LM286:
 2052 0aa0 80E0      		ldi r24,lo8(gTextMsg_HELP_MSG_L)
 2053 0aa2 90E0      		ldi r25,hi8(gTextMsg_HELP_MSG_L)
 2054 0aa4 60E0      		ldi r22,lo8(0)
 2055 0aa6 0E94 0000 		call PrintFromPROGMEMln
 2056               	.LM287:
 2057 0aaa 80E0      		ldi r24,lo8(gTextMsg_HELP_MSG_Q)
 2058 0aac 90E0      		ldi r25,hi8(gTextMsg_HELP_MSG_Q)
 2059 0aae 60E0      		ldi r22,lo8(0)
 2060 0ab0 0E94 0000 		call PrintFromPROGMEMln
 2061               	.LM288:
 2062 0ab4 80E0      		ldi r24,lo8(gTextMsg_HELP_MSG_R)
 2063 0ab6 90E0      		ldi r25,hi8(gTextMsg_HELP_MSG_R)
 2064 0ab8 60E0      		ldi r22,lo8(0)
 2065 0aba 0E94 0000 		call PrintFromPROGMEMln
 2066               	.LM289:
 2067 0abe 80E0      		ldi r24,lo8(gTextMsg_HELP_MSG_V)
 2068 0ac0 90E0      		ldi r25,hi8(gTextMsg_HELP_MSG_V)
 2069 0ac2 60E0      		ldi r22,lo8(0)
 2070 0ac4 0E94 0000 		call PrintFromPROGMEMln
 2071               	.LM290:
 2072 0ac8 80E0      		ldi r24,lo8(gTextMsg_HELP_MSG_Y)
 2073 0aca 90E0      		ldi r25,hi8(gTextMsg_HELP_MSG_Y)
 2074 0acc 00C0      		rjmp .L350
 2075               	.LVL121:
 2076               	.L110:
 2077               	.LBE622:
 2078               	.LBE621:
 2079               	.LM291:
 2080 0ace 80E0      		ldi r24,lo8(gTextMsg_HELP_MSG_L)
 2081 0ad0 90E0      		ldi r25,hi8(gTextMsg_HELP_MSG_L)
 2082 0ad2 62E0      		ldi r22,lo8(2)
 2083 0ad4 0E94 0000 		call PrintFromPROGMEMln
 2084               	.LVL122:
 2085               	.LBB623:
 2086               	.LBB624:
 2087               	.LM292:
 2088 0ad8 81E4      		ldi r24,lo8(65)
 2089 0ada 0E94 0000 		call PrintAvailablePort
 2090               	.LM293:
 2091 0ade 82E4      		ldi r24,lo8(66)
 2092 0ae0 0E94 0000 		call PrintAvailablePort
 2093               	.LM294:
 2094 0ae4 83E4      		ldi r24,lo8(67)
 2095 0ae6 0E94 0000 		call PrintAvailablePort
 2096               	.LM295:
 2097 0aea 84E4      		ldi r24,lo8(68)
 2098 0aec 0E94 0000 		call PrintAvailablePort
 2099               	.LM296:
 2100 0af0 85E4      		ldi r24,lo8(69)
 2101 0af2 0E94 0000 		call PrintAvailablePort
 2102               	.LM297:
 2103 0af6 86E4      		ldi r24,lo8(70)
 2104 0af8 0E94 0000 		call PrintAvailablePort
 2105               	.LM298:
 2106 0afc 87E4      		ldi r24,lo8(71)
 2107 0afe 0E94 0000 		call PrintAvailablePort
 2108               	.LM299:
 2109 0b02 88E4      		ldi r24,lo8(72)
 2110 0b04 0E94 0000 		call PrintAvailablePort
 2111               	.LM300:
 2112 0b08 8AE4      		ldi r24,lo8(74)
 2113 0b0a 0E94 0000 		call PrintAvailablePort
 2114               	.LM301:
 2115 0b0e 8BE4      		ldi r24,lo8(75)
 2116 0b10 0E94 0000 		call PrintAvailablePort
 2117               	.LM302:
 2118 0b14 8CE4      		ldi r24,lo8(76)
 2119 0b16 0E94 0000 		call PrintAvailablePort
 2120 0b1a 00C0      		rjmp .L344
 2121               	.LVL123:
 2122               	.L360:
 2123               	.LBE624:
 2124               	.LBE623:
 2125               	.LM303:
 2126 0b1c 80E0      		ldi r24,lo8(gTextMsg_HELP_MSG_Q)
 2127 0b1e 90E0      		ldi r25,hi8(gTextMsg_HELP_MSG_Q)
 2128 0b20 62E0      		ldi r22,lo8(2)
 2129 0b22 0E94 0000 		call PrintFromPROGMEMln
 2130               	.LVL124:
 2131 0b26 7724      		clr r7
 2132 0b28 7394      		inc r7
 2133 0b2a 8824      		clr r8
 2134 0b2c 9924      		clr r9
 2135 0b2e 00C0      		rjmp .L137
 2136               	.LVL125:
 2137               	.L112:
 2138               	.LM304:
 2139 0b30 80E0      		ldi r24,lo8(gTextMsg_HELP_MSG_R)
 2140 0b32 90E0      		ldi r25,hi8(gTextMsg_HELP_MSG_R)
 2141 0b34 62E0      		ldi r22,lo8(2)
 2142 0b36 0E94 0000 		call PrintFromPROGMEMln
 2143               	.LVL126:
 2144               	.LM305:
 2145 0b3a 4091 0000 		lds r20,gRamIndex
 2146 0b3e 5091 0000 		lds r21,(gRamIndex)+1
 2147 0b42 6091 0000 		lds r22,(gRamIndex)+2
 2148 0b46 7091 0000 		lds r23,(gRamIndex)+3
 2149 0b4a 82E0      		ldi r24,lo8(2)
 2150 0b4c 20E1      		ldi r18,lo8(16)
 2151 0b4e 0E94 0000 		call DumpHex
 2152               	.LM306:
 2153 0b52 8091 0000 		lds r24,gRamIndex
 2154 0b56 9091 0000 		lds r25,(gRamIndex)+1
 2155 0b5a A091 0000 		lds r26,(gRamIndex)+2
 2156 0b5e B091 0000 		lds r27,(gRamIndex)+3
 2157 0b62 8050      		subi r24,lo8(-(256))
 2158 0b64 9F4F      		sbci r25,hi8(-(256))
 2159 0b66 AF4F      		sbci r26,hlo8(-(256))
 2160 0b68 BF4F      		sbci r27,hhi8(-(256))
 2161 0b6a 8093 0000 		sts gRamIndex,r24
 2162 0b6e 9093 0000 		sts (gRamIndex)+1,r25
 2163 0b72 A093 0000 		sts (gRamIndex)+2,r26
 2164 0b76 B093 0000 		sts (gRamIndex)+3,r27
 2165 0b7a 00C0      		rjmp .L344
 2166               	.LVL127:
 2167               	.L113:
 2168               	.LM307:
 2169 0b7c 80E0      		ldi r24,lo8(gTextMsg_HELP_MSG_V)
 2170 0b7e 90E0      		ldi r25,hi8(gTextMsg_HELP_MSG_V)
 2171 0b80 62E0      		ldi r22,lo8(2)
 2172 0b82 0E94 0000 		call PrintFromPROGMEMln
 2173               	.LVL128:
 2174               	.LBB625:
 2175               	.LBB626:
 2176               	.LM308:
 2177 0b86 80E0      		ldi r24,lo8(gTextMsg_CPU_Name)
 2178 0b88 90E0      		ldi r25,hi8(gTextMsg_CPU_Name)
 2179 0b8a 60E0      		ldi r22,lo8(0)
 2180 0b8c 0E94 0000 		call PrintFromPROGMEMln
 2181               	.LM309:
 2182 0b90 80E0      		ldi r24,lo8(gTextMsg_VECTOR_HEADER)
 2183 0b92 90E0      		ldi r25,hi8(gTextMsg_VECTOR_HEADER)
 2184 0b94 60E0      		ldi r22,lo8(0)
 2185 0b96 0E94 0000 		call PrintFromPROGMEMln
 2186 0b9a 6624      		clr r6
 2187 0b9c 7724      		clr r7
 2188 0b9e 4301      		movw r8,r6
 2189 0ba0 CC5D      		subi r28,lo8(-292)
 2190 0ba2 DE4F      		sbci r29,hi8(-292)
 2191 0ba4 1982      		std Y+1,__zero_reg__
 2192 0ba6 1882      		st Y,__zero_reg__
 2193 0ba8 C452      		subi r28,lo8(292)
 2194 0baa D140      		sbci r29,hi8(292)
 2195               	.LVL129:
 2196               	.L155:
 2197               	.LM310:
 2198 0bac D401      		movw r26,r8
 2199 0bae C301      		movw r24,r6
 2200 0bb0 B695      		lsr r27
 2201 0bb2 A795      		ror r26
 2202 0bb4 9795      		ror r25
 2203 0bb6 8795      		ror r24
 2204 0bb8 CA5D      		subi r28,lo8(-294)
 2205 0bba DE4F      		sbci r29,hi8(-294)
 2206 0bbc 8883      		st Y,r24
 2207 0bbe 9983      		std Y+1,r25
 2208 0bc0 AA83      		std Y+2,r26
 2209 0bc2 BB83      		std Y+3,r27
 2210 0bc4 C652      		subi r28,lo8(294)
 2211 0bc6 D140      		sbci r29,hi8(294)
 2212               	.LVL130:
 2213               	.LM311:
 2214 0bc8 CC5D      		subi r28,lo8(-292)
 2215 0bca DE4F      		sbci r29,hi8(-292)
 2216 0bcc A881      		ld r26,Y
 2217 0bce B981      		ldd r27,Y+1
 2218 0bd0 C452      		subi r28,lo8(292)
 2219 0bd2 D140      		sbci r29,hi8(292)
 2220 0bd4 1196      		adiw r26,1
 2221 0bd6 CC5D      		subi r28,lo8(-292)
 2222 0bd8 DE4F      		sbci r29,hi8(-292)
 2223 0bda B983      		std Y+1,r27
 2224 0bdc A883      		st Y,r26
 2225 0bde C452      		subi r28,lo8(292)
 2226 0be0 D140      		sbci r29,hi8(292)
 2227               	.LVL131:
 2228 0be2 CD01      		movw r24,r26
 2229 0be4 62E0      		ldi r22,lo8(2)
 2230 0be6 70E0      		ldi r23,hi8(2)
 2231 0be8 0E94 0000 		call PrintDecInt
 2232               	.LBB627:
 2233               	.LBB628:
 2234               	.LM312:
 2235 0bec B0E2      		ldi r27,lo8(32)
 2236 0bee B093 C600 		sts 198,r27
 2237               	.L138:
 2238               	.LM313:
 2239 0bf2 8091 C000 		lds r24,192
 2240 0bf6 86FF      		sbrs r24,6
 2241 0bf8 00C0      		rjmp .L138
 2242               	.LM314:
 2243 0bfa 8091 C000 		lds r24,192
 2244 0bfe 8064      		ori r24,lo8(64)
 2245 0c00 8093 C000 		sts 192,r24
 2246               	.LBE628:
 2247               	.LBE627:
 2248               	.LBB629:
 2249               	.LBB630:
 2250               	.LM315:
 2251 0c04 EDE2      		ldi r30,lo8(45)
 2252 0c06 E093 C600 		sts 198,r30
 2253               	.L139:
 2254               	.LM316:
 2255 0c0a 8091 C000 		lds r24,192
 2256 0c0e 86FF      		sbrs r24,6
 2257 0c10 00C0      		rjmp .L139
 2258               	.LM317:
 2259 0c12 8091 C000 		lds r24,192
 2260 0c16 8064      		ori r24,lo8(64)
 2261 0c18 8093 C000 		sts 192,r24
 2262               	.LBE630:
 2263               	.LBE629:
 2264               	.LBB631:
 2265               	.LBB632:
 2266               	.LM318:
 2267 0c1c F0E2      		ldi r31,lo8(32)
 2268 0c1e F093 C600 		sts 198,r31
 2269               	.L140:
 2270               	.LM319:
 2271 0c22 8091 C000 		lds r24,192
 2272 0c26 86FF      		sbrs r24,6
 2273 0c28 00C0      		rjmp .L140
 2274               	.LM320:
 2275 0c2a 8091 C000 		lds r24,192
 2276 0c2e 8064      		ori r24,lo8(64)
 2277 0c30 8093 C000 		sts 192,r24
 2278               	.LBE632:
 2279               	.LBE631:
 2280               	.LM321:
 2281 0c34 CA5D      		subi r28,lo8(-294)
 2282 0c36 DE4F      		sbci r29,hi8(-294)
 2283 0c38 E880      		ld r14,Y
 2284 0c3a F980      		ldd r15,Y+1
 2285 0c3c 0A81      		ldd r16,Y+2
 2286 0c3e 1B81      		ldd r17,Y+3
 2287 0c40 C652      		subi r28,lo8(294)
 2288 0c42 D140      		sbci r29,hi8(294)
 2289               	.LVL132:
 2290 0c44 BB27      		clr r27
 2291 0c46 A12F      		mov r26,r17
 2292 0c48 902F      		mov r25,r16
 2293 0c4a 8F2D      		mov r24,r15
 2294 0c4c 0E94 0000 		call PrintHexByte
 2295               	.LM322:
 2296 0c50 CA5D      		subi r28,lo8(-294)
 2297 0c52 DE4F      		sbci r29,hi8(-294)
 2298 0c54 8881      		ld r24,Y
 2299 0c56 C652      		subi r28,lo8(294)
 2300 0c58 D140      		sbci r29,hi8(294)
 2301 0c5a 0E94 0000 		call PrintHexByte
 2302               	.LBB633:
 2303               	.LBB634:
 2304               	.LM323:
 2305 0c5e B0E2      		ldi r27,lo8(32)
 2306 0c60 FB2E      		mov r15,r27
 2307               	.LVL133:
 2308 0c62 F092 C600 		sts 198,r15
 2309               	.LVL134:
 2310               	.L141:
 2311               	.LM324:
 2312 0c66 8091 C000 		lds r24,192
 2313 0c6a 86FF      		sbrs r24,6
 2314 0c6c 00C0      		rjmp .L141
 2315               	.LM325:
 2316 0c6e 8091 C000 		lds r24,192
 2317 0c72 8064      		ori r24,lo8(64)
 2318 0c74 8093 C000 		sts 192,r24
 2319               	.LBE634:
 2320               	.LBE633:
 2321               	.LBB635:
 2322               	.LBB636:
 2323               	.LM326:
 2324 0c78 0DE3      		ldi r16,lo8(61)
 2325               	.LVL135:
 2326 0c7a 0093 C600 		sts 198,r16
 2327               	.L142:
 2328               	.LM327:
 2329 0c7e 8091 C000 		lds r24,192
 2330 0c82 86FF      		sbrs r24,6
 2331 0c84 00C0      		rjmp .L142
 2332               	.LM328:
 2333 0c86 8091 C000 		lds r24,192
 2334 0c8a 8064      		ori r24,lo8(64)
 2335 0c8c 8093 C000 		sts 192,r24
 2336               	.LBE636:
 2337               	.LBE635:
 2338               	.LBB637:
 2339               	.LBB638:
 2340               	.LM329:
 2341 0c90 10E2      		ldi r17,lo8(32)
 2342               	.LVL136:
 2343 0c92 1093 C600 		sts 198,r17
 2344               	.L143:
 2345               	.LM330:
 2346 0c96 8091 C000 		lds r24,192
 2347 0c9a 86FF      		sbrs r24,6
 2348 0c9c 00C0      		rjmp .L143
 2349               	.LM331:
 2350 0c9e 8091 C000 		lds r24,192
 2351 0ca2 8064      		ori r24,lo8(64)
 2352 0ca4 8093 C000 		sts 192,r24
 2353               	.LBE638:
 2354               	.LBE637:
 2355               	.LBB639:
 2356               	.LM332:
 2357               	/* #APP */
 2358               	 ;  1692 "stk500boot.c" 1
 2359 0ca8 8BBE      		out 59, r8
 2360 0caa F301      		movw r30, r6
 2361 0cac 2791      		elpm r18, Z+
 2362               		
 2363               	 ;  0 "" 2
 2364               	/* #NOAPP */
 2365 0cae C65D      		subi r28,lo8(-298)
 2366 0cb0 DE4F      		sbci r29,hi8(-298)
 2367 0cb2 2883      		st Y,r18
 2368 0cb4 CA52      		subi r28,lo8(298)
 2369 0cb6 D140      		sbci r29,hi8(298)
 2370               	.LVL137:
 2371               	.LBE639:
 2372 0cb8 A22E      		mov r10,r18
 2373               	.LVL138:
 2374 0cba BB24      		clr r11
 2375 0cbc CC24      		clr r12
 2376 0cbe DD24      		clr r13
 2377               	.LVL139:
 2378               	.LBB640:
 2379               	.LM333:
 2380 0cc0 0894      		sec
 2381 0cc2 611C      		adc r6,__zero_reg__
 2382 0cc4 711C      		adc r7,__zero_reg__
 2383 0cc6 811C      		adc r8,__zero_reg__
 2384 0cc8 911C      		adc r9,__zero_reg__
 2385               	/* #APP */
 2386               	 ;  1693 "stk500boot.c" 1
 2387 0cca 8BBE      		out 59, r8
 2388 0ccc F301      		movw r30, r6
 2389 0cce 8791      		elpm r24, Z+
 2390               		
 2391               	 ;  0 "" 2
 2392               	.LVL140:
 2393               	/* #NOAPP */
 2394               	.LBE640:
 2395 0cd0 282E      		mov r2,r24
 2396               	.LVL141:
 2397 0cd2 3324      		clr r3
 2398 0cd4 4424      		clr r4
 2399 0cd6 5524      		clr r5
 2400               	.LBB641:
 2401               	.LM334:
 2402 0cd8 0894      		sec
 2403 0cda 611C      		adc r6,__zero_reg__
 2404 0cdc 711C      		adc r7,__zero_reg__
 2405 0cde 811C      		adc r8,__zero_reg__
 2406 0ce0 911C      		adc r9,__zero_reg__
 2407               	/* #APP */
 2408               	 ;  1694 "stk500boot.c" 1
 2409 0ce2 8BBE      		out 59, r8
 2410 0ce4 F301      		movw r30, r6
 2411 0ce6 3791      		elpm r19, Z+
 2412               		
 2413               	 ;  0 "" 2
 2414               	/* #NOAPP */
 2415 0ce8 C55D      		subi r28,lo8(-299)
 2416 0cea DE4F      		sbci r29,hi8(-299)
 2417 0cec 3883      		st Y,r19
 2418 0cee CB52      		subi r28,lo8(299)
 2419 0cf0 D140      		sbci r29,hi8(299)
 2420               	.LVL142:
 2421               	.LBE641:
 2422               	.LBB642:
 2423               	.LM335:
 2424 0cf2 0894      		sec
 2425 0cf4 611C      		adc r6,__zero_reg__
 2426 0cf6 711C      		adc r7,__zero_reg__
 2427 0cf8 811C      		adc r8,__zero_reg__
 2428 0cfa 911C      		adc r9,__zero_reg__
 2429               	/* #APP */
 2430               	 ;  1695 "stk500boot.c" 1
 2431 0cfc 8BBE      		out 59, r8
 2432 0cfe F301      		movw r30, r6
 2433 0d00 4791      		elpm r20, Z+
 2434               		
 2435               	 ;  0 "" 2
 2436               	/* #NOAPP */
 2437 0d02 C45D      		subi r28,lo8(-300)
 2438 0d04 DE4F      		sbci r29,hi8(-300)
 2439 0d06 4883      		st Y,r20
 2440 0d08 CC52      		subi r28,lo8(300)
 2441 0d0a D140      		sbci r29,hi8(300)
 2442               	.LVL143:
 2443 0d0c ADEF      		ldi r26,lo8(-3)
 2444 0d0e EA2E      		mov r14,r26
 2445 0d10 AFEF      		ldi r26,hi8(-3)
 2446 0d12 FA2E      		mov r15,r26
 2447 0d14 AFEF      		ldi r26,hlo8(-3)
 2448 0d16 0A2F      		mov r16,r26
 2449 0d18 AFEF      		ldi r26,hhi8(-3)
 2450 0d1a 1A2F      		mov r17,r26
 2451 0d1c 6E0C      		add r6,r14
 2452 0d1e 7F1C      		adc r7,r15
 2453 0d20 801E      		adc r8,r16
 2454 0d22 911E      		adc r9,r17
 2455               	.LBE642:
 2456               	.LM336:
 2457 0d24 142D      		mov r17,r4
 2458 0d26 032D      		mov r16,r3
 2459 0d28 F22C      		mov r15,r2
 2460 0d2a EE24      		clr r14
 2461               	.LVL144:
 2462 0d2c EA0C      		add r14,r10
 2463 0d2e FB1C      		adc r15,r11
 2464 0d30 0C1D      		adc r16,r12
 2465 0d32 1D1D      		adc r17,r13
 2466               	.LM337:
 2467 0d34 0E94 0000 		call PrintHexByte
 2468               	.LVL145:
 2469               	.LBB643:
 2470               	.LBB644:
 2471               	.LM338:
 2472 0d38 20E2      		ldi r18,lo8(32)
 2473 0d3a 2093 C600 		sts 198,r18
 2474               	.L144:
 2475               	.LM339:
 2476 0d3e 8091 C000 		lds r24,192
 2477 0d42 86FF      		sbrs r24,6
 2478 0d44 00C0      		rjmp .L144
 2479               	.LM340:
 2480 0d46 8091 C000 		lds r24,192
 2481 0d4a 8064      		ori r24,lo8(64)
 2482 0d4c 8093 C000 		sts 192,r24
 2483               	.LBE644:
 2484               	.LBE643:
 2485               	.LM341:
 2486 0d50 C65D      		subi r28,lo8(-298)
 2487 0d52 DE4F      		sbci r29,hi8(-298)
 2488 0d54 8881      		ld r24,Y
 2489 0d56 CA52      		subi r28,lo8(298)
 2490 0d58 D140      		sbci r29,hi8(298)
 2491 0d5a 0E94 0000 		call PrintHexByte
 2492               	.LBB645:
 2493               	.LBB646:
 2494               	.LM342:
 2495 0d5e 30E2      		ldi r19,lo8(32)
 2496 0d60 3093 C600 		sts 198,r19
 2497               	.L145:
 2498               	.LM343:
 2499 0d64 8091 C000 		lds r24,192
 2500 0d68 86FF      		sbrs r24,6
 2501 0d6a 00C0      		rjmp .L145
 2502               	.LM344:
 2503 0d6c 8091 C000 		lds r24,192
 2504 0d70 8064      		ori r24,lo8(64)
 2505 0d72 8093 C000 		sts 192,r24
 2506               	.LBE646:
 2507               	.LBE645:
 2508               	.LM345:
 2509 0d76 C45D      		subi r28,lo8(-300)
 2510 0d78 DE4F      		sbci r29,hi8(-300)
 2511 0d7a 8881      		ld r24,Y
 2512 0d7c CC52      		subi r28,lo8(300)
 2513 0d7e D140      		sbci r29,hi8(300)
 2514 0d80 0E94 0000 		call PrintHexByte
 2515               	.LBB647:
 2516               	.LBB648:
 2517               	.LM346:
 2518 0d84 40E2      		ldi r20,lo8(32)
 2519 0d86 4093 C600 		sts 198,r20
 2520               	.L146:
 2521               	.LM347:
 2522 0d8a 8091 C000 		lds r24,192
 2523 0d8e 86FF      		sbrs r24,6
 2524 0d90 00C0      		rjmp .L146
 2525               	.LM348:
 2526 0d92 8091 C000 		lds r24,192
 2527 0d96 8064      		ori r24,lo8(64)
 2528 0d98 8093 C000 		sts 192,r24
 2529               	.LBE648:
 2530               	.LBE647:
 2531               	.LM349:
 2532 0d9c C55D      		subi r28,lo8(-299)
 2533 0d9e DE4F      		sbci r29,hi8(-299)
 2534 0da0 8881      		ld r24,Y
 2535 0da2 CB52      		subi r28,lo8(299)
 2536 0da4 D140      		sbci r29,hi8(299)
 2537 0da6 0E94 0000 		call PrintHexByte
 2538               	.LBB649:
 2539               	.LBB650:
 2540               	.LM350:
 2541 0daa 50E2      		ldi r21,lo8(32)
 2542 0dac 5093 C600 		sts 198,r21
 2543               	.L147:
 2544               	.LM351:
 2545 0db0 8091 C000 		lds r24,192
 2546 0db4 86FF      		sbrs r24,6
 2547 0db6 00C0      		rjmp .L147
 2548               	.LM352:
 2549 0db8 8091 C000 		lds r24,192
 2550 0dbc 8064      		ori r24,lo8(64)
 2551 0dbe 8093 C000 		sts 192,r24
 2552               	.LBE650:
 2553               	.LBE649:
 2554               	.LM353:
 2555 0dc2 8FEF      		ldi r24,lo8(65535)
 2556 0dc4 E816      		cp r14,r24
 2557 0dc6 8FEF      		ldi r24,hi8(65535)
 2558 0dc8 F806      		cpc r15,r24
 2559 0dca 80E0      		ldi r24,hlo8(65535)
 2560 0dcc 0807      		cpc r16,r24
 2561 0dce 80E0      		ldi r24,hhi8(65535)
 2562 0dd0 1807      		cpc r17,r24
 2563 0dd2 01F4      		brne .L148
 2564               	.LM354:
 2565 0dd4 80E0      		ldi r24,lo8(gTextMsg_noVector)
 2566 0dd6 90E0      		ldi r25,hi8(gTextMsg_noVector)
 2567 0dd8 60E0      		ldi r22,lo8(0)
 2568 0dda 0E94 0000 		call PrintFromPROGMEM
 2569 0dde 00C0      		rjmp .L149
 2570               	.L148:
 2571               	.LM355:
 2572 0de0 D801      		movw r26,r16
 2573 0de2 C701      		movw r24,r14
 2574 0de4 8070      		andi r24,lo8(49152)
 2575 0de6 907C      		andi r25,hi8(49152)
 2576 0de8 A070      		andi r26,hlo8(49152)
 2577 0dea B070      		andi r27,hhi8(49152)
 2578 0dec 8050      		subi r24,lo8(49152)
 2579 0dee 904C      		sbci r25,hi8(49152)
 2580 0df0 A040      		sbci r26,hlo8(49152)
 2581 0df2 B040      		sbci r27,hhi8(49152)
 2582 0df4 01F4      		brne .L150
 2583               	.LM356:
 2584 0df6 2FEF      		ldi r18,lo8(16383)
 2585 0df8 3FE3      		ldi r19,hi8(16383)
 2586 0dfa 40E0      		ldi r20,hlo8(16383)
 2587 0dfc 50E0      		ldi r21,hhi8(16383)
 2588 0dfe E222      		and r14,r18
 2589 0e00 F322      		and r15,r19
 2590 0e02 0423      		and r16,r20
 2591 0e04 1523      		and r17,r21
 2592               	.LVL146:
 2593               	.LM357:
 2594 0e06 CA5D      		subi r28,lo8(-294)
 2595 0e08 DE4F      		sbci r29,hi8(-294)
 2596 0e0a A880      		ld r10,Y
 2597 0e0c B980      		ldd r11,Y+1
 2598 0e0e CA80      		ldd r12,Y+2
 2599 0e10 DB80      		ldd r13,Y+3
 2600 0e12 C652      		subi r28,lo8(294)
 2601 0e14 D140      		sbci r29,hi8(294)
 2602               	.LVL147:
 2603 0e16 AE0C      		add r10,r14
 2604 0e18 BF1C      		adc r11,r15
 2605 0e1a C01E      		adc r12,r16
 2606 0e1c D11E      		adc r13,r17
 2607               	.LM358:
 2608 0e1e AA0C      		lsl r10
 2609 0e20 BB1C      		rol r11
 2610 0e22 CC1C      		rol r12
 2611 0e24 DD1C      		rol r13
 2612               	.LM359:
 2613 0e26 80E0      		ldi r24,lo8(gTextMsg_rjmp)
 2614 0e28 90E0      		ldi r25,hi8(gTextMsg_rjmp)
 2615 0e2a 60E0      		ldi r22,lo8(0)
 2616 0e2c 0E94 0000 		call PrintFromPROGMEM
 2617               	.LM360:
 2618 0e30 BB27      		clr r27
 2619 0e32 A12F      		mov r26,r17
 2620 0e34 902F      		mov r25,r16
 2621 0e36 8F2D      		mov r24,r15
 2622 0e38 0E94 0000 		call PrintHexByte
 2623               	.LM361:
 2624 0e3c 8E2D      		mov r24,r14
 2625 0e3e 0E94 0000 		call PrintHexByte
 2626               	.LBB651:
 2627               	.LBB652:
 2628               	.LM362:
 2629 0e42 30E2      		ldi r19,lo8(32)
 2630 0e44 3093 C600 		sts 198,r19
 2631               	.LVL148:
 2632               	.L151:
 2633               	.LM363:
 2634 0e48 8091 C000 		lds r24,192
 2635 0e4c 86FF      		sbrs r24,6
 2636 0e4e 00C0      		rjmp .L151
 2637               	.LM364:
 2638 0e50 8091 C000 		lds r24,192
 2639 0e54 8064      		ori r24,lo8(64)
 2640 0e56 8093 C000 		sts 192,r24
 2641               	.LBE652:
 2642               	.LBE651:
 2643               	.LBB653:
 2644               	.LBB654:
 2645               	.LM365:
 2646 0e5a 4EE3      		ldi r20,lo8(62)
 2647 0e5c 4093 C600 		sts 198,r20
 2648               	.L152:
 2649               	.LM366:
 2650 0e60 8091 C000 		lds r24,192
 2651 0e64 86FF      		sbrs r24,6
 2652 0e66 00C0      		rjmp .L152
 2653 0e68 00C0      		rjmp .L353
 2654               	.LVL149:
 2655               	.L150:
 2656               	.LBE654:
 2657               	.LBE653:
 2658               	.LM367:
 2659 0e6a 8EE0      		ldi r24,lo8(65038)
 2660 0e6c 9EEF      		ldi r25,hi8(65038)
 2661 0e6e A0E0      		ldi r26,hlo8(65038)
 2662 0e70 B0E0      		ldi r27,hhi8(65038)
 2663 0e72 E822      		and r14,r24
 2664 0e74 F922      		and r15,r25
 2665 0e76 0A23      		and r16,r26
 2666 0e78 1B23      		and r17,r27
 2667 0e7a 9CE0      		ldi r25,lo8(37900)
 2668 0e7c E916      		cp r14,r25
 2669 0e7e 94E9      		ldi r25,hi8(37900)
 2670 0e80 F906      		cpc r15,r25
 2671 0e82 90E0      		ldi r25,hlo8(37900)
 2672 0e84 0907      		cpc r16,r25
 2673 0e86 90E0      		ldi r25,hhi8(37900)
 2674 0e88 1907      		cpc r17,r25
 2675 0e8a 01F0      		breq .+2
 2676 0e8c 00C0      		rjmp .L149
 2677               	.LM368:
 2678 0e8e C45D      		subi r28,lo8(-300)
 2679 0e90 DE4F      		sbci r29,hi8(-300)
 2680 0e92 A881      		ld r26,Y
 2681 0e94 CC52      		subi r28,lo8(300)
 2682 0e96 D140      		sbci r29,hi8(300)
 2683 0e98 EA2E      		mov r14,r26
 2684               	.LVL150:
 2685 0e9a FF24      		clr r15
 2686               	.LVL151:
 2687 0e9c 00E0      		ldi r16,lo8(0)
 2688 0e9e 10E0      		ldi r17,hi8(0)
 2689               	.LVL152:
 2690 0ea0 102F      		mov r17,r16
 2691 0ea2 0F2D      		mov r16,r15
 2692 0ea4 FE2C      		mov r15,r14
 2693 0ea6 EE24      		clr r14
 2694               	.LVL153:
 2695 0ea8 C55D      		subi r28,lo8(-299)
 2696 0eaa DE4F      		sbci r29,hi8(-299)
 2697 0eac B881      		ld r27,Y
 2698 0eae CB52      		subi r28,lo8(299)
 2699 0eb0 D140      		sbci r29,hi8(299)
 2700 0eb2 EB0E      		add r14,r27
 2701 0eb4 F11C      		adc r15,__zero_reg__
 2702 0eb6 011D      		adc r16,__zero_reg__
 2703 0eb8 111D      		adc r17,__zero_reg__
 2704 0eba D601      		movw r26,r12
 2705 0ebc C501      		movw r24,r10
 2706 0ebe 8170      		andi r24,lo8(1)
 2707 0ec0 9070      		andi r25,hi8(1)
 2708 0ec2 A070      		andi r26,hlo8(1)
 2709 0ec4 B070      		andi r27,hhi8(1)
 2710 0ec6 DC01      		movw r26,r24
 2711 0ec8 9927      		clr r25
 2712 0eca 8827      		clr r24
 2713 0ecc E80E      		add r14,r24
 2714 0ece F91E      		adc r15,r25
 2715 0ed0 0A1F      		adc r16,r26
 2716 0ed2 1B1F      		adc r17,r27
 2717 0ed4 20EF      		ldi r18,lo8(240)
 2718 0ed6 30E0      		ldi r19,hi8(240)
 2719 0ed8 40E0      		ldi r20,hlo8(240)
 2720 0eda 50E0      		ldi r21,hhi8(240)
 2721 0edc A222      		and r10,r18
 2722 0ede B322      		and r11,r19
 2723 0ee0 C422      		and r12,r20
 2724 0ee2 D522      		and r13,r21
 2725               	.LVL154:
 2726 0ee4 41E1      		ldi r20,17
 2727 0ee6 AA0C      	1:	lsl r10
 2728 0ee8 BB1C      		rol r11
 2729 0eea CC1C      		rol r12
 2730 0eec DD1C      		rol r13
 2731 0eee 4A95      		dec r20
 2732 0ef0 01F4      		brne 1b
 2733 0ef2 EA0C      		add r14,r10
 2734 0ef4 FB1C      		adc r15,r11
 2735 0ef6 0C1D      		adc r16,r12
 2736 0ef8 1D1D      		adc r17,r13
 2737 0efa 81E0      		ldi r24,lo8(1)
 2738 0efc 90E0      		ldi r25,hi8(1)
 2739 0efe A0E0      		ldi r26,hlo8(1)
 2740 0f00 B0E0      		ldi r27,hhi8(1)
 2741 0f02 2822      		and r2,r24
 2742 0f04 3922      		and r3,r25
 2743 0f06 4A22      		and r4,r26
 2744 0f08 5B22      		and r5,r27
 2745               	.LVL155:
 2746 0f0a 35E1      		ldi r19,21
 2747 0f0c 220C      	1:	lsl r2
 2748 0f0e 331C      		rol r3
 2749 0f10 441C      		rol r4
 2750 0f12 551C      		rol r5
 2751 0f14 3A95      		dec r19
 2752 0f16 01F4      		brne 1b
 2753 0f18 E20C      		add r14,r2
 2754 0f1a F31C      		adc r15,r3
 2755 0f1c 041D      		adc r16,r4
 2756 0f1e 151D      		adc r17,r5
 2757               	.LM369:
 2758 0f20 5701      		movw r10,r14
 2759 0f22 6801      		movw r12,r16
 2760               	.LVL156:
 2761 0f24 AA0C      		lsl r10
 2762 0f26 BB1C      		rol r11
 2763 0f28 CC1C      		rol r12
 2764 0f2a DD1C      		rol r13
 2765               	.LM370:
 2766 0f2c 80E0      		ldi r24,lo8(gTextMsg_jmp)
 2767 0f2e 90E0      		ldi r25,hi8(gTextMsg_jmp)
 2768 0f30 60E0      		ldi r22,lo8(0)
 2769 0f32 0E94 0000 		call PrintFromPROGMEM
 2770               	.LM371:
 2771 0f36 C801      		movw r24,r16
 2772 0f38 AA27      		clr r26
 2773 0f3a BB27      		clr r27
 2774 0f3c 0E94 0000 		call PrintHexByte
 2775               	.LM372:
 2776 0f40 BB27      		clr r27
 2777 0f42 A12F      		mov r26,r17
 2778 0f44 902F      		mov r25,r16
 2779 0f46 8F2D      		mov r24,r15
 2780 0f48 0E94 0000 		call PrintHexByte
 2781               	.LM373:
 2782 0f4c 8E2D      		mov r24,r14
 2783 0f4e 0E94 0000 		call PrintHexByte
 2784               	.LBB655:
 2785               	.LBB656:
 2786               	.LM374:
 2787 0f52 90E2      		ldi r25,lo8(32)
 2788 0f54 9093 C600 		sts 198,r25
 2789               	.L153:
 2790               	.LM375:
 2791 0f58 8091 C000 		lds r24,192
 2792 0f5c 86FF      		sbrs r24,6
 2793 0f5e 00C0      		rjmp .L153
 2794               	.LM376:
 2795 0f60 8091 C000 		lds r24,192
 2796 0f64 8064      		ori r24,lo8(64)
 2797 0f66 8093 C000 		sts 192,r24
 2798               	.LBE656:
 2799               	.LBE655:
 2800               	.LBB657:
 2801               	.LBB658:
 2802               	.LM377:
 2803 0f6a AEE3      		ldi r26,lo8(62)
 2804 0f6c A093 C600 		sts 198,r26
 2805               	.L154:
 2806               	.LM378:
 2807 0f70 8091 C000 		lds r24,192
 2808 0f74 86FF      		sbrs r24,6
 2809 0f76 00C0      		rjmp .L154
 2810               	.LVL157:
 2811               	.L353:
 2812               	.LM379:
 2813 0f78 8091 C000 		lds r24,192
 2814 0f7c 8064      		ori r24,lo8(64)
 2815 0f7e 8093 C000 		sts 192,r24
 2816               	.LBE658:
 2817               	.LBE657:
 2818               	.LM380:
 2819 0f82 C601      		movw r24,r12
 2820 0f84 AA27      		clr r26
 2821 0f86 BB27      		clr r27
 2822 0f88 0E94 0000 		call PrintHexByte
 2823               	.LM381:
 2824 0f8c BB27      		clr r27
 2825 0f8e AD2D      		mov r26,r13
 2826 0f90 9C2D      		mov r25,r12
 2827 0f92 8B2D      		mov r24,r11
 2828 0f94 0E94 0000 		call PrintHexByte
 2829               	.LM382:
 2830 0f98 8A2D      		mov r24,r10
 2831 0f9a 0E94 0000 		call PrintHexByte
 2832               	.LVL158:
 2833               	.L149:
 2834               	.LM383:
 2835 0f9e 0E94 0000 		call PrintNewLine
 2836               	.LM384:
 2837 0fa2 CC5D      		subi r28,lo8(-292)
 2838 0fa4 DE4F      		sbci r29,hi8(-292)
 2839 0fa6 E881      		ld r30,Y
 2840 0fa8 F981      		ldd r31,Y+1
 2841 0faa C452      		subi r28,lo8(292)
 2842 0fac D140      		sbci r29,hi8(292)
 2843 0fae F997      		sbiw r30,57
 2844 0fb0 01F4      		brne .+2
 2845 0fb2 00C0      		rjmp .L344
 2846 0fb4 F4E0      		ldi r31,lo8(4)
 2847 0fb6 EF2E      		mov r14,r31
 2848 0fb8 F12C      		mov r15,__zero_reg__
 2849 0fba 012D      		mov r16,__zero_reg__
 2850 0fbc 112D      		mov r17,__zero_reg__
 2851               	.LVL159:
 2852 0fbe 6E0C      		add r6,r14
 2853 0fc0 7F1C      		adc r7,r15
 2854 0fc2 801E      		adc r8,r16
 2855 0fc4 911E      		adc r9,r17
 2856 0fc6 00C0      		rjmp .L155
 2857               	.LVL160:
 2858               	.L361:
 2859               	.LBE626:
 2860               	.LBE625:
 2861               	.LM385:
 2862 0fc8 80E0      		ldi r24,lo8(gTextMsg_HELP_MSG_Y)
 2863 0fca 90E0      		ldi r25,hi8(gTextMsg_HELP_MSG_Y)
 2864 0fcc 62E0      		ldi r22,lo8(2)
 2865 0fce 0E94 0000 		call PrintFromPROGMEMln
 2866               	.LVL161:
 2867               	.LBB659:
 2868               	.LBB660:
 2869               	.LM386:
 2870 0fd2 80E0      		ldi r24,lo8(gTextMsg_WHAT_PORT)
 2871 0fd4 90E0      		ldi r25,hi8(gTextMsg_WHAT_PORT)
 2872 0fd6 60E0      		ldi r22,lo8(0)
 2873 0fd8 0E94 0000 		call PrintFromPROGMEM
 2874               	.L156:
 2875               	.LBB661:
 2876               	.LBB662:
 2877               	.LM387:
 2878 0fdc 8091 C000 		lds r24,192
 2879 0fe0 87FF      		sbrs r24,7
 2880 0fe2 00C0      		rjmp .L156
 2881               	.LM388:
 2882 0fe4 1091 C600 		lds r17,198
 2883               	.LVL162:
 2884               	.LBE662:
 2885               	.LBE661:
 2886               	.LM389:
 2887 0fe8 1F75      		andi r17,lo8(95)
 2888               	.LBB663:
 2889               	.LBB664:
 2890               	.LM390:
 2891 0fea 1093 C600 		sts 198,r17
 2892               	.L157:
 2893               	.LM391:
 2894 0fee 8091 C000 		lds r24,192
 2895 0ff2 86FF      		sbrs r24,6
 2896 0ff4 00C0      		rjmp .L157
 2897               	.LM392:
 2898 0ff6 8091 C000 		lds r24,192
 2899 0ffa 8064      		ori r24,lo8(64)
 2900 0ffc 8093 C000 		sts 192,r24
 2901               	.LBE664:
 2902               	.LBE663:
 2903               	.LM393:
 2904 1000 0E94 0000 		call PrintNewLine
 2905               	.LM394:
 2906 1004 812F      		mov r24,r17
 2907 1006 8154      		subi r24,lo8(-(-65))
 2908 1008 8A31      		cpi r24,lo8(26)
 2909 100a 00F0      		brlo .+2
 2910 100c 00C0      		rjmp .L158
 2911               	.LM395:
 2912 100e 1634      		cpi r17,lo8(70)
 2913 1010 01F4      		brne .+2
 2914 1012 00C0      		rjmp .L165
 2915 1014 1734      		cpi r17,lo8(71)
 2916 1016 00F4      		brsh .L171
 2917 1018 1334      		cpi r17,lo8(67)
 2918 101a 01F4      		brne .+2
 2919 101c 00C0      		rjmp .L162
 2920 101e 1434      		cpi r17,lo8(68)
 2921 1020 00F4      		brsh .L172
 2922 1022 1134      		cpi r17,lo8(65)
 2923 1024 01F0      		breq .L160
 2924 1026 1234      		cpi r17,lo8(66)
 2925 1028 01F0      		breq .+2
 2926 102a 00C0      		rjmp .L159
 2927 102c 00C0      		rjmp .L362
 2928               	.L172:
 2929 102e 1434      		cpi r17,lo8(68)
 2930 1030 01F4      		brne .+2
 2931 1032 00C0      		rjmp .L163
 2932 1034 1534      		cpi r17,lo8(69)
 2933 1036 01F0      		breq .+2
 2934 1038 00C0      		rjmp .L159
 2935 103a 00C0      		rjmp .L363
 2936               	.L171:
 2937 103c 1A34      		cpi r17,lo8(74)
 2938 103e 01F4      		brne .+2
 2939 1040 00C0      		rjmp .L168
 2940 1042 1B34      		cpi r17,lo8(75)
 2941 1044 00F4      		brsh .L173
 2942 1046 1734      		cpi r17,lo8(71)
 2943 1048 01F4      		brne .+2
 2944 104a 00C0      		rjmp .L166
 2945 104c 1834      		cpi r17,lo8(72)
 2946 104e 01F0      		breq .+2
 2947 1050 00C0      		rjmp .L159
 2948 1052 00C0      		rjmp .L364
 2949               	.L173:
 2950 1054 1B34      		cpi r17,lo8(75)
 2951 1056 01F4      		brne .+2
 2952 1058 00C0      		rjmp .L169
 2953 105a 1C34      		cpi r17,lo8(76)
 2954 105c 01F0      		breq .+2
 2955 105e 00C0      		rjmp .L159
 2956 1060 00C0      		rjmp .L365
 2957               	.L160:
 2958               	.LM396:
 2959 1062 8FEF      		ldi r24,lo8(-1)
 2960 1064 81B9      		out 33-32,r24
 2961 1066 00C0      		rjmp .L174
 2962               	.LVL163:
 2963               	.L176:
 2964               	.LM397:
 2965 1068 82B1      		in r24,34-32
 2966 106a 8095      		com r24
 2967 106c 82B9      		out 34-32,r24
 2968 106e 80E0      		ldi r24,lo8(0)
 2969 1070 90E0      		ldi r25,hi8(0)
 2970               	.LVL164:
 2971               	.L175:
 2972               	.LBB665:
 2973               	.LBB666:
 2974               	.LBB667:
 2975               	.LBB668:
 2976               	.LBB669:
 2977               	.LBB670:
 2978               	.LM398:
 2979 1072 E0ED      		ldi r30,lo8(2000)
 2980 1074 F7E0      		ldi r31,hi8(2000)
 2981               	/* #APP */
 2982               	 ;  105 "c:/winavr-20100110/lib/gcc/../../avr/include/util/delay_basic.h" 1
 2983 1076 3197      		1: sbiw r30,1
 2984 1078 01F4      		brne 1b
 2985               	 ;  0 "" 2
 2986               	/* #NOAPP */
 2987               	.LBE670:
 2988               	.LBE669:
 2989               	.LBE668:
 2990               	.LBE667:
 2991               	.LM399:
 2992 107a 0196      		adiw r24,1
 2993 107c 883C      		cpi r24,200
 2994 107e 9105      		cpc r25,__zero_reg__
 2995 1080 01F4      		brne .L175
 2996               	.L174:
 2997               	.LBE666:
 2998               	.LBE665:
 2999               	.LBB671:
 3000               	.LBB672:
 3001               	.LM400:
 3002 1082 8091 C000 		lds r24,192
 3003               	.LVL165:
 3004               	.LBE672:
 3005               	.LBE671:
 3006               	.LM401:
 3007 1086 87FF      		sbrs r24,7
 3008 1088 00C0      		rjmp .L176
 3009               	.LM402:
 3010 108a 12B8      		out 34-32,__zero_reg__
 3011 108c 00C0      		rjmp .L284
 3012               	.LVL166:
 3013               	.L362:
 3014               	.LM403:
 3015 108e 8FEF      		ldi r24,lo8(-1)
 3016 1090 84B9      		out 36-32,r24
 3017 1092 00C0      		rjmp .L178
 3018               	.LVL167:
 3019               	.L180:
 3020               	.LM404:
 3021 1094 85B1      		in r24,37-32
 3022 1096 8095      		com r24
 3023 1098 85B9      		out 37-32,r24
 3024 109a 80E0      		ldi r24,lo8(0)
 3025 109c 90E0      		ldi r25,hi8(0)
 3026               	.LVL168:
 3027               	.L179:
 3028               	.LBB673:
 3029               	.LBB674:
 3030               	.LBB675:
 3031               	.LBB676:
 3032               	.LBB677:
 3033               	.LBB678:
 3034               	.LM405:
 3035 109e E0ED      		ldi r30,lo8(2000)
 3036 10a0 F7E0      		ldi r31,hi8(2000)
 3037               	/* #APP */
 3038               	 ;  105 "c:/winavr-20100110/lib/gcc/../../avr/include/util/delay_basic.h" 1
 3039 10a2 3197      		1: sbiw r30,1
 3040 10a4 01F4      		brne 1b
 3041               	 ;  0 "" 2
 3042               	/* #NOAPP */
 3043               	.LBE678:
 3044               	.LBE677:
 3045               	.LBE676:
 3046               	.LBE675:
 3047               	.LM406:
 3048 10a6 0196      		adiw r24,1
 3049 10a8 883C      		cpi r24,200
 3050 10aa 9105      		cpc r25,__zero_reg__
 3051 10ac 01F4      		brne .L179
 3052               	.L178:
 3053               	.LBE674:
 3054               	.LBE673:
 3055               	.LBB679:
 3056               	.LBB680:
 3057               	.LM407:
 3058 10ae 8091 C000 		lds r24,192
 3059               	.LVL169:
 3060               	.LBE680:
 3061               	.LBE679:
 3062               	.LM408:
 3063 10b2 87FF      		sbrs r24,7
 3064 10b4 00C0      		rjmp .L180
 3065               	.LM409:
 3066 10b6 15B8      		out 37-32,__zero_reg__
 3067 10b8 00C0      		rjmp .L284
 3068               	.LVL170:
 3069               	.L162:
 3070               	.LM410:
 3071 10ba 8FEF      		ldi r24,lo8(-1)
 3072 10bc 87B9      		out 39-32,r24
 3073 10be 00C0      		rjmp .L181
 3074               	.LVL171:
 3075               	.L183:
 3076               	.LM411:
 3077 10c0 88B1      		in r24,40-32
 3078 10c2 8095      		com r24
 3079 10c4 88B9      		out 40-32,r24
 3080 10c6 80E0      		ldi r24,lo8(0)
 3081 10c8 90E0      		ldi r25,hi8(0)
 3082               	.LVL172:
 3083               	.L182:
 3084               	.LBB681:
 3085               	.LBB682:
 3086               	.LBB683:
 3087               	.LBB684:
 3088               	.LBB685:
 3089               	.LBB686:
 3090               	.LM412:
 3091 10ca E0ED      		ldi r30,lo8(2000)
 3092 10cc F7E0      		ldi r31,hi8(2000)
 3093               	/* #APP */
 3094               	 ;  105 "c:/winavr-20100110/lib/gcc/../../avr/include/util/delay_basic.h" 1
 3095 10ce 3197      		1: sbiw r30,1
 3096 10d0 01F4      		brne 1b
 3097               	 ;  0 "" 2
 3098               	/* #NOAPP */
 3099               	.LBE686:
 3100               	.LBE685:
 3101               	.LBE684:
 3102               	.LBE683:
 3103               	.LM413:
 3104 10d2 0196      		adiw r24,1
 3105 10d4 883C      		cpi r24,200
 3106 10d6 9105      		cpc r25,__zero_reg__
 3107 10d8 01F4      		brne .L182
 3108               	.L181:
 3109               	.LBE682:
 3110               	.LBE681:
 3111               	.LBB687:
 3112               	.LBB688:
 3113               	.LM414:
 3114 10da 8091 C000 		lds r24,192
 3115               	.LVL173:
 3116               	.LBE688:
 3117               	.LBE687:
 3118               	.LM415:
 3119 10de 87FF      		sbrs r24,7
 3120 10e0 00C0      		rjmp .L183
 3121               	.LM416:
 3122 10e2 18B8      		out 40-32,__zero_reg__
 3123 10e4 00C0      		rjmp .L284
 3124               	.LVL174:
 3125               	.L163:
 3126               	.LM417:
 3127 10e6 8FEF      		ldi r24,lo8(-1)
 3128 10e8 8AB9      		out 42-32,r24
 3129 10ea 00C0      		rjmp .L184
 3130               	.LVL175:
 3131               	.L186:
 3132               	.LM418:
 3133 10ec 8BB1      		in r24,43-32
 3134 10ee 8095      		com r24
 3135 10f0 8BB9      		out 43-32,r24
 3136 10f2 80E0      		ldi r24,lo8(0)
 3137 10f4 90E0      		ldi r25,hi8(0)
 3138               	.LVL176:
 3139               	.L185:
 3140               	.LBB689:
 3141               	.LBB690:
 3142               	.LBB691:
 3143               	.LBB692:
 3144               	.LBB693:
 3145               	.LBB694:
 3146               	.LM419:
 3147 10f6 E0ED      		ldi r30,lo8(2000)
 3148 10f8 F7E0      		ldi r31,hi8(2000)
 3149               	/* #APP */
 3150               	 ;  105 "c:/winavr-20100110/lib/gcc/../../avr/include/util/delay_basic.h" 1
 3151 10fa 3197      		1: sbiw r30,1
 3152 10fc 01F4      		brne 1b
 3153               	 ;  0 "" 2
 3154               	/* #NOAPP */
 3155               	.LBE694:
 3156               	.LBE693:
 3157               	.LBE692:
 3158               	.LBE691:
 3159               	.LM420:
 3160 10fe 0196      		adiw r24,1
 3161 1100 883C      		cpi r24,200
 3162 1102 9105      		cpc r25,__zero_reg__
 3163 1104 01F4      		brne .L185
 3164               	.L184:
 3165               	.LBE690:
 3166               	.LBE689:
 3167               	.LBB695:
 3168               	.LBB696:
 3169               	.LM421:
 3170 1106 8091 C000 		lds r24,192
 3171               	.LVL177:
 3172               	.LBE696:
 3173               	.LBE695:
 3174               	.LM422:
 3175 110a 87FF      		sbrs r24,7
 3176 110c 00C0      		rjmp .L186
 3177               	.LM423:
 3178 110e 1BB8      		out 43-32,__zero_reg__
 3179 1110 00C0      		rjmp .L284
 3180               	.LVL178:
 3181               	.L363:
 3182               	.LM424:
 3183 1112 8FEF      		ldi r24,lo8(-1)
 3184 1114 8DB9      		out 45-32,r24
 3185 1116 00C0      		rjmp .L187
 3186               	.LVL179:
 3187               	.L189:
 3188               	.LM425:
 3189 1118 8EB1      		in r24,46-32
 3190 111a 8095      		com r24
 3191 111c 8EB9      		out 46-32,r24
 3192 111e 80E0      		ldi r24,lo8(0)
 3193 1120 90E0      		ldi r25,hi8(0)
 3194               	.LVL180:
 3195               	.L188:
 3196               	.LBB697:
 3197               	.LBB698:
 3198               	.LBB699:
 3199               	.LBB700:
 3200               	.LBB701:
 3201               	.LBB702:
 3202               	.LM426:
 3203 1122 E0ED      		ldi r30,lo8(2000)
 3204 1124 F7E0      		ldi r31,hi8(2000)
 3205               	/* #APP */
 3206               	 ;  105 "c:/winavr-20100110/lib/gcc/../../avr/include/util/delay_basic.h" 1
 3207 1126 3197      		1: sbiw r30,1
 3208 1128 01F4      		brne 1b
 3209               	 ;  0 "" 2
 3210               	/* #NOAPP */
 3211               	.LBE702:
 3212               	.LBE701:
 3213               	.LBE700:
 3214               	.LBE699:
 3215               	.LM427:
 3216 112a 0196      		adiw r24,1
 3217 112c 883C      		cpi r24,200
 3218 112e 9105      		cpc r25,__zero_reg__
 3219 1130 01F4      		brne .L188
 3220               	.L187:
 3221               	.LBE698:
 3222               	.LBE697:
 3223               	.LBB703:
 3224               	.LBB704:
 3225               	.LM428:
 3226 1132 8091 C000 		lds r24,192
 3227               	.LVL181:
 3228               	.LBE704:
 3229               	.LBE703:
 3230               	.LM429:
 3231 1136 87FF      		sbrs r24,7
 3232 1138 00C0      		rjmp .L189
 3233               	.LM430:
 3234 113a 1EB8      		out 46-32,__zero_reg__
 3235 113c 00C0      		rjmp .L284
 3236               	.LVL182:
 3237               	.L165:
 3238               	.LM431:
 3239 113e 8FEF      		ldi r24,lo8(-1)
 3240 1140 80BB      		out 48-32,r24
 3241 1142 00C0      		rjmp .L190
 3242               	.LVL183:
 3243               	.L192:
 3244               	.LM432:
 3245 1144 81B3      		in r24,49-32
 3246 1146 8095      		com r24
 3247 1148 81BB      		out 49-32,r24
 3248 114a 80E0      		ldi r24,lo8(0)
 3249 114c 90E0      		ldi r25,hi8(0)
 3250               	.LVL184:
 3251               	.L191:
 3252               	.LBB705:
 3253               	.LBB706:
 3254               	.LBB707:
 3255               	.LBB708:
 3256               	.LBB709:
 3257               	.LBB710:
 3258               	.LM433:
 3259 114e E0ED      		ldi r30,lo8(2000)
 3260 1150 F7E0      		ldi r31,hi8(2000)
 3261               	/* #APP */
 3262               	 ;  105 "c:/winavr-20100110/lib/gcc/../../avr/include/util/delay_basic.h" 1
 3263 1152 3197      		1: sbiw r30,1
 3264 1154 01F4      		brne 1b
 3265               	 ;  0 "" 2
 3266               	/* #NOAPP */
 3267               	.LBE710:
 3268               	.LBE709:
 3269               	.LBE708:
 3270               	.LBE707:
 3271               	.LM434:
 3272 1156 0196      		adiw r24,1
 3273 1158 883C      		cpi r24,200
 3274 115a 9105      		cpc r25,__zero_reg__
 3275 115c 01F4      		brne .L191
 3276               	.L190:
 3277               	.LBE706:
 3278               	.LBE705:
 3279               	.LBB711:
 3280               	.LBB712:
 3281               	.LM435:
 3282 115e 8091 C000 		lds r24,192
 3283               	.LVL185:
 3284               	.LBE712:
 3285               	.LBE711:
 3286               	.LM436:
 3287 1162 87FF      		sbrs r24,7
 3288 1164 00C0      		rjmp .L192
 3289               	.LM437:
 3290 1166 11BA      		out 49-32,__zero_reg__
 3291 1168 00C0      		rjmp .L284
 3292               	.LVL186:
 3293               	.L166:
 3294               	.LM438:
 3295 116a 8FEF      		ldi r24,lo8(-1)
 3296 116c 83BB      		out 51-32,r24
 3297 116e 00C0      		rjmp .L193
 3298               	.LVL187:
 3299               	.L195:
 3300               	.LM439:
 3301 1170 84B3      		in r24,52-32
 3302 1172 8095      		com r24
 3303 1174 84BB      		out 52-32,r24
 3304 1176 80E0      		ldi r24,lo8(0)
 3305 1178 90E0      		ldi r25,hi8(0)
 3306               	.LVL188:
 3307               	.L194:
 3308               	.LBB713:
 3309               	.LBB714:
 3310               	.LBB715:
 3311               	.LBB716:
 3312               	.LBB717:
 3313               	.LBB718:
 3314               	.LM440:
 3315 117a E0ED      		ldi r30,lo8(2000)
 3316 117c F7E0      		ldi r31,hi8(2000)
 3317               	/* #APP */
 3318               	 ;  105 "c:/winavr-20100110/lib/gcc/../../avr/include/util/delay_basic.h" 1
 3319 117e 3197      		1: sbiw r30,1
 3320 1180 01F4      		brne 1b
 3321               	 ;  0 "" 2
 3322               	/* #NOAPP */
 3323               	.LBE718:
 3324               	.LBE717:
 3325               	.LBE716:
 3326               	.LBE715:
 3327               	.LM441:
 3328 1182 0196      		adiw r24,1
 3329 1184 883C      		cpi r24,200
 3330 1186 9105      		cpc r25,__zero_reg__
 3331 1188 01F4      		brne .L194
 3332               	.L193:
 3333               	.LBE714:
 3334               	.LBE713:
 3335               	.LBB719:
 3336               	.LBB720:
 3337               	.LM442:
 3338 118a 8091 C000 		lds r24,192
 3339               	.LVL189:
 3340               	.LBE720:
 3341               	.LBE719:
 3342               	.LM443:
 3343 118e 87FF      		sbrs r24,7
 3344 1190 00C0      		rjmp .L195
 3345               	.LM444:
 3346 1192 14BA      		out 52-32,__zero_reg__
 3347 1194 00C0      		rjmp .L284
 3348               	.LVL190:
 3349               	.L364:
 3350               	.LM445:
 3351 1196 8FEF      		ldi r24,lo8(-1)
 3352 1198 8093 0101 		sts 257,r24
 3353 119c 00C0      		rjmp .L196
 3354               	.LVL191:
 3355               	.L198:
 3356               	.LM446:
 3357 119e 8091 0201 		lds r24,258
 3358 11a2 8095      		com r24
 3359 11a4 8093 0201 		sts 258,r24
 3360 11a8 80E0      		ldi r24,lo8(0)
 3361 11aa 90E0      		ldi r25,hi8(0)
 3362               	.LVL192:
 3363               	.L197:
 3364               	.LBB721:
 3365               	.LBB722:
 3366               	.LBB723:
 3367               	.LBB724:
 3368               	.LBB725:
 3369               	.LBB726:
 3370               	.LM447:
 3371 11ac E0ED      		ldi r30,lo8(2000)
 3372 11ae F7E0      		ldi r31,hi8(2000)
 3373               	/* #APP */
 3374               	 ;  105 "c:/winavr-20100110/lib/gcc/../../avr/include/util/delay_basic.h" 1
 3375 11b0 3197      		1: sbiw r30,1
 3376 11b2 01F4      		brne 1b
 3377               	 ;  0 "" 2
 3378               	/* #NOAPP */
 3379               	.LBE726:
 3380               	.LBE725:
 3381               	.LBE724:
 3382               	.LBE723:
 3383               	.LM448:
 3384 11b4 0196      		adiw r24,1
 3385 11b6 883C      		cpi r24,200
 3386 11b8 9105      		cpc r25,__zero_reg__
 3387 11ba 01F4      		brne .L197
 3388               	.L196:
 3389               	.LBE722:
 3390               	.LBE721:
 3391               	.LBB727:
 3392               	.LBB728:
 3393               	.LM449:
 3394 11bc 8091 C000 		lds r24,192
 3395               	.LVL193:
 3396               	.LBE728:
 3397               	.LBE727:
 3398               	.LM450:
 3399 11c0 87FF      		sbrs r24,7
 3400 11c2 00C0      		rjmp .L198
 3401               	.LM451:
 3402 11c4 1092 0201 		sts 258,__zero_reg__
 3403 11c8 00C0      		rjmp .L284
 3404               	.LVL194:
 3405               	.L168:
 3406               	.LM452:
 3407 11ca 8FEF      		ldi r24,lo8(-1)
 3408 11cc 8093 0401 		sts 260,r24
 3409 11d0 00C0      		rjmp .L199
 3410               	.LVL195:
 3411               	.L201:
 3412               	.LM453:
 3413 11d2 8091 0501 		lds r24,261
 3414 11d6 8095      		com r24
 3415 11d8 8093 0501 		sts 261,r24
 3416 11dc 80E0      		ldi r24,lo8(0)
 3417 11de 90E0      		ldi r25,hi8(0)
 3418               	.LVL196:
 3419               	.L200:
 3420               	.LBB729:
 3421               	.LBB730:
 3422               	.LBB731:
 3423               	.LBB732:
 3424               	.LBB733:
 3425               	.LBB734:
 3426               	.LM454:
 3427 11e0 E0ED      		ldi r30,lo8(2000)
 3428 11e2 F7E0      		ldi r31,hi8(2000)
 3429               	/* #APP */
 3430               	 ;  105 "c:/winavr-20100110/lib/gcc/../../avr/include/util/delay_basic.h" 1
 3431 11e4 3197      		1: sbiw r30,1
 3432 11e6 01F4      		brne 1b
 3433               	 ;  0 "" 2
 3434               	/* #NOAPP */
 3435               	.LBE734:
 3436               	.LBE733:
 3437               	.LBE732:
 3438               	.LBE731:
 3439               	.LM455:
 3440 11e8 0196      		adiw r24,1
 3441 11ea 883C      		cpi r24,200
 3442 11ec 9105      		cpc r25,__zero_reg__
 3443 11ee 01F4      		brne .L200
 3444               	.L199:
 3445               	.LBE730:
 3446               	.LBE729:
 3447               	.LBB735:
 3448               	.LBB736:
 3449               	.LM456:
 3450 11f0 8091 C000 		lds r24,192
 3451               	.LVL197:
 3452               	.LBE736:
 3453               	.LBE735:
 3454               	.LM457:
 3455 11f4 87FF      		sbrs r24,7
 3456 11f6 00C0      		rjmp .L201
 3457               	.LM458:
 3458 11f8 1092 0501 		sts 261,__zero_reg__
 3459 11fc 00C0      		rjmp .L284
 3460               	.LVL198:
 3461               	.L169:
 3462               	.LM459:
 3463 11fe 8FEF      		ldi r24,lo8(-1)
 3464 1200 8093 0701 		sts 263,r24
 3465 1204 00C0      		rjmp .L202
 3466               	.LVL199:
 3467               	.L204:
 3468               	.LM460:
 3469 1206 8091 0801 		lds r24,264
 3470 120a 8095      		com r24
 3471 120c 8093 0801 		sts 264,r24
 3472 1210 80E0      		ldi r24,lo8(0)
 3473 1212 90E0      		ldi r25,hi8(0)
 3474               	.LVL200:
 3475               	.L203:
 3476               	.LBB737:
 3477               	.LBB738:
 3478               	.LBB739:
 3479               	.LBB740:
 3480               	.LBB741:
 3481               	.LBB742:
 3482               	.LM461:
 3483 1214 E0ED      		ldi r30,lo8(2000)
 3484 1216 F7E0      		ldi r31,hi8(2000)
 3485               	/* #APP */
 3486               	 ;  105 "c:/winavr-20100110/lib/gcc/../../avr/include/util/delay_basic.h" 1
 3487 1218 3197      		1: sbiw r30,1
 3488 121a 01F4      		brne 1b
 3489               	 ;  0 "" 2
 3490               	/* #NOAPP */
 3491               	.LBE742:
 3492               	.LBE741:
 3493               	.LBE740:
 3494               	.LBE739:
 3495               	.LM462:
 3496 121c 0196      		adiw r24,1
 3497 121e 883C      		cpi r24,200
 3498 1220 9105      		cpc r25,__zero_reg__
 3499 1222 01F4      		brne .L203
 3500               	.L202:
 3501               	.LBE738:
 3502               	.LBE737:
 3503               	.LBB743:
 3504               	.LBB744:
 3505               	.LM463:
 3506 1224 8091 C000 		lds r24,192
 3507               	.LVL201:
 3508               	.LBE744:
 3509               	.LBE743:
 3510               	.LM464:
 3511 1228 87FF      		sbrs r24,7
 3512 122a 00C0      		rjmp .L204
 3513               	.LM465:
 3514 122c 1092 0801 		sts 264,__zero_reg__
 3515 1230 00C0      		rjmp .L284
 3516               	.LVL202:
 3517               	.L365:
 3518               	.LM466:
 3519 1232 8FEF      		ldi r24,lo8(-1)
 3520 1234 8093 0A01 		sts 266,r24
 3521 1238 00C0      		rjmp .L205
 3522               	.LVL203:
 3523               	.L207:
 3524               	.LM467:
 3525 123a 8091 0B01 		lds r24,267
 3526 123e 8095      		com r24
 3527 1240 8093 0B01 		sts 267,r24
 3528 1244 80E0      		ldi r24,lo8(0)
 3529 1246 90E0      		ldi r25,hi8(0)
 3530               	.LVL204:
 3531               	.L206:
 3532               	.LBB745:
 3533               	.LBB746:
 3534               	.LBB747:
 3535               	.LBB748:
 3536               	.LBB749:
 3537               	.LBB750:
 3538               	.LM468:
 3539 1248 E0ED      		ldi r30,lo8(2000)
 3540 124a F7E0      		ldi r31,hi8(2000)
 3541               	/* #APP */
 3542               	 ;  105 "c:/winavr-20100110/lib/gcc/../../avr/include/util/delay_basic.h" 1
 3543 124c 3197      		1: sbiw r30,1
 3544 124e 01F4      		brne 1b
 3545               	 ;  0 "" 2
 3546               	/* #NOAPP */
 3547               	.LBE750:
 3548               	.LBE749:
 3549               	.LBE748:
 3550               	.LBE747:
 3551               	.LM469:
 3552 1250 0196      		adiw r24,1
 3553 1252 883C      		cpi r24,200
 3554 1254 9105      		cpc r25,__zero_reg__
 3555 1256 01F4      		brne .L206
 3556               	.L205:
 3557               	.LBE746:
 3558               	.LBE745:
 3559               	.LBB751:
 3560               	.LBB752:
 3561               	.LM470:
 3562 1258 8091 C000 		lds r24,192
 3563               	.LVL205:
 3564               	.LBE752:
 3565               	.LBE751:
 3566               	.LM471:
 3567 125c 87FF      		sbrs r24,7
 3568 125e 00C0      		rjmp .L207
 3569               	.LM472:
 3570 1260 1092 0B01 		sts 267,__zero_reg__
 3571 1264 00C0      		rjmp .L284
 3572               	.LVL206:
 3573               	.L159:
 3574               	.LM473:
 3575 1266 80E0      		ldi r24,lo8(gTextMsg_PortNotSupported)
 3576 1268 90E0      		ldi r25,hi8(gTextMsg_PortNotSupported)
 3577 126a 00C0      		rjmp .L350
 3578               	.LVL207:
 3579               	.L284:
 3580               	.LBB753:
 3581               	.LBB754:
 3582               	.LM474:
 3583 126c 8091 C000 		lds r24,192
 3584 1270 87FF      		sbrs r24,7
 3585 1272 00C0      		rjmp .L284
 3586               	.LVL208:
 3587               	.L352:
 3588               	.LM475:
 3589 1274 8091 C600 		lds r24,198
 3590 1278 00C0      		rjmp .L344
 3591               	.LVL209:
 3592               	.L158:
 3593               	.LBE754:
 3594               	.LBE753:
 3595               	.LM476:
 3596 127a 80E0      		ldi r24,lo8(gTextMsg_MustBeLetter)
 3597 127c 90E0      		ldi r25,hi8(gTextMsg_MustBeLetter)
 3598 127e 00C0      		rjmp .L350
 3599               	.LVL210:
 3600               	.L102:
 3601               	.LBE660:
 3602               	.LBE659:
 3603               	.LM477:
 3604 1280 80E0      		ldi r24,lo8(gTextMsg_HUH)
 3605 1282 90E0      		ldi r25,hi8(gTextMsg_HUH)
 3606 1284 00C0      		rjmp .L350
 3607               	.LVL211:
 3608               	.L91:
 3609 1286 8824      		clr r8
 3610 1288 9924      		clr r9
 3611               	.L92:
 3612               	.LBE579:
 3613               	.LBE578:
 3614               	.LM478:
 3615 128a 9330      		cpi r25,lo8(3)
 3616 128c 01F0      		breq .L212
 3617 128e 9430      		cpi r25,lo8(4)
 3618 1290 00F4      		brsh .L216
 3619 1292 9130      		cpi r25,lo8(1)
 3620 1294 01F0      		breq .L210
 3621 1296 9230      		cpi r25,lo8(2)
 3622 1298 00F4      		brsh .L211
 3623 129a 00C0      		rjmp .L366
 3624               	.L216:
 3625 129c 9530      		cpi r25,lo8(5)
 3626 129e 01F0      		breq .L214
 3627 12a0 9530      		cpi r25,lo8(5)
 3628 12a2 00F0      		brlo .L213
 3629 12a4 9630      		cpi r25,lo8(6)
 3630 12a6 01F0      		breq .+2
 3631 12a8 00C0      		rjmp .L347
 3632 12aa 00C0      		rjmp .L367
 3633               	.L366:
 3634               	.LM479:
 3635 12ac 2B31      		cpi r18,lo8(27)
 3636 12ae 01F0      		breq .+2
 3637 12b0 00C0      		rjmp .L345
 3638 12b2 91E0      		ldi r25,lo8(1)
 3639 12b4 6BE1      		ldi r22,lo8(27)
 3640 12b6 00C0      		rjmp .L345
 3641               	.L210:
 3642               	.LM480:
 3643 12b8 6227      		eor r22,r18
 3644 12ba C15D      		subi r28,lo8(-303)
 3645 12bc DE4F      		sbci r29,hi8(-303)
 3646 12be 2883      		st Y,r18
 3647 12c0 CF52      		subi r28,lo8(303)
 3648 12c2 D140      		sbci r29,hi8(303)
 3649               	.LVL212:
 3650 12c4 92E0      		ldi r25,lo8(2)
 3651 12c6 00C0      		rjmp .L345
 3652               	.L211:
 3653               	.LM481:
 3654 12c8 B22F      		mov r27,r18
 3655               	.LVL213:
 3656 12ca A0E0      		ldi r26,lo8(0)
 3657               	.LVL214:
 3658               	.LM482:
 3659 12cc 6227      		eor r22,r18
 3660 12ce 93E0      		ldi r25,lo8(3)
 3661 12d0 00C0      		rjmp .L345
 3662               	.LVL215:
 3663               	.L212:
 3664               	.LM483:
 3665 12d2 822F      		mov r24,r18
 3666 12d4 90E0      		ldi r25,lo8(0)
 3667               	.LVL216:
 3668 12d6 A82B      		or r26,r24
 3669 12d8 B92B      		or r27,r25
 3670               	.LM484:
 3671 12da 6227      		eor r22,r18
 3672 12dc 94E0      		ldi r25,lo8(4)
 3673               	.LVL217:
 3674 12de 00C0      		rjmp .L345
 3675               	.LVL218:
 3676               	.L213:
 3677               	.LM485:
 3678 12e0 2E30      		cpi r18,lo8(14)
 3679 12e2 01F0      		breq .+2
 3680 12e4 00C0      		rjmp .L218
 3681               	.LM486:
 3682 12e6 6227      		eor r22,r18
 3683 12e8 95E0      		ldi r25,lo8(5)
 3684 12ea C05D      		subi r28,lo8(-304)
 3685 12ec DE4F      		sbci r29,hi8(-304)
 3686 12ee 1982      		std Y+1,__zero_reg__
 3687 12f0 1882      		st Y,__zero_reg__
 3688 12f2 C053      		subi r28,lo8(304)
 3689 12f4 D140      		sbci r29,hi8(304)
 3690               	.LVL219:
 3691 12f6 00C0      		rjmp .L345
 3692               	.L214:
 3693               	.LM487:
 3694 12f8 E1E0      		ldi r30,lo8(1)
 3695 12fa F0E0      		ldi r31,hi8(1)
 3696               	.LVL220:
 3697 12fc EC0F      		add r30,r28
 3698 12fe FD1F      		adc r31,r29
 3699 1300 C05D      		subi r28,lo8(-304)
 3700 1302 DE4F      		sbci r29,hi8(-304)
 3701 1304 0881      		ld r16,Y
 3702 1306 1981      		ldd r17,Y+1
 3703 1308 C053      		subi r28,lo8(304)
 3704 130a D140      		sbci r29,hi8(304)
 3705 130c E00F      		add r30,r16
 3706 130e F11F      		adc r31,r17
 3707 1310 2083      		st Z,r18
 3708 1312 0F5F      		subi r16,lo8(-(1))
 3709 1314 1F4F      		sbci r17,hi8(-(1))
 3710 1316 C05D      		subi r28,lo8(-304)
 3711 1318 DE4F      		sbci r29,hi8(-304)
 3712 131a 1983      		std Y+1,r17
 3713 131c 0883      		st Y,r16
 3714 131e C053      		subi r28,lo8(304)
 3715 1320 D140      		sbci r29,hi8(304)
 3716               	.LVL221:
 3717               	.LM488:
 3718 1322 6227      		eor r22,r18
 3719               	.LM489:
 3720 1324 0A17      		cp r16,r26
 3721 1326 1B07      		cpc r17,r27
 3722 1328 01F0      		breq .+2
 3723 132a 00C0      		rjmp .L345
 3724 132c D801      		movw r26,r16
 3725 132e 96E0      		ldi r25,lo8(6)
 3726 1330 00C0      		rjmp .L345
 3727               	.LVL222:
 3728               	.L367:
 3729               	.LM490:
 3730 1332 2617      		cp r18,r22
 3731 1334 01F0      		breq .+2
 3732 1336 00C0      		rjmp .L218
 3733 1338 00C0      		rjmp .L219
 3734               	.L347:
 3735               	.LM491:
 3736 133a 9730      		cpi r25,lo8(7)
 3737 133c 01F0      		breq .+2
 3738 133e 00C0      		rjmp .L345
 3739               	.L219:
 3740 1340 7724      		clr r7
 3741               	.LVL223:
 3742               	.L137:
 3743               	.LM492:
 3744 1342 9981      		ldd r25,Y+1
 3745               	.LVL224:
 3746 1344 9331      		cpi r25,lo8(19)
 3747 1346 01F4      		brne .+2
 3748 1348 00C0      		rjmp .L227
 3749 134a 9431      		cpi r25,lo8(20)
 3750 134c 00F4      		brsh .L234
 3751 134e 9630      		cpi r25,lo8(6)
 3752 1350 01F4      		brne .+2
 3753 1352 00C0      		rjmp .L224
 3754 1354 9730      		cpi r25,lo8(7)
 3755 1356 00F4      		brsh .L235
 3756 1358 9230      		cpi r25,lo8(2)
 3757 135a 01F4      		brne .+2
 3758 135c 00C0      		rjmp .L357
 3759 135e 9330      		cpi r25,lo8(3)
 3760 1360 01F4      		brne .+2
 3761 1362 00C0      		rjmp .L223
 3762 1364 9130      		cpi r25,lo8(1)
 3763 1366 01F0      		breq .+2
 3764 1368 00C0      		rjmp .L220
 3765 136a 00C0      		rjmp .L368
 3766               	.L235:
 3767 136c 9131      		cpi r25,lo8(17)
 3768 136e 01F4      		brne .+2
 3769 1370 00C0      		rjmp .L225
 3770 1372 9231      		cpi r25,lo8(18)
 3771 1374 00F0      		brlo .+2
 3772 1376 00C0      		rjmp .L226
 3773 1378 9031      		cpi r25,lo8(16)
 3774 137a 01F0      		breq .+2
 3775 137c 00C0      		rjmp .L220
 3776 137e 00C0      		rjmp .L357
 3777               	.L234:
 3778 1380 9831      		cpi r25,lo8(24)
 3779 1382 01F4      		brne .+2
 3780 1384 00C0      		rjmp .L229
 3781 1386 9931      		cpi r25,lo8(25)
 3782 1388 00F4      		brsh .L236
 3783 138a 9531      		cpi r25,lo8(21)
 3784 138c 01F4      		brne .+2
 3785 138e 00C0      		rjmp .L227
 3786 1390 9531      		cpi r25,lo8(21)
 3787 1392 00F4      		brsh .+2
 3788 1394 00C0      		rjmp .L228
 3789 1396 9631      		cpi r25,lo8(22)
 3790 1398 01F0      		breq .+2
 3791 139a 00C0      		rjmp .L220
 3792 139c 00C0      		rjmp .L228
 3793               	.L236:
 3794 139e 9A31      		cpi r25,lo8(26)
 3795 13a0 01F4      		brne .+2
 3796 13a2 00C0      		rjmp .L231
 3797 13a4 9A31      		cpi r25,lo8(26)
 3798 13a6 00F4      		brsh .+2
 3799 13a8 00C0      		rjmp .L230
 3800 13aa 9B31      		cpi r25,lo8(27)
 3801 13ac 01F4      		brne .+2
 3802 13ae 00C0      		rjmp .L232
 3803 13b0 9D31      		cpi r25,lo8(29)
 3804 13b2 01F0      		breq .+2
 3805 13b4 00C0      		rjmp .L220
 3806               	.LBB755:
 3807               	.LM493:
 3808 13b6 9D81      		ldd r25,Y+5
 3809 13b8 9033      		cpi r25,lo8(48)
 3810 13ba 01F4      		brne .L237
 3811               	.LBB756:
 3812               	.LM494:
 3813 13bc 8F81      		ldd r24,Y+7
 3814               	.LVL225:
 3815               	.LM495:
 3816 13be 8823      		tst r24
 3817 13c0 01F4      		brne .L238
 3818 13c2 9EE1      		ldi r25,lo8(30)
 3819               	.LVL226:
 3820 13c4 00C0      		rjmp .L239
 3821               	.LVL227:
 3822               	.L238:
 3823               	.LM496:
 3824 13c6 8130      		cpi r24,lo8(1)
 3825 13c8 01F0      		breq .L240
 3826 13ca 91E0      		ldi r25,lo8(1)
 3827               	.LVL228:
 3828 13cc 00C0      		rjmp .L239
 3829               	.LVL229:
 3830               	.L240:
 3831 13ce 98E9      		ldi r25,lo8(-104)
 3832               	.LVL230:
 3833 13d0 00C0      		rjmp .L239
 3834               	.LVL231:
 3835               	.L237:
 3836               	.LBE756:
 3837               	.LM497:
 3838 13d2 892F      		mov r24,r25
 3839 13d4 8075      		andi r24,lo8(80)
 3840 13d6 01F0      		breq .L241
 3841               	.LM498:
 3842 13d8 9035      		cpi r25,lo8(80)
 3843 13da 01F4      		brne .L242
 3844               	.LBB757:
 3845               	.LM499:
 3846 13dc E0E0      		ldi r30,lo8(0)
 3847 13de F0E0      		ldi r31,hi8(0)
 3848               	.LVL232:
 3849 13e0 89E0      		ldi r24,lo8(9)
 3850               	/* #APP */
 3851               	 ;  847 "stk500boot.c" 1
 3852 13e2 8093 5700 		sts 87, r24
 3853 13e6 9491      		lpm r25, Z
 3854               		
 3855               	 ;  0 "" 2
 3856               	.LVL233:
 3857               	/* #NOAPP */
 3858 13e8 00C0      		rjmp .L239
 3859               	.LVL234:
 3860               	.L242:
 3861               	.LBE757:
 3862               	.LM500:
 3863 13ea 9835      		cpi r25,lo8(88)
 3864 13ec 01F4      		brne .L241
 3865               	.LBB758:
 3866               	.LM501:
 3867 13ee E3E0      		ldi r30,lo8(3)
 3868 13f0 F0E0      		ldi r31,hi8(3)
 3869               	.LVL235:
 3870 13f2 89E0      		ldi r24,lo8(9)
 3871               	/* #APP */
 3872               	 ;  851 "stk500boot.c" 1
 3873 13f4 8093 5700 		sts 87, r24
 3874 13f8 9491      		lpm r25, Z
 3875               		
 3876               	 ;  0 "" 2
 3877               	.LVL236:
 3878               	/* #NOAPP */
 3879 13fa 00C0      		rjmp .L239
 3880               	.LVL237:
 3881               	.L241:
 3882 13fc 90E0      		ldi r25,lo8(0)
 3883               	.LVL238:
 3884               	.L239:
 3885               	.LBE758:
 3886               	.LM502:
 3887 13fe 1A82      		std Y+2,__zero_reg__
 3888               	.LM503:
 3889 1400 1B82      		std Y+3,__zero_reg__
 3890               	.LM504:
 3891 1402 8D81      		ldd r24,Y+5
 3892               	.LVL239:
 3893 1404 8C83      		std Y+4,r24
 3894               	.LM505:
 3895 1406 1D82      		std Y+5,__zero_reg__
 3896               	.LM506:
 3897 1408 9E83      		std Y+6,r25
 3898               	.LM507:
 3899 140a 1F82      		std Y+7,__zero_reg__
 3900 140c 27E0      		ldi r18,lo8(7)
 3901 140e 30E0      		ldi r19,hi8(7)
 3902               	.LVL240:
 3903 1410 00C0      		rjmp .L243
 3904               	.LVL241:
 3905               	.L368:
 3906               	.LBE755:
 3907               	.LM508:
 3908 1412 1A82      		std Y+2,__zero_reg__
 3909               	.LM509:
 3910 1414 88E0      		ldi r24,lo8(8)
 3911 1416 8B83      		std Y+3,r24
 3912               	.LM510:
 3913 1418 81E4      		ldi r24,lo8(65)
 3914 141a 8C83      		std Y+4,r24
 3915               	.LM511:
 3916 141c 86E5      		ldi r24,lo8(86)
 3917 141e 8D83      		std Y+5,r24
 3918               	.LM512:
 3919 1420 82E5      		ldi r24,lo8(82)
 3920 1422 8E83      		std Y+6,r24
 3921               	.LM513:
 3922 1424 89E4      		ldi r24,lo8(73)
 3923 1426 8F83      		std Y+7,r24
 3924               	.LM514:
 3925 1428 83E5      		ldi r24,lo8(83)
 3926 142a 8887      		std Y+8,r24
 3927               	.LM515:
 3928 142c 80E5      		ldi r24,lo8(80)
 3929 142e 8987      		std Y+9,r24
 3930               	.LM516:
 3931 1430 8FE5      		ldi r24,lo8(95)
 3932 1432 8A87      		std Y+10,r24
 3933               	.LM517:
 3934 1434 82E3      		ldi r24,lo8(50)
 3935 1436 8B87      		std Y+11,r24
 3936 1438 2BE0      		ldi r18,lo8(11)
 3937 143a 30E0      		ldi r19,hi8(11)
 3938               	.LVL242:
 3939 143c 00C0      		rjmp .L243
 3940               	.LVL243:
 3941               	.L223:
 3942               	.LBB759:
 3943               	.LM518:
 3944 143e 8A81      		ldd r24,Y+2
 3945 1440 8139      		cpi r24,lo8(-111)
 3946 1442 01F0      		breq .L246
 3947 1444 8239      		cpi r24,lo8(-110)
 3948 1446 01F0      		breq .L247
 3949 1448 8039      		cpi r24,lo8(-112)
 3950 144a 01F4      		brne .L348
 3951 144c 8FE0      		ldi r24,lo8(15)
 3952               	.LVL244:
 3953 144e 00C0      		rjmp .L248
 3954               	.LVL245:
 3955               	.L348:
 3956 1450 80E0      		ldi r24,lo8(0)
 3957               	.LVL246:
 3958 1452 00C0      		rjmp .L248
 3959               	.LVL247:
 3960               	.L246:
 3961 1454 82E0      		ldi r24,lo8(2)
 3962               	.LVL248:
 3963 1456 00C0      		rjmp .L248
 3964               	.LVL249:
 3965               	.L247:
 3966               	.LM519:
 3967 1458 8AE0      		ldi r24,lo8(10)
 3968               	.LVL250:
 3969               	.L248:
 3970               	.LM520:
 3971 145a 1A82      		std Y+2,__zero_reg__
 3972               	.LM521:
 3973 145c 8B83      		std Y+3,r24
 3974 145e 00C0      		rjmp .L354
 3975               	.LVL251:
 3976               	.L225:
 3977               	.LM522:
 3978 1460 7724      		clr r7
 3979 1462 7394      		inc r7
 3980 1464 00C0      		rjmp .L357
 3981               	.L232:
 3982               	.LBE759:
 3983               	.LBB760:
 3984               	.LM523:
 3985 1466 8D81      		ldd r24,Y+5
 3986               	.LVL252:
 3987               	.LM524:
 3988 1468 8823      		tst r24
 3989 146a 01F4      		brne .L249
 3990 146c 8EE1      		ldi r24,lo8(30)
 3991               	.LVL253:
 3992 146e 00C0      		rjmp .L254
 3993               	.LVL254:
 3994               	.L249:
 3995               	.LM525:
 3996 1470 8130      		cpi r24,lo8(1)
 3997 1472 01F0      		breq .L251
 3998 1474 81E0      		ldi r24,lo8(1)
 3999               	.LVL255:
 4000 1476 00C0      		rjmp .L254
 4001               	.LVL256:
 4002               	.L251:
 4003 1478 88E9      		ldi r24,lo8(-104)
 4004               	.LVL257:
 4005 147a 00C0      		rjmp .L254
 4006               	.LVL258:
 4007               	.L231:
 4008               	.LBE760:
 4009               	.LM526:
 4010 147c 1A82      		std Y+2,__zero_reg__
 4011               	.LBB761:
 4012               	.LM527:
 4013 147e E1E0      		ldi r30,lo8(1)
 4014 1480 F0E0      		ldi r31,hi8(1)
 4015               	.LVL259:
 4016 1482 89E0      		ldi r24,lo8(9)
 4017               	/* #APP */
 4018               	 ;  952 "stk500boot.c" 1
 4019 1484 8093 5700 		sts 87, r24
 4020 1488 8491      		lpm r24, Z
 4021               		
 4022               	 ;  0 "" 2
 4023               	.LVL260:
 4024               	/* #NOAPP */
 4025               	.L356:
 4026               	.LBE761:
 4027 148a 8B83      		std Y+3,r24
 4028               	.LM528:
 4029 148c 1C82      		std Y+4,__zero_reg__
 4030 148e 24E0      		ldi r18,lo8(4)
 4031 1490 30E0      		ldi r19,hi8(4)
 4032               	.LVL261:
 4033 1492 00C0      		rjmp .L243
 4034               	.LVL262:
 4035               	.L229:
 4036               	.LBB762:
 4037               	.LM529:
 4038 1494 8B81      		ldd r24,Y+3
 4039 1496 8035      		cpi r24,lo8(80)
 4040 1498 01F4      		brne .L252
 4041               	.LM530:
 4042 149a 8C81      		ldd r24,Y+4
 4043 149c 8830      		cpi r24,lo8(8)
 4044 149e 01F4      		brne .L253
 4045               	.LBB763:
 4046               	.LM531:
 4047 14a0 E2E0      		ldi r30,lo8(2)
 4048 14a2 F0E0      		ldi r31,hi8(2)
 4049               	.LVL263:
 4050 14a4 89E0      		ldi r24,lo8(9)
 4051               	/* #APP */
 4052               	 ;  963 "stk500boot.c" 1
 4053 14a6 8093 5700 		sts 87, r24
 4054 14aa 8491      		lpm r24, Z
 4055               		
 4056               	 ;  0 "" 2
 4057               	.LVL264:
 4058               	/* #NOAPP */
 4059 14ac 00C0      		rjmp .L254
 4060               	.LVL265:
 4061               	.L253:
 4062               	.LBE763:
 4063               	.LBB764:
 4064               	.LM532:
 4065 14ae E0E0      		ldi r30,lo8(0)
 4066 14b0 F0E0      		ldi r31,hi8(0)
 4067               	.LVL266:
 4068 14b2 89E0      		ldi r24,lo8(9)
 4069               	/* #APP */
 4070               	 ;  965 "stk500boot.c" 1
 4071 14b4 8093 5700 		sts 87, r24
 4072 14b8 8491      		lpm r24, Z
 4073               		
 4074               	 ;  0 "" 2
 4075               	.LVL267:
 4076               	/* #NOAPP */
 4077 14ba 00C0      		rjmp .L254
 4078               	.LVL268:
 4079               	.L252:
 4080               	.LBE764:
 4081               	.LBB765:
 4082               	.LM533:
 4083 14bc E3E0      		ldi r30,lo8(3)
 4084 14be F0E0      		ldi r31,hi8(3)
 4085               	.LVL269:
 4086 14c0 89E0      		ldi r24,lo8(9)
 4087               	/* #APP */
 4088               	 ;  969 "stk500boot.c" 1
 4089 14c2 8093 5700 		sts 87, r24
 4090 14c6 8491      		lpm r24, Z
 4091               		
 4092               	 ;  0 "" 2
 4093               	.LVL270:
 4094               	/* #NOAPP */
 4095               	.L254:
 4096               	.LBE765:
 4097               	.LM534:
 4098 14c8 1A82      		std Y+2,__zero_reg__
 4099 14ca 00C0      		rjmp .L356
 4100               	.LVL271:
 4101               	.L230:
 4102               	.LBE762:
 4103               	.LBB766:
 4104               	.LM535:
 4105 14cc 8D81      		ldd r24,Y+5
 4106               	.LBB767:
 4107               	.LM536:
 4108 14ce 836C      		ori r24,lo8(-61)
 4109 14d0 99E0      		ldi r25,lo8(9)
 4110               	/* #APP */
 4111               	 ;  984 "stk500boot.c" 1
 4112 14d2 E1E0      		ldi r30, 1
 4113 14d4 F0E0      		ldi r31, 0
 4114 14d6 082E      		mov r0, r24
 4115 14d8 9093 5700 		sts 87, r25
 4116 14dc E895      		spm
 4117               		
 4118               	 ;  0 "" 2
 4119               	.LVL272:
 4120               	/* #NOAPP */
 4121               	.L255:
 4122               	.LBE767:
 4123               	.LM537:
 4124 14de 07B6      		in __tmp_reg__,87-32
 4125 14e0 00FC      		sbrc __tmp_reg__,0
 4126 14e2 00C0      		rjmp .L255
 4127               	.LM538:
 4128 14e4 1A82      		std Y+2,__zero_reg__
 4129               	.LM539:
 4130 14e6 1B82      		std Y+3,__zero_reg__
 4131               	.LVL273:
 4132               	.L354:
 4133 14e8 23E0      		ldi r18,lo8(3)
 4134 14ea 30E0      		ldi r19,hi8(3)
 4135               	.LVL274:
 4136 14ec 00C0      		rjmp .L243
 4137               	.LVL275:
 4138               	.L226:
 4139               	.LBE766:
 4140               	.LM540:
 4141 14ee 80EC      		ldi r24,lo8(-64)
 4142 14f0 8A83      		std Y+2,r24
 4143 14f2 CE5C      		subi r28,lo8(-306)
 4144 14f4 DE4F      		sbci r29,hi8(-306)
 4145 14f6 1882      		st Y,__zero_reg__
 4146 14f8 1982      		std Y+1,__zero_reg__
 4147 14fa 1A82      		std Y+2,__zero_reg__
 4148 14fc 1B82      		std Y+3,__zero_reg__
 4149 14fe C253      		subi r28,lo8(306)
 4150 1500 D140      		sbci r29,hi8(306)
 4151               	.LVL276:
 4152 1502 00C0      		rjmp .L355
 4153               	.L224:
 4154               	.LM541:
 4155 1504 8A81      		ldd r24,Y+2
 4156 1506 90E0      		ldi r25,lo8(0)
 4157 1508 A0E0      		ldi r26,lo8(0)
 4158 150a B0E0      		ldi r27,hi8(0)
 4159               	.LVL277:
 4160 150c 582F      		mov r21,r24
 4161 150e 4427      		clr r20
 4162 1510 3327      		clr r19
 4163 1512 2227      		clr r18
 4164               	.LVL278:
 4165 1514 8B81      		ldd r24,Y+3
 4166 1516 90E0      		ldi r25,lo8(0)
 4167 1518 A0E0      		ldi r26,lo8(0)
 4168 151a B0E0      		ldi r27,hi8(0)
 4169 151c DC01      		movw r26,r24
 4170 151e 9927      		clr r25
 4171 1520 8827      		clr r24
 4172 1522 282B      		or r18,r24
 4173 1524 392B      		or r19,r25
 4174 1526 4A2B      		or r20,r26
 4175 1528 5B2B      		or r21,r27
 4176 152a 8D81      		ldd r24,Y+5
 4177 152c 90E0      		ldi r25,lo8(0)
 4178 152e A0E0      		ldi r26,lo8(0)
 4179 1530 B0E0      		ldi r27,hi8(0)
 4180 1532 282B      		or r18,r24
 4181 1534 392B      		or r19,r25
 4182 1536 4A2B      		or r20,r26
 4183 1538 5B2B      		or r21,r27
 4184 153a 8C81      		ldd r24,Y+4
 4185 153c 90E0      		ldi r25,lo8(0)
 4186 153e A0E0      		ldi r26,lo8(0)
 4187 1540 B0E0      		ldi r27,hi8(0)
 4188 1542 BA2F      		mov r27,r26
 4189 1544 A92F      		mov r26,r25
 4190 1546 982F      		mov r25,r24
 4191 1548 8827      		clr r24
 4192               	.LVL279:
 4193 154a 282B      		or r18,r24
 4194 154c 392B      		or r19,r25
 4195 154e 4A2B      		or r20,r26
 4196 1550 5B2B      		or r21,r27
 4197 1552 220F      		lsl r18
 4198 1554 331F      		rol r19
 4199 1556 441F      		rol r20
 4200 1558 551F      		rol r21
 4201 155a C05E      		subi r28,lo8(-288)
 4202 155c DE4F      		sbci r29,hi8(-288)
 4203 155e 2883      		st Y,r18
 4204 1560 3983      		std Y+1,r19
 4205 1562 4A83      		std Y+2,r20
 4206 1564 5B83      		std Y+3,r21
 4207 1566 C052      		subi r28,lo8(288)
 4208 1568 D140      		sbci r29,hi8(288)
 4209               	.LVL280:
 4210               	.L357:
 4211               	.LM542:
 4212 156a 1A82      		std Y+2,__zero_reg__
 4213 156c 00C0      		rjmp .L355
 4214               	.L227:
 4215               	.LBB768:
 4216               	.LM543:
 4217 156e 3A81      		ldd r19,Y+2
 4218               	.LVL281:
 4219 1570 C95C      		subi r28,lo8(-311)
 4220 1572 DE4F      		sbci r29,hi8(-311)
 4221 1574 3883      		st Y,r19
 4222 1576 C753      		subi r28,lo8(311)
 4223 1578 D140      		sbci r29,hi8(311)
 4224 157a CA5C      		subi r28,lo8(-310)
 4225 157c DE4F      		sbci r29,hi8(-310)
 4226 157e 1882      		st Y,__zero_reg__
 4227 1580 C653      		subi r28,lo8(310)
 4228 1582 D140      		sbci r29,hi8(310)
 4229 1584 8B81      		ldd r24,Y+3
 4230 1586 C82E      		mov r12,r24
 4231               	.LVL282:
 4232 1588 DD24      		clr r13
 4233               	.LVL283:
 4234 158a CA5C      		subi r28,lo8(-310)
 4235 158c DE4F      		sbci r29,hi8(-310)
 4236 158e 4881      		ld r20,Y
 4237 1590 5981      		ldd r21,Y+1
 4238 1592 C653      		subi r28,lo8(310)
 4239 1594 D140      		sbci r29,hi8(310)
 4240 1596 C42A      		or r12,r20
 4241 1598 D52A      		or r13,r21
 4242               	.LVL284:
 4243               	.LM544:
 4244 159a 9331      		cpi r25,lo8(19)
 4245 159c 01F0      		breq .+2
 4246 159e 00C0      		rjmp .L256
 4247               	.LM545:
 4248 15a0 CE5C      		subi r28,lo8(-306)
 4249 15a2 DE4F      		sbci r29,hi8(-306)
 4250 15a4 8881      		ld r24,Y
 4251 15a6 9981      		ldd r25,Y+1
 4252 15a8 AA81      		ldd r26,Y+2
 4253 15aa BB81      		ldd r27,Y+3
 4254 15ac C253      		subi r28,lo8(306)
 4255 15ae D140      		sbci r29,hi8(306)
 4256 15b0 8050      		subi r24,lo8(245760)
 4257 15b2 904C      		sbci r25,hi8(245760)
 4258 15b4 A340      		sbci r26,hlo8(245760)
 4259 15b6 B040      		sbci r27,hhi8(245760)
 4260               	.LVL285:
 4261 15b8 00F4      		brsh .L257
 4262               	.LM546:
 4263 15ba 83E0      		ldi r24,lo8(3)
 4264 15bc CE5C      		subi r28,lo8(-306)
 4265 15be DE4F      		sbci r29,hi8(-306)
 4266 15c0 E880      		ld r14,Y
 4267 15c2 F980      		ldd r15,Y+1
 4268 15c4 0A81      		ldd r16,Y+2
 4269 15c6 1B81      		ldd r17,Y+3
 4270 15c8 C253      		subi r28,lo8(306)
 4271 15ca D140      		sbci r29,hi8(306)
 4272               	.LVL286:
 4273               	/* #APP */
 4274               	 ;  1025 "stk500boot.c" 1
 4275 15cc F701      		movw r30, r14
 4276 15ce 0093 5B00 		sts  91, r16
 4277 15d2 8093 5700 		sts 87, r24
 4278 15d6 E895      		spm
 4279               		
 4280               	 ;  0 "" 2
 4281               	/* #NOAPP */
 4282               	.L258:
 4283               	.LM547:
 4284 15d8 07B6      		in __tmp_reg__,87-32
 4285 15da 00FC      		sbrc __tmp_reg__,0
 4286 15dc 00C0      		rjmp .L258
 4287               	.LM548:
 4288 15de CE5C      		subi r28,lo8(-306)
 4289 15e0 DE4F      		sbci r29,hi8(-306)
 4290 15e2 0881      		ld r16,Y
 4291 15e4 1981      		ldd r17,Y+1
 4292 15e6 2A81      		ldd r18,Y+2
 4293 15e8 3B81      		ldd r19,Y+3
 4294 15ea C253      		subi r28,lo8(306)
 4295 15ec D140      		sbci r29,hi8(306)
 4296               	.LVL287:
 4297 15ee 0050      		subi r16,lo8(-(256))
 4298 15f0 1F4F      		sbci r17,hi8(-(256))
 4299 15f2 2F4F      		sbci r18,hlo8(-(256))
 4300 15f4 3F4F      		sbci r19,hhi8(-(256))
 4301 15f6 CE5C      		subi r28,lo8(-306)
 4302 15f8 DE4F      		sbci r29,hi8(-306)
 4303 15fa 0883      		st Y,r16
 4304 15fc 1983      		std Y+1,r17
 4305 15fe 2A83      		std Y+2,r18
 4306 1600 3B83      		std Y+3,r19
 4307 1602 C253      		subi r28,lo8(306)
 4308 1604 D140      		sbci r29,hi8(306)
 4309               	.LVL288:
 4310               	.L257:
 4311 1606 C05E      		subi r28,lo8(-288)
 4312 1608 DE4F      		sbci r29,hi8(-288)
 4313 160a 4881      		ld r20,Y
 4314 160c 5981      		ldd r21,Y+1
 4315 160e 6A81      		ldd r22,Y+2
 4316 1610 7B81      		ldd r23,Y+3
 4317 1612 C052      		subi r28,lo8(288)
 4318 1614 D140      		sbci r29,hi8(288)
 4319 1616 DE01      		movw r26,r28
 4320               	.LVL289:
 4321 1618 1B96      		adiw r26,11
 4322               	.LM549:
 4323 161a 31E0      		ldi r19,lo8(1)
 4324               	.LVL290:
 4325               	.L259:
 4326               	.LM550:
 4327 161c 8C91      		ld r24,X
 4328               	.LVL291:
 4329               	.LM551:
 4330 161e 1196      		adiw r26,1
 4331 1620 2C91      		ld r18,X
 4332 1622 1197      		sbiw r26,1
 4333               	.LVL292:
 4334               	.LM552:
 4335 1624 1296      		adiw r26,2
 4336               	.LM553:
 4337 1626 C75C      		subi r28,lo8(-313)
 4338 1628 DE4F      		sbci r29,hi8(-313)
 4339 162a 2883      		st Y,r18
 4340 162c C953      		subi r28,lo8(313)
 4341 162e D140      		sbci r29,hi8(313)
 4342 1630 C85C      		subi r28,lo8(-312)
 4343 1632 DE4F      		sbci r29,hi8(-312)
 4344 1634 1882      		st Y,__zero_reg__
 4345 1636 C853      		subi r28,lo8(312)
 4346 1638 D140      		sbci r29,hi8(312)
 4347 163a 90E0      		ldi r25,lo8(0)
 4348 163c C85C      		subi r28,lo8(-312)
 4349 163e DE4F      		sbci r29,hi8(-312)
 4350 1640 E881      		ld r30,Y
 4351 1642 F981      		ldd r31,Y+1
 4352 1644 C853      		subi r28,lo8(312)
 4353 1646 D140      		sbci r29,hi8(312)
 4354 1648 8E2B      		or r24,r30
 4355 164a 9F2B      		or r25,r31
 4356               	.LVL293:
 4357               	/* #APP */
 4358               	 ;  1036 "stk500boot.c" 1
 4359 164c 0C01      		movw  r0, r24
 4360 164e FA01      		movw r30, r20
 4361 1650 6093 5B00 		sts 91, r22
 4362 1654 3093 5700 		sts 87, r19
 4363 1658 E895      		spm
 4364 165a 1124      		clr  r1
 4365               		
 4366               	 ;  0 "" 2
 4367               	.LM554:
 4368               	/* #NOAPP */
 4369 165c 4E5F      		subi r20,lo8(-(2))
 4370 165e 5F4F      		sbci r21,hi8(-(2))
 4371 1660 6F4F      		sbci r22,hlo8(-(2))
 4372 1662 7F4F      		sbci r23,hhi8(-(2))
 4373               	.LM555:
 4374 1664 0EEF      		ldi r16,lo8(-2)
 4375 1666 E02E      		mov r14,r16
 4376 1668 0FEF      		ldi r16,hi8(-2)
 4377 166a F02E      		mov r15,r16
 4378               	.LVL294:
 4379 166c CE0C      		add r12,r14
 4380 166e DF1C      		adc r13,r15
 4381               	.LM556:
 4382 1670 C114      		cp r12,__zero_reg__
 4383 1672 D104      		cpc r13,__zero_reg__
 4384 1674 01F4      		brne .L259
 4385               	.LM557:
 4386 1676 85E0      		ldi r24,lo8(5)
 4387               	.LVL295:
 4388 1678 C05E      		subi r28,lo8(-288)
 4389 167a DE4F      		sbci r29,hi8(-288)
 4390 167c 0881      		ld r16,Y
 4391 167e 1981      		ldd r17,Y+1
 4392 1680 2A81      		ldd r18,Y+2
 4393 1682 3B81      		ldd r19,Y+3
 4394 1684 C052      		subi r28,lo8(288)
 4395 1686 D140      		sbci r29,hi8(288)
 4396               	/* #APP */
 4397               	 ;  1042 "stk500boot.c" 1
 4398 1688 F801      		movw r30, r16
 4399 168a 2093 5B00 		sts 91, r18
 4400 168e 8093 5700 		sts 87, r24
 4401 1692 E895      		spm
 4402               		
 4403               	 ;  0 "" 2
 4404               	.LVL296:
 4405               	/* #NOAPP */
 4406               	.L260:
 4407               	.LM558:
 4408 1694 07B6      		in __tmp_reg__,87-32
 4409 1696 00FC      		sbrc __tmp_reg__,0
 4410 1698 00C0      		rjmp .L260
 4411               	.LM559:
 4412 169a 81E1      		ldi r24,lo8(17)
 4413               	/* #APP */
 4414               	 ;  1044 "stk500boot.c" 1
 4415 169c 8093 5700 		sts 87, r24
 4416 16a0 E895      		spm
 4417               		
 4418               	 ;  0 "" 2
 4419               	/* #NOAPP */
 4420 16a2 00C0      		rjmp .L261
 4421               	.LVL297:
 4422               	.L256:
 4423               	.LBB769:
 4424               	.LM560:
 4425 16a4 C05E      		subi r28,lo8(-288)
 4426 16a6 DE4F      		sbci r29,hi8(-288)
 4427 16a8 8881      		ld r24,Y
 4428 16aa 9981      		ldd r25,Y+1
 4429 16ac AA81      		ldd r26,Y+2
 4430 16ae BB81      		ldd r27,Y+3
 4431 16b0 C052      		subi r28,lo8(288)
 4432 16b2 D140      		sbci r29,hi8(288)
 4433 16b4 B695      		lsr r27
 4434 16b6 A795      		ror r26
 4435 16b8 9795      		ror r25
 4436 16ba 8795      		ror r24
 4437               	.LVL298:
 4438 16bc 7C01      		movw r14,r24
 4439               	.LVL299:
 4440 16be 8601      		movw r16,r12
 4441               	.LVL300:
 4442 16c0 ABE0      		ldi r26,lo8(11)
 4443 16c2 AA2E      		mov r10,r26
 4444 16c4 B12C      		mov r11,__zero_reg__
 4445               	.LVL301:
 4446 16c6 AC0E      		add r10,r28
 4447 16c8 BD1E      		adc r11,r29
 4448 16ca 00C0      		rjmp .L262
 4449               	.LVL302:
 4450               	.L263:
 4451               	.LM561:
 4452 16cc D501      		movw r26,r10
 4453 16ce 6D91      		ld r22,X+
 4454               	.LVL303:
 4455 16d0 5D01      		movw r10,r26
 4456 16d2 C701      		movw r24,r14
 4457 16d4 0E94 0000 		call __eewr_byte_m2560
 4458               	.LVL304:
 4459               	.LM562:
 4460 16d8 0894      		sec
 4461 16da E11C      		adc r14,__zero_reg__
 4462 16dc F11C      		adc r15,__zero_reg__
 4463               	.LM563:
 4464 16de 0150      		subi r16,lo8(-(-1))
 4465 16e0 1040      		sbci r17,hi8(-(-1))
 4466               	.LVL305:
 4467               	.L262:
 4468               	.LM564:
 4469 16e2 0115      		cp r16,__zero_reg__
 4470 16e4 1105      		cpc r17,__zero_reg__
 4471 16e6 01F4      		brne .L263
 4472 16e8 A601      		movw r20,r12
 4473               	.LVL306:
 4474 16ea 60E0      		ldi r22,lo8(0)
 4475 16ec 70E0      		ldi r23,hi8(0)
 4476               	.LVL307:
 4477 16ee 440F      		lsl r20
 4478 16f0 551F      		rol r21
 4479 16f2 661F      		rol r22
 4480 16f4 771F      		rol r23
 4481               	.LVL308:
 4482 16f6 C05E      		subi r28,lo8(-288)
 4483 16f8 DE4F      		sbci r29,hi8(-288)
 4484 16fa E880      		ld r14,Y
 4485 16fc F980      		ldd r15,Y+1
 4486 16fe 0A81      		ldd r16,Y+2
 4487 1700 1B81      		ldd r17,Y+3
 4488 1702 C052      		subi r28,lo8(288)
 4489 1704 D140      		sbci r29,hi8(288)
 4490               	.LVL309:
 4491 1706 4E0D      		add r20,r14
 4492 1708 5F1D      		adc r21,r15
 4493 170a 601F      		adc r22,r16
 4494 170c 711F      		adc r23,r17
 4495               	.LVL310:
 4496               	.L261:
 4497               	.LBE769:
 4498               	.LM565:
 4499 170e 1A82      		std Y+2,__zero_reg__
 4500 1710 C05E      		subi r28,lo8(-288)
 4501 1712 DE4F      		sbci r29,hi8(-288)
 4502 1714 4883      		st Y,r20
 4503 1716 5983      		std Y+1,r21
 4504 1718 6A83      		std Y+2,r22
 4505 171a 7B83      		std Y+3,r23
 4506 171c C052      		subi r28,lo8(288)
 4507 171e D140      		sbci r29,hi8(288)
 4508 1720 00C0      		rjmp .L355
 4509               	.LVL311:
 4510               	.L228:
 4511               	.LBE768:
 4512               	.LBB770:
 4513               	.LM566:
 4514 1722 FA80      		ldd r15,Y+2
 4515               	.LVL312:
 4516 1724 C55C      		subi r28,lo8(-315)
 4517 1726 DE4F      		sbci r29,hi8(-315)
 4518 1728 F882      		st Y,r15
 4519 172a CB53      		subi r28,lo8(315)
 4520 172c D140      		sbci r29,hi8(315)
 4521 172e C65C      		subi r28,lo8(-314)
 4522 1730 DE4F      		sbci r29,hi8(-314)
 4523 1732 1882      		st Y,__zero_reg__
 4524 1734 CA53      		subi r28,lo8(314)
 4525 1736 D140      		sbci r29,hi8(314)
 4526 1738 8B81      		ldd r24,Y+3
 4527 173a C82E      		mov r12,r24
 4528               	.LVL313:
 4529 173c DD24      		clr r13
 4530               	.LVL314:
 4531 173e C65C      		subi r28,lo8(-314)
 4532 1740 DE4F      		sbci r29,hi8(-314)
 4533 1742 0881      		ld r16,Y
 4534 1744 1981      		ldd r17,Y+1
 4535 1746 CA53      		subi r28,lo8(314)
 4536 1748 D140      		sbci r29,hi8(314)
 4537               	.LVL315:
 4538 174a C02A      		or r12,r16
 4539 174c D12A      		or r13,r17
 4540               	.LVL316:
 4541               	.LM567:
 4542 174e 1A82      		std Y+2,__zero_reg__
 4543               	.LM568:
 4544 1750 8981      		ldd r24,Y+1
 4545 1752 BE01      		movw r22,r28
 4546               	.LVL317:
 4547 1754 6D5F      		subi r22,lo8(-(3))
 4548 1756 7F4F      		sbci r23,hi8(-(3))
 4549 1758 8431      		cpi r24,lo8(20)
 4550 175a 01F4      		brne .L264
 4551 175c 9601      		movw r18,r12
 4552               	.LVL318:
 4553               	.L265:
 4554               	.LBB771:
 4555               	.LBB772:
 4556               	.LM569:
 4557 175e C05E      		subi r28,lo8(-288)
 4558 1760 DE4F      		sbci r29,hi8(-288)
 4559 1762 E880      		ld r14,Y
 4560 1764 F980      		ldd r15,Y+1
 4561 1766 0A81      		ldd r16,Y+2
 4562 1768 1B81      		ldd r17,Y+3
 4563 176a C052      		subi r28,lo8(288)
 4564 176c D140      		sbci r29,hi8(288)
 4565               	.LVL319:
 4566               	/* #APP */
 4567               	 ;  1079 "stk500boot.c" 1
 4568 176e 0BBF      		out 59, r16
 4569 1770 F701      		movw r30, r14
 4570 1772 8791      		elpm r24, Z+
 4571 1774 9691      		elpm r25, Z
 4572               		
 4573               	 ;  0 "" 2
 4574               	.LVL320:
 4575               	/* #NOAPP */
 4576               	.LBE772:
 4577               	.LM570:
 4578 1776 DB01      		movw r26,r22
 4579               	.LVL321:
 4580 1778 8C93      		st X,r24
 4581               	.LM571:
 4582 177a 1196      		adiw r26,1
 4583 177c 9C93      		st X,r25
 4584               	.LM572:
 4585 177e 6E5F      		subi r22,lo8(-(2))
 4586 1780 7F4F      		sbci r23,hi8(-(2))
 4587               	.LVL322:
 4588               	.LM573:
 4589 1782 D801      		movw r26,r16
 4590 1784 C701      		movw r24,r14
 4591               	.LVL323:
 4592 1786 0296      		adiw r24,2
 4593 1788 A11D      		adc r26,__zero_reg__
 4594 178a B11D      		adc r27,__zero_reg__
 4595 178c C05E      		subi r28,lo8(-288)
 4596 178e DE4F      		sbci r29,hi8(-288)
 4597 1790 8883      		st Y,r24
 4598 1792 9983      		std Y+1,r25
 4599 1794 AA83      		std Y+2,r26
 4600 1796 BB83      		std Y+3,r27
 4601 1798 C052      		subi r28,lo8(288)
 4602 179a D140      		sbci r29,hi8(288)
 4603               	.LVL324:
 4604               	.LM574:
 4605 179c 2250      		subi r18,lo8(-(-2))
 4606 179e 3040      		sbci r19,hi8(-(-2))
 4607               	.LM575:
 4608 17a0 01F4      		brne .L265
 4609 17a2 00C0      		rjmp .L266
 4610               	.LVL325:
 4611               	.L264:
 4612 17a4 C05E      		subi r28,lo8(-288)
 4613 17a6 DE4F      		sbci r29,hi8(-288)
 4614 17a8 2881      		ld r18,Y
 4615 17aa 3981      		ldd r19,Y+1
 4616 17ac 4A81      		ldd r20,Y+2
 4617 17ae 5B81      		ldd r21,Y+3
 4618 17b0 C052      		subi r28,lo8(288)
 4619 17b2 D140      		sbci r29,hi8(288)
 4620               	.LVL326:
 4621               	.LBE771:
 4622               	.LM576:
 4623 17b4 0894      		sec
 4624 17b6 C108      		sbc r12,__zero_reg__
 4625 17b8 D108      		sbc r13,__zero_reg__
 4626               	.LM577:
 4627 17ba 7601      		movw r14,r12
 4628               	.LVL327:
 4629 17bc 00E0      		ldi r16,lo8(0)
 4630 17be 10E0      		ldi r17,hi8(0)
 4631 17c0 0894      		sec
 4632 17c2 C11C      		adc r12,__zero_reg__
 4633 17c4 D11C      		adc r13,__zero_reg__
 4634 17c6 0894      		sec
 4635 17c8 E11C      		adc r14,__zero_reg__
 4636 17ca F11C      		adc r15,__zero_reg__
 4637 17cc 011D      		adc r16,__zero_reg__
 4638 17ce 111D      		adc r17,__zero_reg__
 4639 17d0 E20E      		add r14,r18
 4640 17d2 F31E      		adc r15,r19
 4641 17d4 041F      		adc r16,r20
 4642 17d6 151F      		adc r17,r21
 4643               	.LVL328:
 4644               	.L267:
 4645               	.LM578:
 4646 17d8 21BD      		out 65-32,r18
 4647               	.LM579:
 4648 17da BB27      		clr r27
 4649 17dc A52F      		mov r26,r21
 4650 17de 942F      		mov r25,r20
 4651 17e0 832F      		mov r24,r19
 4652               	.LVL329:
 4653 17e2 82BD      		out 66-32,r24
 4654               	.LM580:
 4655 17e4 2F5F      		subi r18,lo8(-(1))
 4656 17e6 3F4F      		sbci r19,hi8(-(1))
 4657 17e8 4F4F      		sbci r20,hlo8(-(1))
 4658 17ea 5F4F      		sbci r21,hhi8(-(1))
 4659               	.LM581:
 4660 17ec F89A      		sbi 63-32,0
 4661               	.LM582:
 4662 17ee 80B5      		in r24,64-32
 4663 17f0 DB01      		movw r26,r22
 4664               	.LVL330:
 4665 17f2 8D93      		st X+,r24
 4666 17f4 BD01      		movw r22,r26
 4667               	.LVL331:
 4668               	.LM583:
 4669 17f6 2E15      		cp r18,r14
 4670 17f8 3F05      		cpc r19,r15
 4671 17fa 4007      		cpc r20,r16
 4672 17fc 5107      		cpc r21,r17
 4673 17fe 01F4      		brne .L267
 4674 1800 C05E      		subi r28,lo8(-288)
 4675 1802 DE4F      		sbci r29,hi8(-288)
 4676 1804 2883      		st Y,r18
 4677 1806 3983      		std Y+1,r19
 4678 1808 4A83      		std Y+2,r20
 4679 180a 5B83      		std Y+3,r21
 4680 180c C052      		subi r28,lo8(288)
 4681 180e D140      		sbci r29,hi8(288)
 4682               	.LVL332:
 4683               	.L266:
 4684               	.LM584:
 4685 1810 9601      		movw r18,r12
 4686               	.LVL333:
 4687 1812 2D5F      		subi r18,lo8(-(3))
 4688 1814 3F4F      		sbci r19,hi8(-(3))
 4689               	.LM585:
 4690 1816 FB01      		movw r30,r22
 4691 1818 1082      		st Z,__zero_reg__
 4692 181a 00C0      		rjmp .L243
 4693               	.LVL334:
 4694               	.L220:
 4695               	.LBE770:
 4696               	.LM586:
 4697 181c 80EC      		ldi r24,lo8(-64)
 4698 181e 8A83      		std Y+2,r24
 4699               	.LVL335:
 4700               	.L355:
 4701 1820 22E0      		ldi r18,lo8(2)
 4702 1822 30E0      		ldi r19,hi8(2)
 4703               	.LVL336:
 4704               	.L243:
 4705               	.LBB773:
 4706               	.LBB774:
 4707               	.LM587:
 4708 1824 8BE1      		ldi r24,lo8(27)
 4709               	.LVL337:
 4710 1826 8093 C600 		sts 198,r24
 4711               	.L268:
 4712               	.LM588:
 4713 182a 8091 C000 		lds r24,192
 4714 182e 86FF      		sbrs r24,6
 4715 1830 00C0      		rjmp .L268
 4716               	.LM589:
 4717 1832 8091 C000 		lds r24,192
 4718 1836 8064      		ori r24,lo8(64)
 4719 1838 8093 C000 		sts 192,r24
 4720               	.LBE774:
 4721               	.LBE773:
 4722               	.LBB775:
 4723               	.LBB776:
 4724               	.LM590:
 4725 183c C15D      		subi r28,lo8(-303)
 4726 183e DE4F      		sbci r29,hi8(-303)
 4727 1840 F881      		ld r31,Y
 4728 1842 CF52      		subi r28,lo8(303)
 4729 1844 D140      		sbci r29,hi8(303)
 4730 1846 F093 C600 		sts 198,r31
 4731               	.L269:
 4732               	.LM591:
 4733 184a 8091 C000 		lds r24,192
 4734 184e 86FF      		sbrs r24,6
 4735 1850 00C0      		rjmp .L269
 4736               	.LM592:
 4737 1852 8091 C000 		lds r24,192
 4738 1856 8064      		ori r24,lo8(64)
 4739 1858 8093 C000 		sts 192,r24
 4740               	.LBE776:
 4741               	.LBE775:
 4742               	.LM593:
 4743 185c 432F      		mov r20,r19
 4744               	.LVL338:
 4745               	.LBB777:
 4746               	.LBB778:
 4747               	.LM594:
 4748 185e 3093 C600 		sts 198,r19
 4749               	.LVL339:
 4750               	.L270:
 4751               	.LM595:
 4752 1862 8091 C000 		lds r24,192
 4753 1866 86FF      		sbrs r24,6
 4754 1868 00C0      		rjmp .L270
 4755               	.LM596:
 4756 186a 8091 C000 		lds r24,192
 4757 186e 8064      		ori r24,lo8(64)
 4758 1870 8093 C000 		sts 192,r24
 4759               	.LBE778:
 4760               	.LBE777:
 4761               	.LM597:
 4762 1874 922F      		mov r25,r18
 4763               	.LVL340:
 4764               	.LBB779:
 4765               	.LBB780:
 4766               	.LM598:
 4767 1876 2093 C600 		sts 198,r18
 4768               	.L271:
 4769               	.LM599:
 4770 187a 8091 C000 		lds r24,192
 4771 187e 86FF      		sbrs r24,6
 4772 1880 00C0      		rjmp .L271
 4773               	.LM600:
 4774 1882 8091 C000 		lds r24,192
 4775 1886 8064      		ori r24,lo8(64)
 4776 1888 8093 C000 		sts 192,r24
 4777               	.LBE780:
 4778               	.LBE779:
 4779               	.LBB781:
 4780               	.LBB782:
 4781               	.LM601:
 4782 188c 8EE0      		ldi r24,lo8(14)
 4783 188e 8093 C600 		sts 198,r24
 4784               	.L272:
 4785               	.LM602:
 4786 1892 8091 C000 		lds r24,192
 4787 1896 86FF      		sbrs r24,6
 4788 1898 00C0      		rjmp .L272
 4789               	.LM603:
 4790 189a 8091 C000 		lds r24,192
 4791 189e 8064      		ori r24,lo8(64)
 4792 18a0 8093 C000 		sts 192,r24
 4793               	.LBE782:
 4794               	.LBE781:
 4795               	.LM604:
 4796 18a4 65E1      		ldi r22,lo8(21)
 4797               	.LVL341:
 4798 18a6 C15D      		subi r28,lo8(-303)
 4799 18a8 DE4F      		sbci r29,hi8(-303)
 4800 18aa E880      		ld r14,Y
 4801 18ac CF52      		subi r28,lo8(303)
 4802 18ae D140      		sbci r29,hi8(303)
 4803               	.LVL342:
 4804 18b0 6E25      		eor r22,r14
 4805               	.LM605:
 4806 18b2 6927      		eor r22,r25
 4807               	.LM606:
 4808 18b4 6427      		eor r22,r20
 4809 18b6 FE01      		movw r30,r28
 4810 18b8 3196      		adiw r30,1
 4811 18ba 00C0      		rjmp .L273
 4812               	.L275:
 4813               	.LM607:
 4814 18bc 9081      		ld r25,Z
 4815               	.LBB783:
 4816               	.LBB784:
 4817               	.LM608:
 4818 18be 9093 C600 		sts 198,r25
 4819               	.L274:
 4820               	.LM609:
 4821 18c2 8091 C000 		lds r24,192
 4822 18c6 86FF      		sbrs r24,6
 4823 18c8 00C0      		rjmp .L274
 4824               	.LBE784:
 4825               	.LBE783:
 4826               	.LM610:
 4827 18ca 3196      		adiw r30,1
 4828               	.LBB786:
 4829               	.LBB785:
 4830               	.LM611:
 4831 18cc 8091 C000 		lds r24,192
 4832 18d0 8064      		ori r24,lo8(64)
 4833 18d2 8093 C000 		sts 192,r24
 4834               	.LBE785:
 4835               	.LBE786:
 4836               	.LM612:
 4837 18d6 6927      		eor r22,r25
 4838               	.LM613:
 4839 18d8 2150      		subi r18,lo8(-(-1))
 4840 18da 3040      		sbci r19,hi8(-(-1))
 4841               	.LVL343:
 4842               	.L273:
 4843               	.LM614:
 4844 18dc 2115      		cp r18,__zero_reg__
 4845 18de 3105      		cpc r19,__zero_reg__
 4846 18e0 01F4      		brne .L275
 4847               	.LBB787:
 4848               	.LBB788:
 4849               	.LM615:
 4850 18e2 6093 C600 		sts 198,r22
 4851               	.L276:
 4852               	.LM616:
 4853 18e6 8091 C000 		lds r24,192
 4854 18ea 86FF      		sbrs r24,6
 4855 18ec 00C0      		rjmp .L276
 4856               	.LM617:
 4857 18ee 8091 C000 		lds r24,192
 4858 18f2 8064      		ori r24,lo8(64)
 4859 18f4 8093 C000 		sts 192,r24
 4860               	.LBE788:
 4861               	.LBE787:
 4862               	.LM618:
 4863 18f8 8091 0801 		lds r24,264
 4864 18fc 90E4      		ldi r25,lo8(64)
 4865               	.LVL344:
 4866 18fe 8927      		eor r24,r25
 4867 1900 8093 0801 		sts 264,r24
 4868               	.LM619:
 4869 1904 7720      		tst r7
 4870 1906 01F4      		brne .L84
 4871               	.LM620:
 4872 1908 C15D      		subi r28,lo8(-303)
 4873 190a DE4F      		sbci r29,hi8(-303)
 4874 190c 0881      		ld r16,Y
 4875 190e CF52      		subi r28,lo8(303)
 4876 1910 D140      		sbci r29,hi8(303)
 4877               	.LVL345:
 4878 1912 0F5F      		subi r16,lo8(-(1))
 4879 1914 C15D      		subi r28,lo8(-303)
 4880 1916 DE4F      		sbci r29,hi8(-303)
 4881 1918 0883      		st Y,r16
 4882 191a CF52      		subi r28,lo8(303)
 4883 191c D140      		sbci r29,hi8(303)
 4884               	.LVL346:
 4885               	.L85:
 4886 191e 90E0      		ldi r25,lo8(0)
 4887               	.LVL347:
 4888 1920 A0E0      		ldi r26,lo8(0)
 4889 1922 B0E0      		ldi r27,hi8(0)
 4890               	.LVL348:
 4891 1924 0C94 0000 		jmp .L345
 4892               	.LVL349:
 4893               	.L84:
 4894               	.LM621:
 4895 1928 8091 0701 		lds r24,263
 4896 192c 8F7B      		andi r24,lo8(-65)
 4897 192e 8093 0701 		sts 263,r24
 4898               	.LM622:
 4899 1932 8091 0801 		lds r24,264
 4900 1936 8F7B      		andi r24,lo8(-65)
 4901 1938 8093 0801 		sts 264,r24
 4902 193c 80E0      		ldi r24,lo8(0)
 4903 193e 90E0      		ldi r25,hi8(0)
 4904               	.LVL350:
 4905               	.LBB789:
 4906               	.LBB790:
 4907               	.LBB791:
 4908               	.LBB792:
 4909               	.LBB793:
 4910               	.LBB794:
 4911               	.LM623:
 4912 1940 20ED      		ldi r18,lo8(2000)
 4913 1942 37E0      		ldi r19,hi8(2000)
 4914               	.LVL351:
 4915               	.L277:
 4916 1944 F901      		movw r30,r18
 4917               	.LVL352:
 4918               	/* #APP */
 4919               	 ;  105 "c:/winavr-20100110/lib/gcc/../../avr/include/util/delay_basic.h" 1
 4920 1946 3197      		1: sbiw r30,1
 4921 1948 01F4      		brne 1b
 4922               	 ;  0 "" 2
 4923               	/* #NOAPP */
 4924               	.LBE794:
 4925               	.LBE793:
 4926               	.LBE792:
 4927               	.LBE791:
 4928               	.LM624:
 4929 194a 0196      		adiw r24,1
 4930 194c 8436      		cpi r24,100
 4931 194e 9105      		cpc r25,__zero_reg__
 4932 1950 01F4      		brne .L277
 4933               	.LBE790:
 4934               	.LBE789:
 4935               	.LM625:
 4936               	/* #APP */
 4937               	 ;  1186 "stk500boot.c" 1
 4938 1952 0000      		nop
 4939               	 ;  0 "" 2
 4940               	.LM626:
 4941               	/* #NOAPP */
 4942 1954 8091 C000 		lds r24,192
 4943               	.LVL353:
 4944 1958 8D7F      		andi r24,lo8(-3)
 4945 195a 8093 C000 		sts 192,r24
 4946               	.LM627:
 4947 195e 81E1      		ldi r24,lo8(17)
 4948               	/* #APP */
 4949               	 ;  1193 "stk500boot.c" 1
 4950 1960 8093 5700 		sts 87, r24
 4951 1964 E895      		spm
 4952               		
 4953               	 ;  0 "" 2
 4954               	.LM628:
 4955               	 ;  1196 "stk500boot.c" 1
 4956 1966 EE27      		clr	r30		
 4957 1968 FF27      		clr	r31		
 4958 196a 0994      		ijmp	
 4959               		
 4960               	 ;  0 "" 2
 4961               	/* #NOAPP */
 4962               	.L278:
 4963 196c 00C0      		rjmp .L278
 4964               	.LVL354:
 4965               	.L218:
 4966 196e 90E0      		ldi r25,lo8(0)
 4967 1970 0C94 0000 		jmp .L345
 4968               	.LFE13:
 4970               	.global	app_start
 4971               	.global	app_start
 4972               		.section .bss
 4975               	app_start:
 4976 0000 0000      		.skip 2,0
 4977               	.global	gTextMsg_CPU_Name
 4978               		.section	.progmem.data,"a",@progbits
 4981               	gTextMsg_CPU_Name:
 4982 0000 4154 6D65 		.string	"ATmega2560"
 4982      6761 3235 
 4982      3630 00
 4983               	.global	gTextMsg_Explorer
 4986               	gTextMsg_Explorer:
 4987 000b 4172 6475 		.string	"Arduino explorer stk500V2 by MLS"
 4987      696E 6F20 
 4987      6578 706C 
 4987      6F72 6572 
 4987      2073 746B 
 4988               	.global	gTextMsg_Prompt
 4991               	gTextMsg_Prompt:
 4992 002c 426F 6F74 		.string	"Bootloader>"
 4992      6C6F 6164 
 4992      6572 3E00 
 4993               	.global	gTextMsg_HUH
 4996               	gTextMsg_HUH:
 4997 0038 4875 683F 		.string	"Huh?"
 4997      00
 4998               	.global	gTextMsg_COMPILED_ON
 5001               	gTextMsg_COMPILED_ON:
 5002 003d 436F 6D70 		.string	"Compiled on = "
 5002      696C 6564 
 5002      206F 6E20 
 5002      3D20 00
 5003               	.global	gTextMsg_CPU_Type
 5006               	gTextMsg_CPU_Type:
 5007 004c 4350 5520 		.string	"CPU Type    = "
 5007      5479 7065 
 5007      2020 2020 
 5007      3D20 00
 5008               	.global	gTextMsg_AVR_ARCH
 5011               	gTextMsg_AVR_ARCH:
 5012 005b 5F5F 4156 		.string	"__AVR_ARCH__= "
 5012      525F 4152 
 5012      4348 5F5F 
 5012      3D20 00
 5013               	.global	gTextMsg_AVR_LIBC
 5016               	gTextMsg_AVR_LIBC:
 5017 006a 4156 5220 		.string	"AVR LibC Ver= "
 5017      4C69 6243 
 5017      2056 6572 
 5017      3D20 00
 5018               	.global	gTextMsg_GCC_VERSION
 5021               	gTextMsg_GCC_VERSION:
 5022 0079 4743 4320 		.string	"GCC Version = "
 5022      5665 7273 
 5022      696F 6E20 
 5022      3D20 00
 5023               	.global	gTextMsg_CPU_SIGNATURE
 5026               	gTextMsg_CPU_SIGNATURE:
 5027 0088 4350 5520 		.string	"CPU ID      = "
 5027      4944 2020 
 5027      2020 2020 
 5027      3D20 00
 5028               	.global	gTextMsg_FUSE_BYTE_LOW
 5031               	gTextMsg_FUSE_BYTE_LOW:
 5032 0097 4C6F 7720 		.string	"Low fuse    = "
 5032      6675 7365 
 5032      2020 2020 
 5032      3D20 00
 5033               	.global	gTextMsg_FUSE_BYTE_HIGH
 5036               	gTextMsg_FUSE_BYTE_HIGH:
 5037 00a6 4869 6768 		.string	"High fuse   = "
 5037      2066 7573 
 5037      6520 2020 
 5037      3D20 00
 5038               	.global	gTextMsg_FUSE_BYTE_EXT
 5041               	gTextMsg_FUSE_BYTE_EXT:
 5042 00b5 4578 7420 		.string	"Ext fuse    = "
 5042      6675 7365 
 5042      2020 2020 
 5042      3D20 00
 5043               	.global	gTextMsg_FUSE_BYTE_LOCK
 5046               	gTextMsg_FUSE_BYTE_LOCK:
 5047 00c4 4C6F 636B 		.string	"Lock fuse   = "
 5047      2066 7573 
 5047      6520 2020 
 5047      3D20 00
 5048               	.global	gTextMsg_GCC_DATE_STR
 5051               	gTextMsg_GCC_DATE_STR:
 5052 00d3 4F63 7420 		.string	"Oct 10 2017"
 5052      3130 2032 
 5052      3031 3700 
 5053               	.global	gTextMsg_AVR_LIBC_VER_STR
 5056               	gTextMsg_AVR_LIBC_VER_STR:
 5057 00df 312E 362E 		.string	"1.6.7"
 5057      3700 
 5058               	.global	gTextMsg_GCC_VERSION_STR
 5061               	gTextMsg_GCC_VERSION_STR:
 5062 00e5 342E 332E 		.string	"4.3.3"
 5062      3300 
 5063               	.global	gTextMsg_VECTOR_HEADER
 5066               	gTextMsg_VECTOR_HEADER:
 5067 00eb 5623 2020 		.string	"V#   ADDR   op code     instruction addr   Interrupt"
 5067      2041 4444 
 5067      5220 2020 
 5067      6F70 2063 
 5067      6F64 6520 
 5068               	.global	gTextMsg_noVector
 5071               	gTextMsg_noVector:
 5072 0120 6E6F 2076 		.string	"no vector"
 5072      6563 746F 
 5072      7200 
 5073               	.global	gTextMsg_rjmp
 5076               	gTextMsg_rjmp:
 5077 012a 726A 6D70 		.string	"rjmp  "
 5077      2020 00
 5078               	.global	gTextMsg_jmp
 5081               	gTextMsg_jmp:
 5082 0131 6A6D 7020 		.string	"jmp "
 5082      00
 5083               	.global	gTextMsg_WHAT_PORT
 5086               	gTextMsg_WHAT_PORT:
 5087 0136 5768 6174 		.string	"What port:"
 5087      2070 6F72 
 5087      743A 00
 5088               	.global	gTextMsg_PortNotSupported
 5091               	gTextMsg_PortNotSupported:
 5092 0141 506F 7274 		.string	"Port not supported"
 5092      206E 6F74 
 5092      2073 7570 
 5092      706F 7274 
 5092      6564 00
 5093               	.global	gTextMsg_MustBeLetter
 5096               	gTextMsg_MustBeLetter:
 5097 0154 4D75 7374 		.string	"Must be a letter"
 5097      2062 6520 
 5097      6120 6C65 
 5097      7474 6572 
 5097      00
 5098               	.global	gTextMsg_SPACE
 5101               	gTextMsg_SPACE:
 5102 0165 2000      		.string	" "
 5103               	.global	gTextMsg_WriteToEEprom
 5106               	gTextMsg_WriteToEEprom:
 5107 0167 5772 6974 		.string	"Writting EE"
 5107      7469 6E67 
 5107      2045 4500 
 5108               	.global	gTextMsg_ReadingEEprom
 5111               	gTextMsg_ReadingEEprom:
 5112 0173 5265 6164 		.string	"Reading EE"
 5112      696E 6720 
 5112      4545 00
 5113               	.global	gTextMsg_EEPROMerrorCnt
 5116               	gTextMsg_EEPROMerrorCnt:
 5117 017e 4545 2065 		.string	"EE err cnt="
 5117      7272 2063 
 5117      6E74 3D00 
 5118               	.global	gTextMsg_PORT
 5121               	gTextMsg_PORT:
 5122 018a 504F 5254 		.string	"PORT"
 5122      00
 5123               	.global	gTextMsg_HELP_MSG_0
 5126               	gTextMsg_HELP_MSG_0:
 5127 018f 303D 5A65 		.string	"0=Zero addr"
 5127      726F 2061 
 5127      6464 7200 
 5128               	.global	gTextMsg_HELP_MSG_QM
 5131               	gTextMsg_HELP_MSG_QM:
 5132 019b 3F3D 4350 		.string	"?=CPU stats"
 5132      5520 7374 
 5132      6174 7300 
 5133               	.global	gTextMsg_HELP_MSG_AT
 5136               	gTextMsg_HELP_MSG_AT:
 5137 01a7 403D 4545 		.string	"@=EEPROM test"
 5137      5052 4F4D 
 5137      2074 6573 
 5137      7400 
 5138               	.global	gTextMsg_HELP_MSG_B
 5141               	gTextMsg_HELP_MSG_B:
 5142 01b5 423D 426C 		.string	"B=Blink LED"
 5142      696E 6B20 
 5142      4C45 4400 
 5143               	.global	gTextMsg_HELP_MSG_E
 5146               	gTextMsg_HELP_MSG_E:
 5147 01c1 453D 4475 		.string	"E=Dump EEPROM"
 5147      6D70 2045 
 5147      4550 524F 
 5147      4D00 
 5148               	.global	gTextMsg_HELP_MSG_F
 5151               	gTextMsg_HELP_MSG_F:
 5152 01cf 463D 4475 		.string	"F=Dump FLASH"
 5152      6D70 2046 
 5152      4C41 5348 
 5152      00
 5153               	.global	gTextMsg_HELP_MSG_H
 5156               	gTextMsg_HELP_MSG_H:
 5157 01dc 483D 4865 		.string	"H=Help"
 5157      6C70 00
 5158               	.global	gTextMsg_HELP_MSG_L
 5161               	gTextMsg_HELP_MSG_L:
 5162 01e3 4C3D 4C69 		.string	"L=List I/O Ports"
 5162      7374 2049 
 5162      2F4F 2050 
 5162      6F72 7473 
 5162      00
 5163               	.global	gTextMsg_HELP_MSG_Q
 5166               	gTextMsg_HELP_MSG_Q:
 5167 01f4 513D 5175 		.string	"Q=Quit"
 5167      6974 00
 5168               	.global	gTextMsg_HELP_MSG_R
 5171               	gTextMsg_HELP_MSG_R:
 5172 01fb 523D 4475 		.string	"R=Dump RAM"
 5172      6D70 2052 
 5172      414D 00
 5173               	.global	gTextMsg_HELP_MSG_V
 5176               	gTextMsg_HELP_MSG_V:
 5177 0206 563D 7368 		.string	"V=show interrupt Vectors"
 5177      6F77 2069 
 5177      6E74 6572 
 5177      7275 7074 
 5177      2056 6563 
 5178               	.global	gTextMsg_HELP_MSG_Y
 5181               	gTextMsg_HELP_MSG_Y:
 5182 021f 593D 506F 		.string	"Y=Port blink"
 5182      7274 2062 
 5182      6C69 6E6B 
 5182      00
 5183               	.global	gTextMsg_END
 5186               	gTextMsg_END:
 5187 022c 2A00      		.string	"*"
 5188               		.comm gRamIndex,4,1
 5189               		.comm gFlashIndex,4,1
 5190               		.comm gEepromIndex,4,1
 5303               	.Letext0:
DEFINED SYMBOLS
                            *ABS*:00000000 stk500boot.c
C:\Users\AGARCI~1\AppData\Local\Temp/ccI1QgwZ.s:2      *ABS*:0000003f __SREG__
C:\Users\AGARCI~1\AppData\Local\Temp/ccI1QgwZ.s:3      *ABS*:0000003e __SP_H__
C:\Users\AGARCI~1\AppData\Local\Temp/ccI1QgwZ.s:4      *ABS*:0000003d __SP_L__
C:\Users\AGARCI~1\AppData\Local\Temp/ccI1QgwZ.s:5      *ABS*:00000034 __CCP__
C:\Users\AGARCI~1\AppData\Local\Temp/ccI1QgwZ.s:6      *ABS*:00000000 __tmp_reg__
C:\Users\AGARCI~1\AppData\Local\Temp/ccI1QgwZ.s:7      *ABS*:00000001 __zero_reg__
C:\Users\AGARCI~1\AppData\Local\Temp/ccI1QgwZ.s:19     .init9:00000000 __jumpMain
C:\Users\AGARCI~1\AppData\Local\Temp/ccI1QgwZ.s:27     *ABS*:000021ff __stack
C:\Users\AGARCI~1\AppData\Local\Temp/ccI1QgwZ.s:813    .text:00000386 main
C:\Users\AGARCI~1\AppData\Local\Temp/ccI1QgwZ.s:65     .text:00000000 delay_ms
C:\Users\AGARCI~1\AppData\Local\Temp/ccI1QgwZ.s:110    .text:0000001c init_ports
C:\Users\AGARCI~1\AppData\Local\Temp/ccI1QgwZ.s:154    .text:0000004a PrintFromPROGMEM
C:\Users\AGARCI~1\AppData\Local\Temp/ccI1QgwZ.s:211    .text:0000007e PrintNewLine
C:\Users\AGARCI~1\AppData\Local\Temp/ccI1QgwZ.s:255    .text:000000b0 PrintFromPROGMEMln
C:\Users\AGARCI~1\AppData\Local\Temp/ccI1QgwZ.s:273    .text:000000ba PrintString
C:\Users\AGARCI~1\AppData\Local\Temp/ccI1QgwZ.s:315    .text:000000e0 PrintHexByte
C:\Users\AGARCI~1\AppData\Local\Temp/ccI1QgwZ.s:385    .text:0000012e PrintDecInt
C:\Users\AGARCI~1\AppData\Local\Temp/ccI1QgwZ.s:488    .text:000001bc PrintAvailablePort
C:\Users\AGARCI~1\AppData\Local\Temp/ccI1QgwZ.s:5121   .progmem.data:0000018a gTextMsg_PORT
C:\Users\AGARCI~1\AppData\Local\Temp/ccI1QgwZ.s:527    .text:000001e8 DumpHex
C:\Users\AGARCI~1\AppData\Local\Temp/ccI1QgwZ.s:4975   .bss:00000000 app_start
                            *COM*:00000004 gRamIndex
                            *COM*:00000004 gFlashIndex
                            *COM*:00000004 gEepromIndex
C:\Users\AGARCI~1\AppData\Local\Temp/ccI1QgwZ.s:4986   .progmem.data:0000000b gTextMsg_Explorer
C:\Users\AGARCI~1\AppData\Local\Temp/ccI1QgwZ.s:4991   .progmem.data:0000002c gTextMsg_Prompt
C:\Users\AGARCI~1\AppData\Local\Temp/ccI1QgwZ.s:5126   .progmem.data:0000018f gTextMsg_HELP_MSG_0
C:\Users\AGARCI~1\AppData\Local\Temp/ccI1QgwZ.s:5131   .progmem.data:0000019b gTextMsg_HELP_MSG_QM
C:\Users\AGARCI~1\AppData\Local\Temp/ccI1QgwZ.s:5001   .progmem.data:0000003d gTextMsg_COMPILED_ON
C:\Users\AGARCI~1\AppData\Local\Temp/ccI1QgwZ.s:5051   .progmem.data:000000d3 gTextMsg_GCC_DATE_STR
C:\Users\AGARCI~1\AppData\Local\Temp/ccI1QgwZ.s:5006   .progmem.data:0000004c gTextMsg_CPU_Type
C:\Users\AGARCI~1\AppData\Local\Temp/ccI1QgwZ.s:4981   .progmem.data:00000000 gTextMsg_CPU_Name
C:\Users\AGARCI~1\AppData\Local\Temp/ccI1QgwZ.s:5011   .progmem.data:0000005b gTextMsg_AVR_ARCH
C:\Users\AGARCI~1\AppData\Local\Temp/ccI1QgwZ.s:5021   .progmem.data:00000079 gTextMsg_GCC_VERSION
C:\Users\AGARCI~1\AppData\Local\Temp/ccI1QgwZ.s:5061   .progmem.data:000000e5 gTextMsg_GCC_VERSION_STR
C:\Users\AGARCI~1\AppData\Local\Temp/ccI1QgwZ.s:5016   .progmem.data:0000006a gTextMsg_AVR_LIBC
C:\Users\AGARCI~1\AppData\Local\Temp/ccI1QgwZ.s:5056   .progmem.data:000000df gTextMsg_AVR_LIBC_VER_STR
C:\Users\AGARCI~1\AppData\Local\Temp/ccI1QgwZ.s:5026   .progmem.data:00000088 gTextMsg_CPU_SIGNATURE
C:\Users\AGARCI~1\AppData\Local\Temp/ccI1QgwZ.s:5031   .progmem.data:00000097 gTextMsg_FUSE_BYTE_LOW
C:\Users\AGARCI~1\AppData\Local\Temp/ccI1QgwZ.s:5036   .progmem.data:000000a6 gTextMsg_FUSE_BYTE_HIGH
C:\Users\AGARCI~1\AppData\Local\Temp/ccI1QgwZ.s:5041   .progmem.data:000000b5 gTextMsg_FUSE_BYTE_EXT
C:\Users\AGARCI~1\AppData\Local\Temp/ccI1QgwZ.s:5046   .progmem.data:000000c4 gTextMsg_FUSE_BYTE_LOCK
C:\Users\AGARCI~1\AppData\Local\Temp/ccI1QgwZ.s:5136   .progmem.data:000001a7 gTextMsg_HELP_MSG_AT
C:\Users\AGARCI~1\AppData\Local\Temp/ccI1QgwZ.s:5106   .progmem.data:00000167 gTextMsg_WriteToEEprom
C:\Users\AGARCI~1\AppData\Local\Temp/ccI1QgwZ.s:5101   .progmem.data:00000165 gTextMsg_SPACE
C:\Users\AGARCI~1\AppData\Local\Temp/ccI1QgwZ.s:5111   .progmem.data:00000173 gTextMsg_ReadingEEprom
C:\Users\AGARCI~1\AppData\Local\Temp/ccI1QgwZ.s:5116   .progmem.data:0000017e gTextMsg_EEPROMerrorCnt
C:\Users\AGARCI~1\AppData\Local\Temp/ccI1QgwZ.s:5141   .progmem.data:000001b5 gTextMsg_HELP_MSG_B
C:\Users\AGARCI~1\AppData\Local\Temp/ccI1QgwZ.s:5146   .progmem.data:000001c1 gTextMsg_HELP_MSG_E
C:\Users\AGARCI~1\AppData\Local\Temp/ccI1QgwZ.s:5151   .progmem.data:000001cf gTextMsg_HELP_MSG_F
C:\Users\AGARCI~1\AppData\Local\Temp/ccI1QgwZ.s:5156   .progmem.data:000001dc gTextMsg_HELP_MSG_H
C:\Users\AGARCI~1\AppData\Local\Temp/ccI1QgwZ.s:5161   .progmem.data:000001e3 gTextMsg_HELP_MSG_L
C:\Users\AGARCI~1\AppData\Local\Temp/ccI1QgwZ.s:5166   .progmem.data:000001f4 gTextMsg_HELP_MSG_Q
C:\Users\AGARCI~1\AppData\Local\Temp/ccI1QgwZ.s:5171   .progmem.data:000001fb gTextMsg_HELP_MSG_R
C:\Users\AGARCI~1\AppData\Local\Temp/ccI1QgwZ.s:5176   .progmem.data:00000206 gTextMsg_HELP_MSG_V
C:\Users\AGARCI~1\AppData\Local\Temp/ccI1QgwZ.s:5181   .progmem.data:0000021f gTextMsg_HELP_MSG_Y
C:\Users\AGARCI~1\AppData\Local\Temp/ccI1QgwZ.s:5066   .progmem.data:000000eb gTextMsg_VECTOR_HEADER
C:\Users\AGARCI~1\AppData\Local\Temp/ccI1QgwZ.s:5071   .progmem.data:00000120 gTextMsg_noVector
C:\Users\AGARCI~1\AppData\Local\Temp/ccI1QgwZ.s:5076   .progmem.data:0000012a gTextMsg_rjmp
C:\Users\AGARCI~1\AppData\Local\Temp/ccI1QgwZ.s:5081   .progmem.data:00000131 gTextMsg_jmp
C:\Users\AGARCI~1\AppData\Local\Temp/ccI1QgwZ.s:5086   .progmem.data:00000136 gTextMsg_WHAT_PORT
C:\Users\AGARCI~1\AppData\Local\Temp/ccI1QgwZ.s:5091   .progmem.data:00000141 gTextMsg_PortNotSupported
C:\Users\AGARCI~1\AppData\Local\Temp/ccI1QgwZ.s:5096   .progmem.data:00000154 gTextMsg_MustBeLetter
C:\Users\AGARCI~1\AppData\Local\Temp/ccI1QgwZ.s:4996   .progmem.data:00000038 gTextMsg_HUH
C:\Users\AGARCI~1\AppData\Local\Temp/ccI1QgwZ.s:5186   .progmem.data:0000022c gTextMsg_END

UNDEFINED SYMBOLS
__divmodhi4
__eerd_byte_m2560
__udivmodsi4
__eewr_byte_m2560
__do_clear_bss
