   1               		.file	"stk500boot.c"
   2               	__SREG__ = 0x3f
   3               	__SP_H__ = 0x3e
   4               	__SP_L__ = 0x3d
   5               	__CCP__  = 0x34
   6               	__tmp_reg__ = 0
   7               	__zero_reg__ = 1
  15               	.Ltext0:
  16               		.section	.init9,"ax",@progbits
  17               	.global	__jumpMain
  19               	__jumpMain:
  20               	.LFB6:
  21               	.LSM0:
  22               	/* prologue: naked */
  23               	/* frame size = 0 */
  24               	.LSM1:
  25               	/* #APP */
  26               	 ;  438 "stk500boot.c" 1
  27               		.set __stack, 8703
  28               	 ;  0 "" 2
  29               	.LSM2:
  30               	 ;  442 "stk500boot.c" 1
  31 0000 01E2      		ldi	16, 33
  32               	 ;  0 "" 2
  33               	.LSM3:
  34               	 ;  443 "stk500boot.c" 1
  35 0002 0EBF      		out 62,16
  36               	 ;  0 "" 2
  37               	.LSM4:
  38               	 ;  445 "stk500boot.c" 1
  39 0004 0FEF      		ldi	16, 255
  40               	 ;  0 "" 2
  41               	.LSM5:
  42               	 ;  446 "stk500boot.c" 1
  43 0006 0DBF      		out 61,16
  44               	 ;  0 "" 2
  45               	.LSM6:
  46               	 ;  448 "stk500boot.c" 1
  47 0008 1124      		clr __zero_reg__
  48               	 ;  0 "" 2
  49               	.LSM7:
  50               	 ;  449 "stk500boot.c" 1
  51 000a 1FBE      		out 63, __zero_reg__
  52               	 ;  0 "" 2
  53               	.LSM8:
  54               	 ;  450 "stk500boot.c" 1
  55 000c 0C94 0000 		jmp main
  56               	 ;  0 "" 2
  57               	/* epilogue start */
  58               	.LSM9:
  59               	/* #NOAPP */
  60               	.LFE6:
  62               		.text
  63               	.global	delay_ms
  65               	delay_ms:
  66               	.LFB7:
  67               	.LM1:
  68               	.LVL0:
  69               	/* prologue: function */
  70               	/* frame size = 0 */
  71               	.LM2:
  72 0000 20E0      		ldi r18,lo8(0)
  73 0002 30E0      		ldi r19,hi8(0)
  74               	.LVL1:
  75               	.LBB286:
  76               	.LBB287:
  77               	.LBB288:
  78               	.LBB289:
  79               	.LM3:
  80 0004 40ED      		ldi r20,lo8(2000)
  81 0006 57E0      		ldi r21,hi8(2000)
  82 0008 00C0      		rjmp .L4
  83               	.LVL2:
  84               	.L5:
  85 000a FA01      		movw r30,r20
  86               	/* #APP */
  87               	 ;  105 "c:/winavr-20100110/lib/gcc/../../avr/include/util/delay_basic.h" 1
  88 000c 3197      		1: sbiw r30,1
  89 000e 01F4      		brne 1b
  90               	 ;  0 "" 2
  91               	/* #NOAPP */
  92               	.LBE289:
  93               	.LBE288:
  94               	.LBE287:
  95               	.LBE286:
  96               	.LM4:
  97 0010 2F5F      		subi r18,lo8(-(1))
  98 0012 3F4F      		sbci r19,hi8(-(1))
  99               	.L4:
 100 0014 2817      		cp r18,r24
 101 0016 3907      		cpc r19,r25
 102 0018 00F0      		brlo .L5
 103               	/* epilogue start */
 104               	.LM5:
 105 001a 0895      		ret
 106               	.LFE7:
 108               	.global	PrintFromPROGMEM
 110               	PrintFromPROGMEM:
 111               	.LFB15:
 112               	.LM6:
 113               	.LVL3:
 114               	/* prologue: function */
 115               	/* frame size = 0 */
 116               	.LM7:
 117 001c 9C01      		movw r18,r24
 118 001e 260F      		add r18,r22
 119 0020 311D      		adc r19,__zero_reg__
 120               	.LVL4:
 121               	.L10:
 122               	.LBB290:
 123               	.LM8:
 124 0022 C901      		movw r24,r18
 125               	.LVL5:
 126 0024 A0E0      		ldi r26,lo8(0)
 127 0026 B0E0      		ldi r27,hi8(0)
 128 0028 2F5F      		subi r18,lo8(-(1))
 129 002a 3F4F      		sbci r19,hi8(-(1))
 130               	/* #APP */
 131               	 ;  1300 "stk500boot.c" 1
 132 002c ABBF      		out 59, r26
 133 002e FC01      		movw r30, r24
 134 0030 8791      		elpm r24, Z+
 135               		
 136               	 ;  0 "" 2
 137               	.LVL6:
 138               	/* #NOAPP */
 139               	.LBE290:
 140               	.LM9:
 141 0032 8823      		tst r24
 142 0034 01F0      		breq .L11
 143               	.LBB291:
 144               	.LBB292:
 145               	.LM10:
 146 0036 8093 C600 		sts 198,r24
 147               	.L9:
 148               	.LM11:
 149 003a 8091 C000 		lds r24,192
 150               	.LVL7:
 151 003e 86FF      		sbrs r24,6
 152 0040 00C0      		rjmp .L9
 153               	.LM12:
 154 0042 8091 C000 		lds r24,192
 155 0046 8064      		ori r24,lo8(64)
 156 0048 8093 C000 		sts 192,r24
 157 004c 00C0      		rjmp .L10
 158               	.LVL8:
 159               	.L11:
 160 004e 0895      		ret
 161               	.LBE292:
 162               	.LBE291:
 163               	.LFE15:
 165               	.global	PrintNewLine
 167               	PrintNewLine:
 168               	.LFB16:
 169               	.LM13:
 170               	/* prologue: function */
 171               	/* frame size = 0 */
 172               	.LBB293:
 173               	.LBB294:
 174               	.LM14:
 175 0050 8DE0      		ldi r24,lo8(13)
 176 0052 8093 C600 		sts 198,r24
 177               	.L14:
 178               	.LM15:
 179 0056 8091 C000 		lds r24,192
 180 005a 86FF      		sbrs r24,6
 181 005c 00C0      		rjmp .L14
 182               	.LM16:
 183 005e 8091 C000 		lds r24,192
 184 0062 8064      		ori r24,lo8(64)
 185 0064 8093 C000 		sts 192,r24
 186               	.LBE294:
 187               	.LBE293:
 188               	.LBB295:
 189               	.LBB296:
 190               	.LM17:
 191 0068 8AE0      		ldi r24,lo8(10)
 192 006a 8093 C600 		sts 198,r24
 193               	.L15:
 194               	.LM18:
 195 006e 8091 C000 		lds r24,192
 196 0072 86FF      		sbrs r24,6
 197 0074 00C0      		rjmp .L15
 198               	.LM19:
 199 0076 8091 C000 		lds r24,192
 200 007a 8064      		ori r24,lo8(64)
 201 007c 8093 C000 		sts 192,r24
 202               	/* epilogue start */
 203               	.LBE296:
 204               	.LBE295:
 205               	.LM20:
 206 0080 0895      		ret
 207               	.LFE16:
 209               	.global	PrintFromPROGMEMln
 211               	PrintFromPROGMEMln:
 212               	.LFB17:
 213               	.LM21:
 214               	.LVL9:
 215               	/* prologue: function */
 216               	/* frame size = 0 */
 217               	.LM22:
 218 0082 0E94 0000 		call PrintFromPROGMEM
 219               	.LVL10:
 220               	.LM23:
 221 0086 0E94 0000 		call PrintNewLine
 222               	/* epilogue start */
 223               	.LM24:
 224 008a 0895      		ret
 225               	.LFE17:
 227               	.global	PrintString
 229               	PrintString:
 230               	.LFB18:
 231               	.LM25:
 232               	.LVL11:
 233               	/* prologue: function */
 234               	/* frame size = 0 */
 235               	.LM26:
 236 008c FC01      		movw r30,r24
 237               	.LVL12:
 238               	.L24:
 239               	.LM27:
 240 008e 9081      		ld r25,Z
 241               	.LM28:
 242 0090 9923      		tst r25
 243 0092 01F0      		breq .L22
 244               	.LBB297:
 245               	.LBB298:
 246               	.LM29:
 247 0094 9093 C600 		sts 198,r25
 248               	.L23:
 249               	.LM30:
 250 0098 8091 C000 		lds r24,192
 251 009c 86FF      		sbrs r24,6
 252 009e 00C0      		rjmp .L23
 253               	.LM31:
 254 00a0 8091 C000 		lds r24,192
 255 00a4 8064      		ori r24,lo8(64)
 256 00a6 8093 C000 		sts 192,r24
 257               	.L22:
 258 00aa 3196      		adiw r30,1
 259               	.LBE298:
 260               	.LBE297:
 261               	.LM32:
 262 00ac 9923      		tst r25
 263 00ae 01F4      		brne .L24
 264               	/* epilogue start */
 265               	.LM33:
 266 00b0 0895      		ret
 267               	.LFE18:
 269               	.global	PrintHexByte
 271               	PrintHexByte:
 272               	.LFB19:
 273               	.LM34:
 274               	.LVL13:
 275               	/* prologue: function */
 276               	/* frame size = 0 */
 277 00b2 282F      		mov r18,r24
 278               	.LM35:
 279 00b4 982F      		mov r25,r24
 280 00b6 9295      		swap r25
 281 00b8 9F70      		andi r25,lo8(15)
 282 00ba 892F      		mov r24,r25
 283               	.LVL14:
 284 00bc 805D      		subi r24,lo8(-(48))
 285               	.LM36:
 286 00be 8A33      		cpi r24,lo8(58)
 287 00c0 00F0      		brlo .L29
 288               	.LM37:
 289 00c2 895F      		subi r24,lo8(-(7))
 290               	.L29:
 291               	.LBB299:
 292               	.LBB300:
 293               	.LM38:
 294 00c4 8093 C600 		sts 198,r24
 295               	.L30:
 296               	.LM39:
 297 00c8 8091 C000 		lds r24,192
 298               	.LVL15:
 299 00cc 86FF      		sbrs r24,6
 300 00ce 00C0      		rjmp .L30
 301               	.LM40:
 302 00d0 8091 C000 		lds r24,192
 303 00d4 8064      		ori r24,lo8(64)
 304 00d6 8093 C000 		sts 192,r24
 305               	.LBE300:
 306               	.LBE299:
 307               	.LM41:
 308 00da 822F      		mov r24,r18
 309 00dc 8F70      		andi r24,lo8(15)
 310 00de 982F      		mov r25,r24
 311               	.LVL16:
 312 00e0 905D      		subi r25,lo8(-(48))
 313               	.LM42:
 314 00e2 9A33      		cpi r25,lo8(58)
 315 00e4 00F0      		brlo .L31
 316               	.LM43:
 317 00e6 995F      		subi r25,lo8(-(7))
 318               	.L31:
 319               	.LBB301:
 320               	.LBB302:
 321               	.LM44:
 322 00e8 9093 C600 		sts 198,r25
 323               	.L32:
 324               	.LM45:
 325 00ec 8091 C000 		lds r24,192
 326 00f0 86FF      		sbrs r24,6
 327 00f2 00C0      		rjmp .L32
 328               	.LM46:
 329 00f4 8091 C000 		lds r24,192
 330 00f8 8064      		ori r24,lo8(64)
 331 00fa 8093 C000 		sts 192,r24
 332               	/* epilogue start */
 333               	.LBE302:
 334               	.LBE301:
 335               	.LM47:
 336 00fe 0895      		ret
 337               	.LFE19:
 339               	.global	PrintDecInt
 341               	PrintDecInt:
 342               	.LFB20:
 343               	.LM48:
 344               	.LVL17:
 345               	/* prologue: function */
 346               	/* frame size = 0 */
 347 0100 9C01      		movw r18,r24
 348 0102 FB01      		movw r30,r22
 349               	.LM49:
 350 0104 8536      		cpi r24,101
 351 0106 9105      		cpc r25,__zero_reg__
 352 0108 04F4      		brge .L37
 353               	.LVL18:
 354 010a 6330      		cpi r22,3
 355 010c 7105      		cpc r23,__zero_reg__
 356 010e 04F0      		brlt .L38
 357               	.L37:
 358               	.LM50:
 359 0110 C901      		movw r24,r18
 360               	.LVL19:
 361 0112 64E6      		ldi r22,lo8(100)
 362 0114 70E0      		ldi r23,hi8(100)
 363 0116 0E94 0000 		call __divmodhi4
 364 011a 605D      		subi r22,lo8(-(48))
 365 011c 7F4F      		sbci r23,hi8(-(48))
 366               	.LBB303:
 367               	.LBB304:
 368               	.LM51:
 369 011e 6093 C600 		sts 198,r22
 370               	.L39:
 371               	.LM52:
 372 0122 8091 C000 		lds r24,192
 373 0126 86FF      		sbrs r24,6
 374 0128 00C0      		rjmp .L39
 375               	.LM53:
 376 012a 8091 C000 		lds r24,192
 377 012e 8064      		ori r24,lo8(64)
 378 0130 8093 C000 		sts 192,r24
 379               	.LVL20:
 380               	.L38:
 381               	.LBE304:
 382               	.LBE303:
 383               	.LM54:
 384 0134 2B30      		cpi r18,11
 385 0136 3105      		cpc r19,__zero_reg__
 386 0138 04F4      		brge .L40
 387 013a 3297      		sbiw r30,2
 388 013c 04F0      		brlt .L41
 389               	.L40:
 390               	.LM55:
 391 013e C901      		movw r24,r18
 392 0140 64E6      		ldi r22,lo8(100)
 393 0142 70E0      		ldi r23,hi8(100)
 394 0144 0E94 0000 		call __divmodhi4
 395 0148 6AE0      		ldi r22,lo8(10)
 396 014a 70E0      		ldi r23,hi8(10)
 397 014c 0E94 0000 		call __divmodhi4
 398 0150 605D      		subi r22,lo8(-(48))
 399 0152 7F4F      		sbci r23,hi8(-(48))
 400               	.LBB305:
 401               	.LBB306:
 402               	.LM56:
 403 0154 6093 C600 		sts 198,r22
 404               	.L42:
 405               	.LM57:
 406 0158 8091 C000 		lds r24,192
 407 015c 86FF      		sbrs r24,6
 408 015e 00C0      		rjmp .L42
 409               	.LM58:
 410 0160 8091 C000 		lds r24,192
 411 0164 8064      		ori r24,lo8(64)
 412 0166 8093 C000 		sts 192,r24
 413               	.LVL21:
 414               	.L41:
 415               	.LBE306:
 416               	.LBE305:
 417               	.LM59:
 418 016a C901      		movw r24,r18
 419 016c 6AE0      		ldi r22,lo8(10)
 420 016e 70E0      		ldi r23,hi8(10)
 421 0170 0E94 0000 		call __divmodhi4
 422 0174 C096      		adiw r24,48
 423               	.LBB307:
 424               	.LBB308:
 425               	.LM60:
 426 0176 8093 C600 		sts 198,r24
 427               	.L43:
 428               	.LM61:
 429 017a 8091 C000 		lds r24,192
 430 017e 86FF      		sbrs r24,6
 431 0180 00C0      		rjmp .L43
 432               	.LM62:
 433 0182 8091 C000 		lds r24,192
 434 0186 8064      		ori r24,lo8(64)
 435 0188 8093 C000 		sts 192,r24
 436               	/* epilogue start */
 437               	.LBE308:
 438               	.LBE307:
 439               	.LM63:
 440 018c 0895      		ret
 441               	.LFE20:
 444               	PrintAvailablePort:
 445               	.LFB26:
 446               	.LM64:
 447               	.LVL22:
 448 018e 1F93      		push r17
 449               	/* prologue: function */
 450               	/* frame size = 0 */
 451 0190 182F      		mov r17,r24
 452               	.LM65:
 453 0192 80E0      		ldi r24,lo8(gTextMsg_PORT)
 454 0194 90E0      		ldi r25,hi8(gTextMsg_PORT)
 455               	.LVL23:
 456 0196 60E0      		ldi r22,lo8(0)
 457 0198 0E94 0000 		call PrintFromPROGMEM
 458               	.LBB309:
 459               	.LBB310:
 460               	.LM66:
 461 019c 1093 C600 		sts 198,r17
 462               	.L49:
 463               	.LM67:
 464 01a0 8091 C000 		lds r24,192
 465 01a4 86FF      		sbrs r24,6
 466 01a6 00C0      		rjmp .L49
 467               	.LM68:
 468 01a8 8091 C000 		lds r24,192
 469 01ac 8064      		ori r24,lo8(64)
 470 01ae 8093 C000 		sts 192,r24
 471               	.LBE310:
 472               	.LBE309:
 473               	.LM69:
 474 01b2 0E94 0000 		call PrintNewLine
 475               	/* epilogue start */
 476               	.LM70:
 477 01b6 1F91      		pop r17
 478               	.LVL24:
 479 01b8 0895      		ret
 480               	.LFE26:
 483               	DumpHex:
 484               	.LFB23:
 485               	.LM71:
 486               	.LVL25:
 487 01ba 2F92      		push r2
 488 01bc 3F92      		push r3
 489 01be 4F92      		push r4
 490 01c0 5F92      		push r5
 491 01c2 6F92      		push r6
 492 01c4 7F92      		push r7
 493 01c6 8F92      		push r8
 494 01c8 9F92      		push r9
 495 01ca AF92      		push r10
 496 01cc BF92      		push r11
 497 01ce CF92      		push r12
 498 01d0 DF92      		push r13
 499 01d2 EF92      		push r14
 500 01d4 FF92      		push r15
 501 01d6 0F93      		push r16
 502 01d8 1F93      		push r17
 503 01da DF93      		push r29
 504 01dc CF93      		push r28
 505 01de CDB7      		in r28,__SP_L__
 506 01e0 DEB7      		in r29,__SP_H__
 507 01e2 6297      		sbiw r28,18
 508 01e4 0FB6      		in __tmp_reg__,__SREG__
 509 01e6 F894      		cli
 510 01e8 DEBF      		out __SP_H__,r29
 511 01ea 0FBE      		out __SREG__,__tmp_reg__
 512 01ec CDBF      		out __SP_L__,r28
 513               	/* prologue: function */
 514               	/* frame size = 18 */
 515 01ee 382E      		mov r3,r24
 516 01f0 622E      		mov r6,r18
 517               	.LM72:
 518 01f2 CA01      		movw r24,r20
 519               	.LVL26:
 520 01f4 DB01      		movw r26,r22
 521 01f6 5C01      		movw r10,r24
 522 01f8 6D01      		movw r12,r26
 523               	.LVL27:
 524 01fa 7724      		clr r7
 525               	.LVL28:
 526               	.LBB311:
 527               	.LBB312:
 528               	.LM73:
 529 01fc 20E2      		ldi r18,lo8(32)
 530 01fe 222E      		mov r2,r18
 531               	.LVL29:
 532 0200 2E01      		movw r4,r28
 533 0202 0894      		sec
 534 0204 411C      		adc r4,__zero_reg__
 535 0206 511C      		adc r5,__zero_reg__
 536 0208 00C0      		rjmp .L53
 537               	.LVL30:
 538               	.L66:
 539               	.LBE312:
 540               	.LBE311:
 541               	.LM74:
 542 020a 81E0      		ldi r24,lo8(65537)
 543 020c A816      		cp r10,r24
 544 020e 80E0      		ldi r24,hi8(65537)
 545 0210 B806      		cpc r11,r24
 546 0212 81E0      		ldi r24,hlo8(65537)
 547 0214 C806      		cpc r12,r24
 548 0216 80E0      		ldi r24,hhi8(65537)
 549 0218 D806      		cpc r13,r24
 550 021a 00F0      		brlo .L54
 551               	.LM75:
 552 021c C601      		movw r24,r12
 553 021e AA27      		clr r26
 554 0220 BB27      		clr r27
 555 0222 0E94 0000 		call PrintHexByte
 556               	.L54:
 557               	.LM76:
 558 0226 BB27      		clr r27
 559 0228 AD2D      		mov r26,r13
 560 022a 9C2D      		mov r25,r12
 561 022c 8B2D      		mov r24,r11
 562 022e 0E94 0000 		call PrintHexByte
 563               	.LM77:
 564 0232 8A2D      		mov r24,r10
 565 0234 0E94 0000 		call PrintHexByte
 566               	.LBB314:
 567               	.LBB313:
 568               	.LM78:
 569 0238 2092 C600 		sts 198,r2
 570               	.L55:
 571               	.LM79:
 572 023c 8091 C000 		lds r24,192
 573 0240 86FF      		sbrs r24,6
 574 0242 00C0      		rjmp .L55
 575               	.LM80:
 576 0244 8091 C000 		lds r24,192
 577 0248 8064      		ori r24,lo8(64)
 578 024a 8093 C000 		sts 192,r24
 579               	.LBE313:
 580               	.LBE314:
 581               	.LBB315:
 582               	.LBB316:
 583               	.LM81:
 584 024e 9DE2      		ldi r25,lo8(45)
 585 0250 9093 C600 		sts 198,r25
 586               	.L56:
 587               	.LM82:
 588 0254 8091 C000 		lds r24,192
 589 0258 86FF      		sbrs r24,6
 590 025a 00C0      		rjmp .L56
 591               	.LM83:
 592 025c 8091 C000 		lds r24,192
 593 0260 8064      		ori r24,lo8(64)
 594 0262 8093 C000 		sts 192,r24
 595               	.LBE316:
 596               	.LBE315:
 597               	.LBB317:
 598               	.LBB318:
 599               	.LM84:
 600 0266 2092 C600 		sts 198,r2
 601               	.L57:
 602               	.LM85:
 603 026a 8091 C000 		lds r24,192
 604 026e 86FF      		sbrs r24,6
 605 0270 00C0      		rjmp .L57
 606               	.LM86:
 607 0272 8091 C000 		lds r24,192
 608 0276 8064      		ori r24,lo8(64)
 609 0278 8093 C000 		sts 192,r24
 610               	.LBE318:
 611               	.LBE317:
 612               	.LM87:
 613 027c 1982      		std Y+1,__zero_reg__
 614 027e 8601      		movw r16,r12
 615 0280 7501      		movw r14,r10
 616 0282 8824      		clr r8
 617 0284 9924      		clr r9
 618               	.LVL31:
 619               	.L65:
 620               	.LM88:
 621 0286 A1E0      		ldi r26,lo8(1)
 622 0288 3A16      		cp r3,r26
 623 028a 01F0      		breq .L60
 624 028c 3A16      		cp r3,r26
 625 028e 00F0      		brlo .L59
 626 0290 B2E0      		ldi r27,lo8(2)
 627 0292 3B16      		cp r3,r27
 628 0294 01F4      		brne .L58
 629 0296 00C0      		rjmp .L73
 630               	.L59:
 631               	.LBB319:
 632               	.LM89:
 633               	/* #APP */
 634               	 ;  1509 "stk500boot.c" 1
 635 0298 0BBF      		out 59, r16
 636 029a F701      		movw r30, r14
 637 029c 7790      		elpm r7, Z+
 638               		
 639               	 ;  0 "" 2
 640               	/* #NOAPP */
 641 029e 00C0      		rjmp .L58
 642               	.L60:
 643               	.LBE319:
 644               	.LM90:
 645 02a0 C701      		movw r24,r14
 646 02a2 0E94 0000 		call __eerd_byte_m2560
 647 02a6 782E      		mov r7,r24
 648 02a8 00C0      		rjmp .L58
 649               	.L73:
 650               	.LM91:
 651 02aa F701      		movw r30,r14
 652               	.LVL32:
 653 02ac 7080      		ld r7,Z
 654               	.LVL33:
 655               	.L58:
 656               	.LM92:
 657 02ae 872D      		mov r24,r7
 658 02b0 0E94 0000 		call PrintHexByte
 659               	.LBB320:
 660               	.LBB321:
 661               	.LM93:
 662 02b4 2092 C600 		sts 198,r2
 663               	.L62:
 664               	.LM94:
 665 02b8 8091 C000 		lds r24,192
 666 02bc 86FF      		sbrs r24,6
 667 02be 00C0      		rjmp .L62
 668               	.LM95:
 669 02c0 8091 C000 		lds r24,192
 670 02c4 8064      		ori r24,lo8(64)
 671 02c6 8093 C000 		sts 192,r24
 672               	.LBE321:
 673               	.LBE320:
 674               	.LM96:
 675 02ca 872D      		mov r24,r7
 676 02cc 8052      		subi r24,lo8(-(-32))
 677 02ce F401      		movw r30,r8
 678 02d0 EF70      		andi r30,lo8(15)
 679 02d2 F070      		andi r31,hi8(15)
 680 02d4 8F35      		cpi r24,lo8(95)
 681 02d6 00F4      		brsh .L63
 682               	.LM97:
 683 02d8 E40D      		add r30,r4
 684 02da F51D      		adc r31,r5
 685 02dc 7082      		st Z,r7
 686 02de 00C0      		rjmp .L64
 687               	.L63:
 688               	.LM98:
 689 02e0 E40D      		add r30,r4
 690 02e2 F51D      		adc r31,r5
 691 02e4 8EE2      		ldi r24,lo8(46)
 692 02e6 8083      		st Z,r24
 693               	.L64:
 694               	.LM99:
 695 02e8 0894      		sec
 696 02ea E11C      		adc r14,__zero_reg__
 697 02ec F11C      		adc r15,__zero_reg__
 698 02ee 011D      		adc r16,__zero_reg__
 699 02f0 111D      		adc r17,__zero_reg__
 700               	.LVL34:
 701 02f2 0894      		sec
 702 02f4 811C      		adc r8,__zero_reg__
 703 02f6 911C      		adc r9,__zero_reg__
 704               	.LM100:
 705 02f8 90E1      		ldi r25,lo8(16)
 706 02fa 8916      		cp r8,r25
 707 02fc 9104      		cpc r9,__zero_reg__
 708 02fe 01F0      		breq .+2
 709 0300 00C0      		rjmp .L65
 710 0302 80E1      		ldi r24,lo8(16)
 711 0304 90E0      		ldi r25,hi8(16)
 712 0306 A0E0      		ldi r26,hlo8(16)
 713 0308 B0E0      		ldi r27,hhi8(16)
 714 030a A80E      		add r10,r24
 715 030c B91E      		adc r11,r25
 716 030e CA1E      		adc r12,r26
 717 0310 DB1E      		adc r13,r27
 718               	.LVL35:
 719               	.LM101:
 720 0312 198A      		std Y+17,__zero_reg__
 721               	.LM102:
 722 0314 C201      		movw r24,r4
 723 0316 0E94 0000 		call PrintString
 724               	.LM103:
 725 031a 0E94 0000 		call PrintNewLine
 726               	.LM104:
 727 031e 6A94      		dec r6
 728               	.LVL36:
 729               	.L53:
 730               	.LM105:
 731 0320 6620      		tst r6
 732 0322 01F0      		breq .+2
 733 0324 00C0      		rjmp .L66
 734               	/* epilogue start */
 735               	.LM106:
 736 0326 6296      		adiw r28,18
 737 0328 0FB6      		in __tmp_reg__,__SREG__
 738 032a F894      		cli
 739 032c DEBF      		out __SP_H__,r29
 740 032e 0FBE      		out __SREG__,__tmp_reg__
 741 0330 CDBF      		out __SP_L__,r28
 742 0332 CF91      		pop r28
 743 0334 DF91      		pop r29
 744 0336 1F91      		pop r17
 745 0338 0F91      		pop r16
 746 033a FF90      		pop r15
 747 033c EF90      		pop r14
 748 033e DF90      		pop r13
 749 0340 CF90      		pop r12
 750 0342 BF90      		pop r11
 751 0344 AF90      		pop r10
 752               	.LVL37:
 753 0346 9F90      		pop r9
 754 0348 8F90      		pop r8
 755 034a 7F90      		pop r7
 756               	.LVL38:
 757 034c 6F90      		pop r6
 758               	.LVL39:
 759 034e 5F90      		pop r5
 760 0350 4F90      		pop r4
 761 0352 3F90      		pop r3
 762               	.LVL40:
 763 0354 2F90      		pop r2
 764 0356 0895      		ret
 765               	.LFE23:
 767               	.global	main
 769               	main:
 770               	.LFB12:
 771               	.LM107:
 772 0358 2F92      		push r2
 773 035a 3F92      		push r3
 774 035c 4F92      		push r4
 775 035e 5F92      		push r5
 776 0360 6F92      		push r6
 777 0362 7F92      		push r7
 778 0364 8F92      		push r8
 779 0366 9F92      		push r9
 780 0368 AF92      		push r10
 781 036a BF92      		push r11
 782 036c CF92      		push r12
 783 036e DF92      		push r13
 784 0370 EF92      		push r14
 785 0372 FF92      		push r15
 786 0374 0F93      		push r16
 787 0376 1F93      		push r17
 788 0378 DF93      		push r29
 789 037a CF93      		push r28
 790 037c CDB7      		in r28,__SP_L__
 791 037e DEB7      		in r29,__SP_H__
 792 0380 CD53      		subi r28,lo8(-(-317))
 793 0382 D140      		sbci r29,hi8(-(-317))
 794 0384 0FB6      		in __tmp_reg__,__SREG__
 795 0386 F894      		cli
 796 0388 DEBF      		out __SP_H__,r29
 797 038a 0FBE      		out __SREG__,__tmp_reg__
 798 038c CDBF      		out __SP_L__,r28
 799               	/* prologue: function */
 800               	/* frame size = 317 */
 801               	.LM108:
 802               	/* #APP */
 803               	 ;  556 "stk500boot.c" 1
 804               		.set __stack, 8703
 805               	 ;  0 "" 2
 806               	.LM109:
 807               	 ;  557 "stk500boot.c" 1
 808 038e 01E2      		ldi	16, 33
 809               	 ;  0 "" 2
 810               	.LM110:
 811               	 ;  558 "stk500boot.c" 1
 812 0390 0EBF      		out 62,16
 813               	 ;  0 "" 2
 814               	.LM111:
 815               	 ;  559 "stk500boot.c" 1
 816 0392 0FEF      		ldi	16, 255
 817               	 ;  0 "" 2
 818               	.LM112:
 819               	 ;  560 "stk500boot.c" 1
 820 0394 0DBF      		out 61,16
 821               	 ;  0 "" 2
 822               	.LM113:
 823               	/* #NOAPP */
 824 0396 94B7      		in r25,84-32
 825               	.LVL41:
 826               	.LM114:
 827               	/* #APP */
 828               	 ;  569 "stk500boot.c" 1
 829 0398 F894      		cli
 830               	 ;  0 "" 2
 831               	.LM115:
 832               	 ;  570 "stk500boot.c" 1
 833 039a A895      		wdr
 834               	 ;  0 "" 2
 835               	.LM116:
 836               	/* #NOAPP */
 837 039c 14BE      		out 84-32,__zero_reg__
 838               	.LM117:
 839 039e 8091 6000 		lds r24,96
 840 03a2 8861      		ori r24,lo8(24)
 841 03a4 8093 6000 		sts 96,r24
 842               	.LM118:
 843 03a8 1092 6000 		sts 96,__zero_reg__
 844               	.LM119:
 845               	/* #APP */
 846               	 ;  574 "stk500boot.c" 1
 847 03ac 7894      		sei
 848               	 ;  0 "" 2
 849               	.LM120:
 850               	/* #NOAPP */
 851 03ae 93FF      		sbrs r25,3
 852 03b0 00C0      		rjmp .L75
 853               	.LM121:
 854 03b2 E091 0000 		lds r30,app_start
 855 03b6 F091 0000 		lds r31,(app_start)+1
 856 03ba 1995      		eicall
 857               	.LVL42:
 858               	.L75:
 859               	.LM122:
 860 03bc 8091 0701 		lds r24,263
 861 03c0 8064      		ori r24,lo8(64)
 862 03c2 8093 0701 		sts 263,r24
 863               	.LM123:
 864 03c6 8091 0801 		lds r24,264
 865 03ca 8064      		ori r24,lo8(64)
 866 03cc 8093 0801 		sts 264,r24
 867               	.LM124:
 868 03d0 8091 C000 		lds r24,192
 869 03d4 8260      		ori r24,lo8(2)
 870 03d6 8093 C000 		sts 192,r24
 871               	.LM125:
 872 03da 80E1      		ldi r24,lo8(16)
 873 03dc 8093 C400 		sts 196,r24
 874               	.LM126:
 875 03e0 88E1      		ldi r24,lo8(24)
 876 03e2 8093 C100 		sts 193,r24
 877               	.LM127:
 878               	/* #APP */
 879               	 ;  625 "stk500boot.c" 1
 880 03e6 0000      		nop
 881               	 ;  0 "" 2
 882               	/* #NOAPP */
 883 03e8 EE24      		clr r14
 884 03ea FF24      		clr r15
 885 03ec 8701      		movw r16,r14
 886               	.LVL43:
 887               	.LBB561:
 888               	.LBB562:
 889               	.LBB563:
 890               	.LBB564:
 891               	.LM128:
 892 03ee 54E0      		ldi r21,lo8(4)
 893 03f0 A52E      		mov r10,r21
 894 03f2 B12C      		mov r11,__zero_reg__
 895               	.LBE564:
 896               	.LBE563:
 897               	.LBE562:
 898               	.LBE561:
 899               	.LM129:
 900 03f4 40E4      		ldi r20,lo8(64)
 901 03f6 942E      		mov r9,r20
 902               	.LM130:
 903 03f8 CC24      		clr r12
 904 03fa DD24      		clr r13
 905               	.LVL44:
 906 03fc 00C0      		rjmp .L340
 907               	.L80:
 908               	.LBB568:
 909               	.LBB567:
 910               	.LBB566:
 911               	.LBB565:
 912               	.LM131:
 913 03fe C501      		movw r24,r10
 914               	.LVL45:
 915               	/* #APP */
 916               	 ;  105 "c:/winavr-20100110/lib/gcc/../../avr/include/util/delay_basic.h" 1
 917 0400 0197      		1: sbiw r24,1
 918 0402 01F4      		brne 1b
 919               	 ;  0 "" 2
 920               	/* #NOAPP */
 921               	.LBE565:
 922               	.LBE566:
 923               	.LBE567:
 924               	.LBE568:
 925               	.LM132:
 926 0404 0894      		sec
 927 0406 E11C      		adc r14,__zero_reg__
 928 0408 F11C      		adc r15,__zero_reg__
 929 040a 011D      		adc r16,__zero_reg__
 930 040c 111D      		adc r17,__zero_reg__
 931 040e 21E2      		ldi r18,lo8(20001)
 932 0410 E216      		cp r14,r18
 933 0412 2EE4      		ldi r18,hi8(20001)
 934 0414 F206      		cpc r15,r18
 935 0416 20E0      		ldi r18,hlo8(20001)
 936 0418 0207      		cpc r16,r18
 937 041a 20E0      		ldi r18,hhi8(20001)
 938 041c 1207      		cpc r17,r18
 939 041e 00F0      		brlo .L77
 940 0420 31E0      		ldi r19,lo8(1)
 941 0422 C32E      		mov r12,r19
 942 0424 D12C      		mov r13,__zero_reg__
 943               	.L77:
 944               	.LM133:
 945 0426 C801      		movw r24,r16
 946 0428 B701      		movw r22,r14
 947 042a 27EC      		ldi r18,lo8(7111)
 948 042c 3BE1      		ldi r19,hi8(7111)
 949 042e 40E0      		ldi r20,hlo8(7111)
 950 0430 50E0      		ldi r21,hhi8(7111)
 951 0432 0E94 0000 		call __udivmodsi4
 952 0436 6115      		cp r22,__zero_reg__
 953 0438 7105      		cpc r23,__zero_reg__
 954 043a 8105      		cpc r24,__zero_reg__
 955 043c 9105      		cpc r25,__zero_reg__
 956 043e 01F4      		brne .L340
 957               	.LM134:
 958 0440 8091 0801 		lds r24,264
 959               	.LVL46:
 960 0444 8925      		eor r24,r9
 961 0446 8093 0801 		sts 264,r24
 962               	.LVL47:
 963               	.L340:
 964               	.LBB569:
 965               	.LBB570:
 966               	.LM135:
 967 044a 8091 C000 		lds r24,192
 968               	.LVL48:
 969               	.LBE570:
 970               	.LBE569:
 971               	.LM136:
 972 044e 87FD      		sbrc r24,7
 973 0450 00C0      		rjmp .L79
 974 0452 C114      		cp r12,__zero_reg__
 975 0454 D104      		cpc r13,__zero_reg__
 976 0456 01F0      		breq .L80
 977               	.L79:
 978               	.LM137:
 979 0458 A601      		movw r20,r12
 980 045a 4F5F      		subi r20,lo8(-(1))
 981 045c 5F4F      		sbci r21,hi8(-(1))
 982 045e C25E      		subi r28,lo8(-286)
 983 0460 DE4F      		sbci r29,hi8(-286)
 984 0462 5983      		std Y+1,r21
 985 0464 4883      		st Y,r20
 986 0466 CE51      		subi r28,lo8(286)
 987 0468 D140      		sbci r29,hi8(286)
 988               	.LVL49:
 989               	.LM138:
 990 046a C25E      		subi r28,lo8(-286)
 991 046c DE4F      		sbci r29,hi8(-286)
 992 046e 8881      		ld r24,Y
 993 0470 9981      		ldd r25,Y+1
 994 0472 CE51      		subi r28,lo8(286)
 995 0474 D140      		sbci r29,hi8(286)
 996 0476 0197      		sbiw r24,1
 997 0478 01F0      		breq .+4
 998 047a 0C94 0000 		jmp .L82
 999 047e C05D      		subi r28,lo8(-304)
 1000 0480 DE4F      		sbci r29,hi8(-304)
 1001 0482 1982      		std Y+1,__zero_reg__
 1002 0484 1882      		st Y,__zero_reg__
 1003 0486 C053      		subi r28,lo8(304)
 1004 0488 D140      		sbci r29,hi8(304)
 1005               	.LVL50:
 1006 048a 60E0      		ldi r22,lo8(0)
 1007               	.LVL51:
 1008 048c C15D      		subi r28,lo8(-303)
 1009 048e DE4F      		sbci r29,hi8(-303)
 1010 0490 1882      		st Y,__zero_reg__
 1011 0492 CF52      		subi r28,lo8(303)
 1012 0494 D140      		sbci r29,hi8(303)
 1013               	.LVL52:
 1014 0496 8824      		clr r8
 1015 0498 9924      		clr r9
 1016               	.LVL53:
 1017 049a C35D      		subi r28,lo8(-301)
 1018 049c DE4F      		sbci r29,hi8(-301)
 1019 049e 1982      		std Y+1,__zero_reg__
 1020 04a0 1882      		st Y,__zero_reg__
 1021 04a2 CD52      		subi r28,lo8(301)
 1022 04a4 D140      		sbci r29,hi8(301)
 1023               	.LVL54:
 1024 04a6 C05E      		subi r28,lo8(-288)
 1025 04a8 DE4F      		sbci r29,hi8(-288)
 1026 04aa 1882      		st Y,__zero_reg__
 1027 04ac 1982      		std Y+1,__zero_reg__
 1028 04ae 1A82      		std Y+2,__zero_reg__
 1029 04b0 1B82      		std Y+3,__zero_reg__
 1030 04b2 C052      		subi r28,lo8(288)
 1031 04b4 D140      		sbci r29,hi8(288)
 1032               	.LVL55:
 1033 04b6 CE5C      		subi r28,lo8(-306)
 1034 04b8 DE4F      		sbci r29,hi8(-306)
 1035 04ba 1882      		st Y,__zero_reg__
 1036 04bc 1982      		std Y+1,__zero_reg__
 1037 04be 1A82      		std Y+2,__zero_reg__
 1038 04c0 1B82      		std Y+3,__zero_reg__
 1039 04c2 C253      		subi r28,lo8(306)
 1040 04c4 D140      		sbci r29,hi8(306)
 1041               	.LVL56:
 1042               	.LBB571:
 1043               	.LBB572:
 1044               	.LBB573:
 1045               	.LBB574:
 1046               	.LM139:
 1047 04c6 EE24      		clr r14
 1048 04c8 FF24      		clr r15
 1049 04ca 8701      		movw r16,r14
 1050               	.LVL57:
 1051               	/* #APP */
 1052               	 ;  511 "stk500boot.c" 1
 1053 04cc 0BBF      		out 59, r16
 1054 04ce F701      		movw r30, r14
 1055 04d0 0791      		elpm r16, Z+
 1056 04d2 1691      		elpm r17, Z
 1057               		
 1058               	 ;  0 "" 2
 1059               	/* #NOAPP */
 1060 04d4 C45C      		subi r28,lo8(-316)
 1061 04d6 DE4F      		sbci r29,hi8(-316)
 1062 04d8 1983      		std Y+1,r17
 1063 04da 0883      		st Y,r16
 1064 04dc CC53      		subi r28,lo8(316)
 1065 04de D140      		sbci r29,hi8(316)
 1066 04e0 0C94 0000 		jmp .L83
 1067               	.LVL58:
 1068               	.L343:
 1069               	.LBE574:
 1070               	.LBE573:
 1071               	.LBE572:
 1072               	.LBE571:
 1073               	.LM140:
 1074 04e4 C25E      		subi r28,lo8(-286)
 1075 04e6 DE4F      		sbci r29,hi8(-286)
 1076 04e8 2881      		ld r18,Y
 1077 04ea 3981      		ldd r19,Y+1
 1078 04ec CE51      		subi r28,lo8(286)
 1079 04ee D140      		sbci r29,hi8(286)
 1080               	.LVL59:
 1081 04f0 2130      		cpi r18,1
 1082 04f2 3105      		cpc r19,__zero_reg__
 1083 04f4 01F4      		brne .L347
 1084               	.L84:
 1085               	.LM141:
 1086 04f6 2091 C600 		lds r18,198
 1087               	.LVL60:
 1088 04fa C25E      		subi r28,lo8(-286)
 1089 04fc DE4F      		sbci r29,hi8(-286)
 1090 04fe 1982      		std Y+1,__zero_reg__
 1091 0500 1882      		st Y,__zero_reg__
 1092 0502 CE51      		subi r28,lo8(286)
 1093 0504 D140      		sbci r29,hi8(286)
 1094               	.LVL61:
 1095 0506 00C0      		rjmp .L86
 1096               	.LVL62:
 1097               	.L88:
 1098               	.LBB577:
 1099               	.LBB576:
 1100               	.LM142:
 1101 0508 2F5F      		subi r18,lo8(-(1))
 1102 050a 3F4F      		sbci r19,hi8(-(1))
 1103 050c 4F4F      		sbci r20,hlo8(-(1))
 1104 050e 5F4F      		sbci r21,hhi8(-(1))
 1105               	.LM143:
 1106 0510 2130      		cpi r18,lo8(8000001)
 1107 0512 82E1      		ldi r24,hi8(8000001)
 1108 0514 3807      		cpc r19,r24
 1109 0516 8AE7      		ldi r24,hlo8(8000001)
 1110 0518 4807      		cpc r20,r24
 1111 051a 80E0      		ldi r24,hhi8(8000001)
 1112 051c 5807      		cpc r21,r24
 1113 051e 00F0      		brlo .L341
 1114               	.LBB575:
 1115               	.LM144:
 1116 0520 C45C      		subi r28,lo8(-316)
 1117 0522 DE4F      		sbci r29,hi8(-316)
 1118 0524 E881      		ld r30,Y
 1119 0526 F981      		ldd r31,Y+1
 1120 0528 CC53      		subi r28,lo8(316)
 1121 052a D140      		sbci r29,hi8(316)
 1122               	.LVL63:
 1123 052c EF5F      		subi r30,lo8(-1)
 1124 052e FF4F      		sbci r31,hi8(-1)
 1125 0530 01F0      		breq .L347
 1126               	.L87:
 1127               	.LM145:
 1128               	/* #APP */
 1129               	 ;  517 "stk500boot.c" 1
 1130 0532 EE27      		clr	r30		
 1131 0534 FF27      		clr	r31		
 1132 0536 0994      		ijmp	
 1133               		
 1134               	 ;  0 "" 2
 1135               	.LVL64:
 1136               	/* #NOAPP */
 1137               	.L347:
 1138 0538 20E0      		ldi r18,lo8(0)
 1139 053a 30E0      		ldi r19,hi8(0)
 1140 053c 40E0      		ldi r20,hlo8(0)
 1141 053e 50E0      		ldi r21,hhi8(0)
 1142               	.L341:
 1143               	.LBE575:
 1144               	.LM146:
 1145 0540 8091 C000 		lds r24,192
 1146 0544 87FF      		sbrs r24,7
 1147 0546 00C0      		rjmp .L88
 1148               	.LM147:
 1149 0548 2091 C600 		lds r18,198
 1150               	.LVL65:
 1151               	.L86:
 1152               	.LBE576:
 1153               	.LBE577:
 1154               	.LM148:
 1155 054c C35D      		subi r28,lo8(-301)
 1156 054e DE4F      		sbci r29,hi8(-301)
 1157 0550 4881      		ld r20,Y
 1158 0552 5981      		ldd r21,Y+1
 1159 0554 CD52      		subi r28,lo8(301)
 1160 0556 D140      		sbci r29,hi8(301)
 1161 0558 4F5F      		subi r20,lo8(-(1))
 1162 055a 5F4F      		sbci r21,hi8(-(1))
 1163 055c C35D      		subi r28,lo8(-301)
 1164 055e DE4F      		sbci r29,hi8(-301)
 1165 0560 5983      		std Y+1,r21
 1166 0562 4883      		st Y,r20
 1167 0564 CD52      		subi r28,lo8(301)
 1168 0566 D140      		sbci r29,hi8(301)
 1169               	.LVL66:
 1170               	.LM149:
 1171 0568 2132      		cpi r18,lo8(33)
 1172 056a 01F0      		breq .+2
 1173 056c 00C0      		rjmp .L89
 1174 056e 4A30      		cpi r20,10
 1175 0570 5105      		cpc r21,__zero_reg__
 1176 0572 00F0      		brlo .+2
 1177 0574 00C0      		rjmp .L89
 1178               	.LM150:
 1179 0576 0894      		sec
 1180 0578 811C      		adc r8,__zero_reg__
 1181 057a 911C      		adc r9,__zero_reg__
 1182               	.LM151:
 1183 057c 53E0      		ldi r21,lo8(3)
 1184 057e 8516      		cp r8,r21
 1185 0580 9104      		cpc r9,__zero_reg__
 1186 0582 01F0      		breq .+2
 1187 0584 00C0      		rjmp .L90
 1188 0586 00E0      		ldi r16,lo8(0)
 1189 0588 10E0      		ldi r17,hi8(0)
 1190               	.LVL67:
 1191 058a 00C0      		rjmp .L91
 1192               	.LVL68:
 1193               	.L93:
 1194               	.LBB578:
 1195               	.LBB579:
 1196               	.LBB580:
 1197               	.LBB581:
 1198               	.LM152:
 1199 058c 81E2      		ldi r24,lo8(33)
 1200 058e 8093 C600 		sts 198,r24
 1201               	.L92:
 1202               	.LM153:
 1203 0592 8091 C000 		lds r24,192
 1204 0596 86FF      		sbrs r24,6
 1205 0598 00C0      		rjmp .L92
 1206               	.LM154:
 1207 059a 8091 C000 		lds r24,192
 1208 059e 8064      		ori r24,lo8(64)
 1209 05a0 8093 C000 		sts 192,r24
 1210               	.LBE581:
 1211               	.LBE580:
 1212               	.LM155:
 1213 05a4 2F5F      		subi r18,lo8(-(1))
 1214 05a6 3F4F      		sbci r19,hi8(-(1))
 1215 05a8 2931      		cpi r18,25
 1216 05aa 3105      		cpc r19,__zero_reg__
 1217 05ac 01F4      		brne .L93
 1218               	.LM156:
 1219 05ae 0E94 0000 		call PrintNewLine
 1220               	.LVL69:
 1221               	.LM157:
 1222 05b2 0F5F      		subi r16,lo8(-(1))
 1223 05b4 1F4F      		sbci r17,hi8(-(1))
 1224 05b6 0530      		cpi r16,5
 1225 05b8 1105      		cpc r17,__zero_reg__
 1226 05ba 01F0      		breq .L94
 1227               	.LVL70:
 1228               	.L91:
 1229 05bc 20E0      		ldi r18,lo8(0)
 1230 05be 30E0      		ldi r19,hi8(0)
 1231               	.LVL71:
 1232 05c0 00C0      		rjmp .L93
 1233               	.LVL72:
 1234               	.L94:
 1235               	.LM158:
 1236 05c2 1092 0000 		sts gRamIndex,__zero_reg__
 1237 05c6 1092 0000 		sts (gRamIndex)+1,__zero_reg__
 1238 05ca 1092 0000 		sts (gRamIndex)+2,__zero_reg__
 1239 05ce 1092 0000 		sts (gRamIndex)+3,__zero_reg__
 1240               	.LM159:
 1241 05d2 1092 0000 		sts gFlashIndex,__zero_reg__
 1242 05d6 1092 0000 		sts (gFlashIndex)+1,__zero_reg__
 1243 05da 1092 0000 		sts (gFlashIndex)+2,__zero_reg__
 1244 05de 1092 0000 		sts (gFlashIndex)+3,__zero_reg__
 1245               	.LM160:
 1246 05e2 1092 0000 		sts gEepromIndex,__zero_reg__
 1247 05e6 1092 0000 		sts (gEepromIndex)+1,__zero_reg__
 1248 05ea 1092 0000 		sts (gEepromIndex)+2,__zero_reg__
 1249 05ee 1092 0000 		sts (gEepromIndex)+3,__zero_reg__
 1250               	.LM161:
 1251 05f2 80E0      		ldi r24,lo8(gTextMsg_Explorer)
 1252 05f4 90E0      		ldi r25,hi8(gTextMsg_Explorer)
 1253               	.LVL73:
 1254               	.L348:
 1255 05f6 60E0      		ldi r22,lo8(0)
 1256 05f8 0E94 0000 		call PrintFromPROGMEMln
 1257               	.LVL74:
 1258               	.LVL75:
 1259               	.L342:
 1260               	.LM162:
 1261 05fc 80E0      		ldi r24,lo8(gTextMsg_Prompt)
 1262 05fe 90E0      		ldi r25,hi8(gTextMsg_Prompt)
 1263 0600 60E0      		ldi r22,lo8(0)
 1264 0602 0E94 0000 		call PrintFromPROGMEM
 1265               	.LVL76:
 1266               	.L95:
 1267               	.LBB582:
 1268               	.LBB583:
 1269               	.LM163:
 1270 0606 8091 C000 		lds r24,192
 1271 060a 87FF      		sbrs r24,7
 1272 060c 00C0      		rjmp .L95
 1273               	.LM164:
 1274 060e 9091 C600 		lds r25,198
 1275               	.LVL77:
 1276               	.LBE583:
 1277               	.LBE582:
 1278               	.LM165:
 1279 0612 9036      		cpi r25,lo8(96)
 1280 0614 00F0      		brlo .L96
 1281               	.LM166:
 1282 0616 9F75      		andi r25,lo8(95)
 1283               	.L96:
 1284               	.LM167:
 1285 0618 9032      		cpi r25,lo8(32)
 1286 061a 00F0      		brlo .L97
 1287               	.LBB584:
 1288               	.LBB585:
 1289               	.LM168:
 1290 061c 9093 C600 		sts 198,r25
 1291               	.L98:
 1292               	.LM169:
 1293 0620 8091 C000 		lds r24,192
 1294 0624 86FF      		sbrs r24,6
 1295 0626 00C0      		rjmp .L98
 1296               	.LM170:
 1297 0628 8091 C000 		lds r24,192
 1298 062c 8064      		ori r24,lo8(64)
 1299 062e 8093 C000 		sts 192,r24
 1300               	.LBE585:
 1301               	.LBE584:
 1302               	.LBB586:
 1303               	.LBB587:
 1304               	.LM171:
 1305 0632 A0E2      		ldi r26,lo8(32)
 1306 0634 A093 C600 		sts 198,r26
 1307               	.L99:
 1308               	.LM172:
 1309 0638 8091 C000 		lds r24,192
 1310 063c 86FF      		sbrs r24,6
 1311 063e 00C0      		rjmp .L99
 1312               	.LM173:
 1313 0640 8091 C000 		lds r24,192
 1314 0644 8064      		ori r24,lo8(64)
 1315 0646 8093 C000 		sts 192,r24
 1316               	.L97:
 1317               	.LBE587:
 1318               	.LBE586:
 1319               	.LM174:
 1320 064a 9834      		cpi r25,lo8(72)
 1321 064c 01F4      		brne .+2
 1322 064e 00C0      		rjmp .L107
 1323 0650 9934      		cpi r25,lo8(73)
 1324 0652 00F4      		brsh .L113
 1325 0654 9234      		cpi r25,lo8(66)
 1326 0656 01F4      		brne .+2
 1327 0658 00C0      		rjmp .L104
 1328 065a 9334      		cpi r25,lo8(67)
 1329 065c 00F4      		brsh .L114
 1330 065e 9033      		cpi r25,lo8(48)
 1331 0660 01F0      		breq .L101
 1332 0662 9033      		cpi r25,lo8(48)
 1333 0664 00F4      		brsh .+2
 1334 0666 00C0      		rjmp .L100
 1335 0668 9F33      		cpi r25,lo8(63)
 1336 066a 01F0      		breq .L102
 1337 066c 9034      		cpi r25,lo8(64)
 1338 066e 01F0      		breq .+2
 1339 0670 00C0      		rjmp .L100
 1340 0672 00C0      		rjmp .L356
 1341               	.L114:
 1342 0674 9534      		cpi r25,lo8(69)
 1343 0676 01F4      		brne .+2
 1344 0678 00C0      		rjmp .L105
 1345 067a 9634      		cpi r25,lo8(70)
 1346 067c 01F0      		breq .+2
 1347 067e 00C0      		rjmp .L100
 1348 0680 00C0      		rjmp .L357
 1349               	.L113:
 1350 0682 9235      		cpi r25,lo8(82)
 1351 0684 01F4      		brne .+2
 1352 0686 00C0      		rjmp .L110
 1353 0688 9335      		cpi r25,lo8(83)
 1354 068a 00F4      		brsh .L115
 1355 068c 9C34      		cpi r25,lo8(76)
 1356 068e 01F4      		brne .+2
 1357 0690 00C0      		rjmp .L108
 1358 0692 9135      		cpi r25,lo8(81)
 1359 0694 01F0      		breq .+2
 1360 0696 00C0      		rjmp .L100
 1361 0698 00C0      		rjmp .L358
 1362               	.L115:
 1363 069a 9635      		cpi r25,lo8(86)
 1364 069c 01F4      		brne .+2
 1365 069e 00C0      		rjmp .L111
 1366 06a0 9935      		cpi r25,lo8(89)
 1367 06a2 01F0      		breq .+2
 1368 06a4 00C0      		rjmp .L100
 1369 06a6 00C0      		rjmp .L359
 1370               	.L101:
 1371               	.LM175:
 1372 06a8 80E0      		ldi r24,lo8(gTextMsg_HELP_MSG_0)
 1373 06aa 90E0      		ldi r25,hi8(gTextMsg_HELP_MSG_0)
 1374 06ac 62E0      		ldi r22,lo8(2)
 1375 06ae 0E94 0000 		call PrintFromPROGMEMln
 1376               	.LVL78:
 1377               	.LM176:
 1378 06b2 1092 0000 		sts gFlashIndex,__zero_reg__
 1379 06b6 1092 0000 		sts (gFlashIndex)+1,__zero_reg__
 1380 06ba 1092 0000 		sts (gFlashIndex)+2,__zero_reg__
 1381 06be 1092 0000 		sts (gFlashIndex)+3,__zero_reg__
 1382               	.LM177:
 1383 06c2 1092 0000 		sts gRamIndex,__zero_reg__
 1384 06c6 1092 0000 		sts (gRamIndex)+1,__zero_reg__
 1385 06ca 1092 0000 		sts (gRamIndex)+2,__zero_reg__
 1386 06ce 1092 0000 		sts (gRamIndex)+3,__zero_reg__
 1387 06d2 00C0      		rjmp .L349
 1388               	.LVL79:
 1389               	.L102:
 1390               	.LM178:
 1391 06d4 80E0      		ldi r24,lo8(gTextMsg_HELP_MSG_QM)
 1392 06d6 90E0      		ldi r25,hi8(gTextMsg_HELP_MSG_QM)
 1393 06d8 62E0      		ldi r22,lo8(2)
 1394 06da 0E94 0000 		call PrintFromPROGMEMln
 1395               	.LVL80:
 1396               	.LBB588:
 1397               	.LBB589:
 1398               	.LM179:
 1399 06de 80E0      		ldi r24,lo8(gTextMsg_Explorer)
 1400 06e0 90E0      		ldi r25,hi8(gTextMsg_Explorer)
 1401 06e2 60E0      		ldi r22,lo8(0)
 1402 06e4 0E94 0000 		call PrintFromPROGMEMln
 1403               	.LM180:
 1404 06e8 80E0      		ldi r24,lo8(gTextMsg_COMPILED_ON)
 1405 06ea 90E0      		ldi r25,hi8(gTextMsg_COMPILED_ON)
 1406 06ec 60E0      		ldi r22,lo8(0)
 1407 06ee 0E94 0000 		call PrintFromPROGMEM
 1408               	.LM181:
 1409 06f2 80E0      		ldi r24,lo8(gTextMsg_GCC_DATE_STR)
 1410 06f4 90E0      		ldi r25,hi8(gTextMsg_GCC_DATE_STR)
 1411 06f6 60E0      		ldi r22,lo8(0)
 1412 06f8 0E94 0000 		call PrintFromPROGMEMln
 1413               	.LM182:
 1414 06fc 80E0      		ldi r24,lo8(gTextMsg_CPU_Type)
 1415 06fe 90E0      		ldi r25,hi8(gTextMsg_CPU_Type)
 1416 0700 60E0      		ldi r22,lo8(0)
 1417 0702 0E94 0000 		call PrintFromPROGMEM
 1418               	.LM183:
 1419 0706 80E0      		ldi r24,lo8(gTextMsg_CPU_Name)
 1420 0708 90E0      		ldi r25,hi8(gTextMsg_CPU_Name)
 1421 070a 60E0      		ldi r22,lo8(0)
 1422 070c 0E94 0000 		call PrintFromPROGMEMln
 1423               	.LM184:
 1424 0710 80E0      		ldi r24,lo8(gTextMsg_AVR_ARCH)
 1425 0712 90E0      		ldi r25,hi8(gTextMsg_AVR_ARCH)
 1426 0714 60E0      		ldi r22,lo8(0)
 1427 0716 0E94 0000 		call PrintFromPROGMEM
 1428               	.LM185:
 1429 071a 86E0      		ldi r24,lo8(6)
 1430 071c 90E0      		ldi r25,hi8(6)
 1431 071e 61E0      		ldi r22,lo8(1)
 1432 0720 70E0      		ldi r23,hi8(1)
 1433 0722 0E94 0000 		call PrintDecInt
 1434               	.LM186:
 1435 0726 0E94 0000 		call PrintNewLine
 1436               	.LM187:
 1437 072a 80E0      		ldi r24,lo8(gTextMsg_GCC_VERSION)
 1438 072c 90E0      		ldi r25,hi8(gTextMsg_GCC_VERSION)
 1439 072e 60E0      		ldi r22,lo8(0)
 1440 0730 0E94 0000 		call PrintFromPROGMEM
 1441               	.LM188:
 1442 0734 80E0      		ldi r24,lo8(gTextMsg_GCC_VERSION_STR)
 1443 0736 90E0      		ldi r25,hi8(gTextMsg_GCC_VERSION_STR)
 1444 0738 60E0      		ldi r22,lo8(0)
 1445 073a 0E94 0000 		call PrintFromPROGMEMln
 1446               	.LM189:
 1447 073e 80E0      		ldi r24,lo8(gTextMsg_AVR_LIBC)
 1448 0740 90E0      		ldi r25,hi8(gTextMsg_AVR_LIBC)
 1449 0742 60E0      		ldi r22,lo8(0)
 1450 0744 0E94 0000 		call PrintFromPROGMEM
 1451               	.LM190:
 1452 0748 80E0      		ldi r24,lo8(gTextMsg_AVR_LIBC_VER_STR)
 1453 074a 90E0      		ldi r25,hi8(gTextMsg_AVR_LIBC_VER_STR)
 1454 074c 60E0      		ldi r22,lo8(0)
 1455 074e 0E94 0000 		call PrintFromPROGMEMln
 1456               	.LM191:
 1457 0752 80E0      		ldi r24,lo8(gTextMsg_CPU_SIGNATURE)
 1458 0754 90E0      		ldi r25,hi8(gTextMsg_CPU_SIGNATURE)
 1459 0756 60E0      		ldi r22,lo8(0)
 1460 0758 0E94 0000 		call PrintFromPROGMEM
 1461               	.LM192:
 1462 075c 8EE1      		ldi r24,lo8(30)
 1463 075e 0E94 0000 		call PrintHexByte
 1464               	.LM193:
 1465 0762 88E9      		ldi r24,lo8(-104)
 1466 0764 0E94 0000 		call PrintHexByte
 1467               	.LM194:
 1468 0768 81E0      		ldi r24,lo8(1)
 1469 076a 0E94 0000 		call PrintHexByte
 1470               	.LM195:
 1471 076e 0E94 0000 		call PrintNewLine
 1472               	.LM196:
 1473 0772 80E0      		ldi r24,lo8(gTextMsg_FUSE_BYTE_LOW)
 1474 0774 90E0      		ldi r25,hi8(gTextMsg_FUSE_BYTE_LOW)
 1475 0776 60E0      		ldi r22,lo8(0)
 1476 0778 0E94 0000 		call PrintFromPROGMEM
 1477               	.LBB590:
 1478               	.LM197:
 1479 077c 19E0      		ldi r17,lo8(9)
 1480               	.LVL81:
 1481 077e E0E0      		ldi r30,lo8(0)
 1482 0780 F0E0      		ldi r31,hi8(0)
 1483               	/* #APP */
 1484               	 ;  1430 "stk500boot.c" 1
 1485 0782 1093 5700 		sts 87, r17
 1486 0786 E491      		lpm r30, Z
 1487               		
 1488               	 ;  0 "" 2
 1489               	.LVL82:
 1490               	/* #NOAPP */
 1491               	.LBE590:
 1492               	.LM198:
 1493 0788 8E2F      		mov r24,r30
 1494 078a 0E94 0000 		call PrintHexByte
 1495               	.LVL83:
 1496               	.LM199:
 1497 078e 0E94 0000 		call PrintNewLine
 1498               	.LM200:
 1499 0792 80E0      		ldi r24,lo8(gTextMsg_FUSE_BYTE_HIGH)
 1500 0794 90E0      		ldi r25,hi8(gTextMsg_FUSE_BYTE_HIGH)
 1501 0796 60E0      		ldi r22,lo8(0)
 1502 0798 0E94 0000 		call PrintFromPROGMEM
 1503               	.LBB591:
 1504               	.LM201:
 1505 079c E3E0      		ldi r30,lo8(3)
 1506 079e F0E0      		ldi r31,hi8(3)
 1507               	/* #APP */
 1508               	 ;  1435 "stk500boot.c" 1
 1509 07a0 1093 5700 		sts 87, r17
 1510 07a4 E491      		lpm r30, Z
 1511               		
 1512               	 ;  0 "" 2
 1513               	.LVL84:
 1514               	/* #NOAPP */
 1515               	.LBE591:
 1516               	.LM202:
 1517 07a6 8E2F      		mov r24,r30
 1518 07a8 0E94 0000 		call PrintHexByte
 1519               	.LVL85:
 1520               	.LM203:
 1521 07ac 0E94 0000 		call PrintNewLine
 1522               	.LM204:
 1523 07b0 80E0      		ldi r24,lo8(gTextMsg_FUSE_BYTE_EXT)
 1524 07b2 90E0      		ldi r25,hi8(gTextMsg_FUSE_BYTE_EXT)
 1525 07b4 60E0      		ldi r22,lo8(0)
 1526 07b6 0E94 0000 		call PrintFromPROGMEM
 1527               	.LBB592:
 1528               	.LM205:
 1529 07ba E2E0      		ldi r30,lo8(2)
 1530 07bc F0E0      		ldi r31,hi8(2)
 1531               	/* #APP */
 1532               	 ;  1440 "stk500boot.c" 1
 1533 07be 1093 5700 		sts 87, r17
 1534 07c2 E491      		lpm r30, Z
 1535               		
 1536               	 ;  0 "" 2
 1537               	.LVL86:
 1538               	/* #NOAPP */
 1539               	.LBE592:
 1540               	.LM206:
 1541 07c4 8E2F      		mov r24,r30
 1542 07c6 0E94 0000 		call PrintHexByte
 1543               	.LVL87:
 1544               	.LM207:
 1545 07ca 0E94 0000 		call PrintNewLine
 1546               	.LM208:
 1547 07ce 80E0      		ldi r24,lo8(gTextMsg_FUSE_BYTE_LOCK)
 1548 07d0 90E0      		ldi r25,hi8(gTextMsg_FUSE_BYTE_LOCK)
 1549 07d2 60E0      		ldi r22,lo8(0)
 1550 07d4 0E94 0000 		call PrintFromPROGMEM
 1551               	.LBB593:
 1552               	.LM209:
 1553 07d8 E1E0      		ldi r30,lo8(1)
 1554 07da F0E0      		ldi r31,hi8(1)
 1555               	/* #APP */
 1556               	 ;  1445 "stk500boot.c" 1
 1557 07dc 1093 5700 		sts 87, r17
 1558 07e0 1491      		lpm r17, Z
 1559               		
 1560               	 ;  0 "" 2
 1561               	.LVL88:
 1562               	/* #NOAPP */
 1563               	.LBE593:
 1564               	.LM210:
 1565 07e2 812F      		mov r24,r17
 1566 07e4 0E94 0000 		call PrintHexByte
 1567               	.LM211:
 1568 07e8 0E94 0000 		call PrintNewLine
 1569 07ec 00C0      		rjmp .L342
 1570               	.LVL89:
 1571               	.L356:
 1572               	.LBE589:
 1573               	.LBE588:
 1574               	.LM212:
 1575 07ee 80E0      		ldi r24,lo8(gTextMsg_HELP_MSG_AT)
 1576 07f0 90E0      		ldi r25,hi8(gTextMsg_HELP_MSG_AT)
 1577 07f2 62E0      		ldi r22,lo8(2)
 1578 07f4 0E94 0000 		call PrintFromPROGMEMln
 1579               	.LVL90:
 1580               	.LBB594:
 1581               	.LBB595:
 1582               	.LM213:
 1583 07f8 80E0      		ldi r24,lo8(gTextMsg_WriteToEEprom)
 1584 07fa 90E0      		ldi r25,hi8(gTextMsg_WriteToEEprom)
 1585 07fc 60E0      		ldi r22,lo8(0)
 1586 07fe 0E94 0000 		call PrintFromPROGMEMln
 1587               	.LM214:
 1588 0802 0E94 0000 		call PrintNewLine
 1589 0806 00E0      		ldi r16,lo8(0)
 1590 0808 10E0      		ldi r17,hi8(0)
 1591               	.LVL91:
 1592 080a 00C0      		rjmp .L117
 1593               	.LVL92:
 1594               	.L122:
 1595               	.LM215:
 1596 080c C801      		movw r24,r16
 1597 080e 6F2D      		mov r22,r15
 1598 0810 0E94 0000 		call __eewr_byte_m2560
 1599               	.LM216:
 1600 0814 FF20      		tst r15
 1601 0816 01F4      		brne .L118
 1602               	.LM217:
 1603 0818 80E0      		ldi r24,lo8(gTextMsg_SPACE)
 1604 081a 90E0      		ldi r25,hi8(gTextMsg_SPACE)
 1605 081c 60E0      		ldi r22,lo8(0)
 1606 081e 0E94 0000 		call PrintFromPROGMEM
 1607 0822 00C0      		rjmp .L119
 1608               	.L118:
 1609               	.LBB597:
 1610               	.LBB598:
 1611               	.LM218:
 1612 0824 F092 C600 		sts 198,r15
 1613               	.L120:
 1614               	.LM219:
 1615 0828 8091 C000 		lds r24,192
 1616 082c 86FF      		sbrs r24,6
 1617 082e 00C0      		rjmp .L120
 1618               	.LM220:
 1619 0830 8091 C000 		lds r24,192
 1620 0834 8064      		ori r24,lo8(64)
 1621 0836 8093 C000 		sts 192,r24
 1622               	.L119:
 1623               	.LBE598:
 1624               	.LBE597:
 1625               	.LM221:
 1626 083a 0F5F      		subi r16,lo8(-(1))
 1627 083c 1F4F      		sbci r17,hi8(-(1))
 1628               	.LVL93:
 1629               	.L117:
 1630               	.LBB596:
 1631               	.LM222:
 1632 083e C801      		movw r24,r16
 1633 0840 8050      		subi r24,lo8(-(gTextMsg_Explorer))
 1634 0842 9040      		sbci r25,hi8(-(gTextMsg_Explorer))
 1635 0844 A0E0      		ldi r26,lo8(0)
 1636 0846 B0E0      		ldi r27,hi8(0)
 1637               	/* #APP */
 1638               	 ;  1560 "stk500boot.c" 1
 1639 0848 ABBF      		out 59, r26
 1640 084a FC01      		movw r30, r24
 1641 084c F790      		elpm r15, Z+
 1642               		
 1643               	 ;  0 "" 2
 1644               	.LVL94:
 1645               	/* #NOAPP */
 1646               	.LBE596:
 1647 084e BAE2      		ldi r27,lo8(42)
 1648 0850 FB16      		cp r15,r27
 1649 0852 01F0      		breq .L121
 1650 0854 E2E0      		ldi r30,hi8(512)
 1651 0856 0030      		cpi r16,lo8(512)
 1652 0858 1E07      		cpc r17,r30
 1653 085a 01F4      		brne .L122
 1654               	.L121:
 1655               	.LM223:
 1656 085c 0E94 0000 		call PrintNewLine
 1657               	.LM224:
 1658 0860 0E94 0000 		call PrintNewLine
 1659               	.LM225:
 1660 0864 80E0      		ldi r24,lo8(gTextMsg_ReadingEEprom)
 1661 0866 90E0      		ldi r25,hi8(gTextMsg_ReadingEEprom)
 1662 0868 60E0      		ldi r22,lo8(0)
 1663 086a 0E94 0000 		call PrintFromPROGMEMln
 1664               	.LM226:
 1665 086e 0E94 0000 		call PrintNewLine
 1666 0872 CC24      		clr r12
 1667 0874 DD24      		clr r13
 1668               	.LVL95:
 1669 0876 00E0      		ldi r16,lo8(0)
 1670 0878 10E0      		ldi r17,hi8(0)
 1671               	.LVL96:
 1672 087a 00C0      		rjmp .L123
 1673               	.LVL97:
 1674               	.L129:
 1675               	.LBE595:
 1676               	.LM227:
 1677 087c C801      		movw r24,r16
 1678 087e 0E94 0000 		call __eerd_byte_m2560
 1679 0882 F82E      		mov r15,r24
 1680               	.LVL98:
 1681               	.LBB602:
 1682               	.LM228:
 1683 0884 8823      		tst r24
 1684 0886 01F4      		brne .L124
 1685               	.LVL99:
 1686               	.LM229:
 1687 0888 80E0      		ldi r24,lo8(gTextMsg_SPACE)
 1688 088a 90E0      		ldi r25,hi8(gTextMsg_SPACE)
 1689               	.LVL100:
 1690 088c 60E0      		ldi r22,lo8(0)
 1691 088e 0E94 0000 		call PrintFromPROGMEM
 1692 0892 00C0      		rjmp .L125
 1693               	.LVL101:
 1694               	.L124:
 1695               	.LBB599:
 1696               	.LBB600:
 1697               	.LM230:
 1698 0894 8093 C600 		sts 198,r24
 1699               	.LVL102:
 1700               	.L126:
 1701               	.LM231:
 1702 0898 8091 C000 		lds r24,192
 1703 089c 86FF      		sbrs r24,6
 1704 089e 00C0      		rjmp .L126
 1705               	.LM232:
 1706 08a0 8091 C000 		lds r24,192
 1707 08a4 8064      		ori r24,lo8(64)
 1708 08a6 8093 C000 		sts 192,r24
 1709               	.L125:
 1710               	.LBE600:
 1711               	.LBE599:
 1712               	.LM233:
 1713 08aa FE14      		cp r15,r14
 1714 08ac 01F0      		breq .L127
 1715               	.LM234:
 1716 08ae 0894      		sec
 1717 08b0 C11C      		adc r12,__zero_reg__
 1718 08b2 D11C      		adc r13,__zero_reg__
 1719               	.L127:
 1720               	.LM235:
 1721 08b4 0F5F      		subi r16,lo8(-(1))
 1722 08b6 1F4F      		sbci r17,hi8(-(1))
 1723               	.LVL103:
 1724               	.L123:
 1725               	.LBB601:
 1726               	.LM236:
 1727 08b8 C801      		movw r24,r16
 1728 08ba 8050      		subi r24,lo8(-(gTextMsg_Explorer))
 1729 08bc 9040      		sbci r25,hi8(-(gTextMsg_Explorer))
 1730 08be A0E0      		ldi r26,lo8(0)
 1731 08c0 B0E0      		ldi r27,hi8(0)
 1732               	/* #APP */
 1733               	 ;  1585 "stk500boot.c" 1
 1734 08c2 ABBF      		out 59, r26
 1735 08c4 FC01      		movw r30, r24
 1736 08c6 E790      		elpm r14, Z+
 1737               		
 1738               	 ;  0 "" 2
 1739               	.LVL104:
 1740               	/* #NOAPP */
 1741               	.LBE601:
 1742 08c8 FAE2      		ldi r31,lo8(42)
 1743 08ca EF16      		cp r14,r31
 1744 08cc 01F0      		breq .L128
 1745 08ce 22E0      		ldi r18,hi8(512)
 1746 08d0 0030      		cpi r16,lo8(512)
 1747 08d2 1207      		cpc r17,r18
 1748 08d4 01F4      		brne .L129
 1749               	.L128:
 1750               	.LM237:
 1751 08d6 0E94 0000 		call PrintNewLine
 1752               	.LM238:
 1753 08da 0E94 0000 		call PrintNewLine
 1754               	.LM239:
 1755 08de 80E0      		ldi r24,lo8(gTextMsg_EEPROMerrorCnt)
 1756 08e0 90E0      		ldi r25,hi8(gTextMsg_EEPROMerrorCnt)
 1757 08e2 60E0      		ldi r22,lo8(0)
 1758 08e4 0E94 0000 		call PrintFromPROGMEM
 1759               	.LM240:
 1760 08e8 C601      		movw r24,r12
 1761 08ea 61E0      		ldi r22,lo8(1)
 1762 08ec 70E0      		ldi r23,hi8(1)
 1763 08ee 0E94 0000 		call PrintDecInt
 1764               	.LM241:
 1765 08f2 0E94 0000 		call PrintNewLine
 1766               	.LM242:
 1767 08f6 0E94 0000 		call PrintNewLine
 1768               	.LVL105:
 1769               	.L349:
 1770               	.LM243:
 1771 08fa 1092 0000 		sts gEepromIndex,__zero_reg__
 1772 08fe 1092 0000 		sts (gEepromIndex)+1,__zero_reg__
 1773 0902 1092 0000 		sts (gEepromIndex)+2,__zero_reg__
 1774 0906 1092 0000 		sts (gEepromIndex)+3,__zero_reg__
 1775 090a 00C0      		rjmp .L342
 1776               	.LVL106:
 1777               	.L104:
 1778               	.LBE602:
 1779               	.LBE594:
 1780               	.LM244:
 1781 090c 80E0      		ldi r24,lo8(gTextMsg_HELP_MSG_B)
 1782 090e 90E0      		ldi r25,hi8(gTextMsg_HELP_MSG_B)
 1783 0910 62E0      		ldi r22,lo8(2)
 1784 0912 0E94 0000 		call PrintFromPROGMEMln
 1785               	.LVL107:
 1786               	.LBB603:
 1787               	.LBB604:
 1788               	.LM245:
 1789 0916 8091 0701 		lds r24,263
 1790 091a 8064      		ori r24,lo8(64)
 1791 091c 8093 0701 		sts 263,r24
 1792               	.LM246:
 1793 0920 8091 0801 		lds r24,264
 1794 0924 8064      		ori r24,lo8(64)
 1795 0926 8093 0801 		sts 264,r24
 1796 092a 00C0      		rjmp .L130
 1797               	.LVL108:
 1798               	.L133:
 1799               	.LM247:
 1800 092c 8091 0801 		lds r24,264
 1801 0930 8F7B      		andi r24,lo8(-65)
 1802 0932 8093 0801 		sts 264,r24
 1803 0936 80E0      		ldi r24,lo8(0)
 1804 0938 90E0      		ldi r25,hi8(0)
 1805               	.LVL109:
 1806               	.L131:
 1807               	.LBB605:
 1808               	.LBB606:
 1809               	.LBB607:
 1810               	.LBB608:
 1811               	.LBB609:
 1812               	.LBB610:
 1813               	.LM248:
 1814 093a E0ED      		ldi r30,lo8(2000)
 1815 093c F7E0      		ldi r31,hi8(2000)
 1816               	.LVL110:
 1817               	/* #APP */
 1818               	 ;  105 "c:/winavr-20100110/lib/gcc/../../avr/include/util/delay_basic.h" 1
 1819 093e 3197      		1: sbiw r30,1
 1820 0940 01F4      		brne 1b
 1821               	 ;  0 "" 2
 1822               	/* #NOAPP */
 1823               	.LBE610:
 1824               	.LBE609:
 1825               	.LBE608:
 1826               	.LBE607:
 1827               	.LM249:
 1828 0942 0196      		adiw r24,1
 1829 0944 8436      		cpi r24,100
 1830 0946 9105      		cpc r25,__zero_reg__
 1831 0948 01F4      		brne .L131
 1832               	.LBE606:
 1833               	.LBE605:
 1834               	.LM250:
 1835 094a 8091 0801 		lds r24,264
 1836               	.LVL111:
 1837 094e 8064      		ori r24,lo8(64)
 1838 0950 8093 0801 		sts 264,r24
 1839 0954 80E0      		ldi r24,lo8(0)
 1840 0956 90E0      		ldi r25,hi8(0)
 1841               	.LVL112:
 1842               	.L132:
 1843               	.LBB611:
 1844               	.LBB612:
 1845               	.LBB613:
 1846               	.LBB614:
 1847               	.LBB615:
 1848               	.LBB616:
 1849               	.LM251:
 1850 0958 E0ED      		ldi r30,lo8(2000)
 1851 095a F7E0      		ldi r31,hi8(2000)
 1852               	.LVL113:
 1853               	/* #APP */
 1854               	 ;  105 "c:/winavr-20100110/lib/gcc/../../avr/include/util/delay_basic.h" 1
 1855 095c 3197      		1: sbiw r30,1
 1856 095e 01F4      		brne 1b
 1857               	 ;  0 "" 2
 1858               	/* #NOAPP */
 1859               	.LBE616:
 1860               	.LBE615:
 1861               	.LBE614:
 1862               	.LBE613:
 1863               	.LM252:
 1864 0960 0196      		adiw r24,1
 1865 0962 8436      		cpi r24,100
 1866 0964 9105      		cpc r25,__zero_reg__
 1867 0966 01F4      		brne .L132
 1868               	.L130:
 1869               	.LBE612:
 1870               	.LBE611:
 1871               	.LBB617:
 1872               	.LBB618:
 1873               	.LM253:
 1874 0968 8091 C000 		lds r24,192
 1875               	.LVL114:
 1876               	.LBE618:
 1877               	.LBE617:
 1878               	.LM254:
 1879 096c 87FF      		sbrs r24,7
 1880 096e 00C0      		rjmp .L133
 1881               	.L283:
 1882               	.LBB619:
 1883               	.LBB620:
 1884               	.LM255:
 1885 0970 8091 C000 		lds r24,192
 1886 0974 87FF      		sbrs r24,7
 1887 0976 00C0      		rjmp .L283
 1888 0978 00C0      		rjmp .L350
 1889               	.LVL115:
 1890               	.L105:
 1891               	.LBE620:
 1892               	.LBE619:
 1893               	.LBE604:
 1894               	.LBE603:
 1895               	.LM256:
 1896 097a 80E0      		ldi r24,lo8(gTextMsg_HELP_MSG_E)
 1897 097c 90E0      		ldi r25,hi8(gTextMsg_HELP_MSG_E)
 1898 097e 62E0      		ldi r22,lo8(2)
 1899 0980 0E94 0000 		call PrintFromPROGMEMln
 1900               	.LVL116:
 1901               	.LM257:
 1902 0984 4091 0000 		lds r20,gEepromIndex
 1903 0988 5091 0000 		lds r21,(gEepromIndex)+1
 1904 098c 6091 0000 		lds r22,(gEepromIndex)+2
 1905 0990 7091 0000 		lds r23,(gEepromIndex)+3
 1906 0994 81E0      		ldi r24,lo8(1)
 1907 0996 20E1      		ldi r18,lo8(16)
 1908 0998 0E94 0000 		call DumpHex
 1909               	.LM258:
 1910 099c 8091 0000 		lds r24,gEepromIndex
 1911 09a0 9091 0000 		lds r25,(gEepromIndex)+1
 1912 09a4 A091 0000 		lds r26,(gEepromIndex)+2
 1913 09a8 B091 0000 		lds r27,(gEepromIndex)+3
 1914 09ac 8050      		subi r24,lo8(-(256))
 1915 09ae 9F4F      		sbci r25,hi8(-(256))
 1916 09b0 AF4F      		sbci r26,hlo8(-(256))
 1917 09b2 BF4F      		sbci r27,hhi8(-(256))
 1918 09b4 8093 0000 		sts gEepromIndex,r24
 1919 09b8 9093 0000 		sts (gEepromIndex)+1,r25
 1920 09bc A093 0000 		sts (gEepromIndex)+2,r26
 1921 09c0 B093 0000 		sts (gEepromIndex)+3,r27
 1922               	.LM259:
 1923 09c4 8050      		subi r24,lo8(4096)
 1924 09c6 9041      		sbci r25,hi8(4096)
 1925 09c8 A040      		sbci r26,hlo8(4096)
 1926 09ca B040      		sbci r27,hhi8(4096)
 1927 09cc 00F4      		brsh .+2
 1928 09ce 00C0      		rjmp .L342
 1929 09d0 00C0      		rjmp .L349
 1930               	.LVL117:
 1931               	.L357:
 1932               	.LM260:
 1933 09d2 80E0      		ldi r24,lo8(gTextMsg_HELP_MSG_F)
 1934 09d4 90E0      		ldi r25,hi8(gTextMsg_HELP_MSG_F)
 1935 09d6 62E0      		ldi r22,lo8(2)
 1936 09d8 0E94 0000 		call PrintFromPROGMEMln
 1937               	.LVL118:
 1938               	.LM261:
 1939 09dc 4091 0000 		lds r20,gFlashIndex
 1940 09e0 5091 0000 		lds r21,(gFlashIndex)+1
 1941 09e4 6091 0000 		lds r22,(gFlashIndex)+2
 1942 09e8 7091 0000 		lds r23,(gFlashIndex)+3
 1943 09ec 80E0      		ldi r24,lo8(0)
 1944 09ee 20E1      		ldi r18,lo8(16)
 1945 09f0 0E94 0000 		call DumpHex
 1946               	.LM262:
 1947 09f4 8091 0000 		lds r24,gFlashIndex
 1948 09f8 9091 0000 		lds r25,(gFlashIndex)+1
 1949 09fc A091 0000 		lds r26,(gFlashIndex)+2
 1950 0a00 B091 0000 		lds r27,(gFlashIndex)+3
 1951 0a04 8050      		subi r24,lo8(-(256))
 1952 0a06 9F4F      		sbci r25,hi8(-(256))
 1953 0a08 AF4F      		sbci r26,hlo8(-(256))
 1954 0a0a BF4F      		sbci r27,hhi8(-(256))
 1955 0a0c 8093 0000 		sts gFlashIndex,r24
 1956 0a10 9093 0000 		sts (gFlashIndex)+1,r25
 1957 0a14 A093 0000 		sts (gFlashIndex)+2,r26
 1958 0a18 B093 0000 		sts (gFlashIndex)+3,r27
 1959 0a1c 00C0      		rjmp .L342
 1960               	.LVL119:
 1961               	.L107:
 1962               	.LM263:
 1963 0a1e 80E0      		ldi r24,lo8(gTextMsg_HELP_MSG_H)
 1964 0a20 90E0      		ldi r25,hi8(gTextMsg_HELP_MSG_H)
 1965 0a22 62E0      		ldi r22,lo8(2)
 1966 0a24 0E94 0000 		call PrintFromPROGMEMln
 1967               	.LVL120:
 1968               	.LBB621:
 1969               	.LBB622:
 1970               	.LM264:
 1971 0a28 80E0      		ldi r24,lo8(gTextMsg_HELP_MSG_0)
 1972 0a2a 90E0      		ldi r25,hi8(gTextMsg_HELP_MSG_0)
 1973 0a2c 60E0      		ldi r22,lo8(0)
 1974 0a2e 0E94 0000 		call PrintFromPROGMEMln
 1975               	.LM265:
 1976 0a32 80E0      		ldi r24,lo8(gTextMsg_HELP_MSG_QM)
 1977 0a34 90E0      		ldi r25,hi8(gTextMsg_HELP_MSG_QM)
 1978 0a36 60E0      		ldi r22,lo8(0)
 1979 0a38 0E94 0000 		call PrintFromPROGMEMln
 1980               	.LM266:
 1981 0a3c 80E0      		ldi r24,lo8(gTextMsg_HELP_MSG_AT)
 1982 0a3e 90E0      		ldi r25,hi8(gTextMsg_HELP_MSG_AT)
 1983 0a40 60E0      		ldi r22,lo8(0)
 1984 0a42 0E94 0000 		call PrintFromPROGMEMln
 1985               	.LM267:
 1986 0a46 80E0      		ldi r24,lo8(gTextMsg_HELP_MSG_B)
 1987 0a48 90E0      		ldi r25,hi8(gTextMsg_HELP_MSG_B)
 1988 0a4a 60E0      		ldi r22,lo8(0)
 1989 0a4c 0E94 0000 		call PrintFromPROGMEMln
 1990               	.LM268:
 1991 0a50 80E0      		ldi r24,lo8(gTextMsg_HELP_MSG_E)
 1992 0a52 90E0      		ldi r25,hi8(gTextMsg_HELP_MSG_E)
 1993 0a54 60E0      		ldi r22,lo8(0)
 1994 0a56 0E94 0000 		call PrintFromPROGMEMln
 1995               	.LM269:
 1996 0a5a 80E0      		ldi r24,lo8(gTextMsg_HELP_MSG_F)
 1997 0a5c 90E0      		ldi r25,hi8(gTextMsg_HELP_MSG_F)
 1998 0a5e 60E0      		ldi r22,lo8(0)
 1999 0a60 0E94 0000 		call PrintFromPROGMEMln
 2000               	.LM270:
 2001 0a64 80E0      		ldi r24,lo8(gTextMsg_HELP_MSG_H)
 2002 0a66 90E0      		ldi r25,hi8(gTextMsg_HELP_MSG_H)
 2003 0a68 60E0      		ldi r22,lo8(0)
 2004 0a6a 0E94 0000 		call PrintFromPROGMEMln
 2005               	.LM271:
 2006 0a6e 80E0      		ldi r24,lo8(gTextMsg_HELP_MSG_L)
 2007 0a70 90E0      		ldi r25,hi8(gTextMsg_HELP_MSG_L)
 2008 0a72 60E0      		ldi r22,lo8(0)
 2009 0a74 0E94 0000 		call PrintFromPROGMEMln
 2010               	.LM272:
 2011 0a78 80E0      		ldi r24,lo8(gTextMsg_HELP_MSG_Q)
 2012 0a7a 90E0      		ldi r25,hi8(gTextMsg_HELP_MSG_Q)
 2013 0a7c 60E0      		ldi r22,lo8(0)
 2014 0a7e 0E94 0000 		call PrintFromPROGMEMln
 2015               	.LM273:
 2016 0a82 80E0      		ldi r24,lo8(gTextMsg_HELP_MSG_R)
 2017 0a84 90E0      		ldi r25,hi8(gTextMsg_HELP_MSG_R)
 2018 0a86 60E0      		ldi r22,lo8(0)
 2019 0a88 0E94 0000 		call PrintFromPROGMEMln
 2020               	.LM274:
 2021 0a8c 80E0      		ldi r24,lo8(gTextMsg_HELP_MSG_V)
 2022 0a8e 90E0      		ldi r25,hi8(gTextMsg_HELP_MSG_V)
 2023 0a90 60E0      		ldi r22,lo8(0)
 2024 0a92 0E94 0000 		call PrintFromPROGMEMln
 2025               	.LM275:
 2026 0a96 80E0      		ldi r24,lo8(gTextMsg_HELP_MSG_Y)
 2027 0a98 90E0      		ldi r25,hi8(gTextMsg_HELP_MSG_Y)
 2028 0a9a 00C0      		rjmp .L348
 2029               	.LVL121:
 2030               	.L108:
 2031               	.LBE622:
 2032               	.LBE621:
 2033               	.LM276:
 2034 0a9c 80E0      		ldi r24,lo8(gTextMsg_HELP_MSG_L)
 2035 0a9e 90E0      		ldi r25,hi8(gTextMsg_HELP_MSG_L)
 2036 0aa0 62E0      		ldi r22,lo8(2)
 2037 0aa2 0E94 0000 		call PrintFromPROGMEMln
 2038               	.LVL122:
 2039               	.LBB623:
 2040               	.LBB624:
 2041               	.LM277:
 2042 0aa6 81E4      		ldi r24,lo8(65)
 2043 0aa8 0E94 0000 		call PrintAvailablePort
 2044               	.LM278:
 2045 0aac 82E4      		ldi r24,lo8(66)
 2046 0aae 0E94 0000 		call PrintAvailablePort
 2047               	.LM279:
 2048 0ab2 83E4      		ldi r24,lo8(67)
 2049 0ab4 0E94 0000 		call PrintAvailablePort
 2050               	.LM280:
 2051 0ab8 84E4      		ldi r24,lo8(68)
 2052 0aba 0E94 0000 		call PrintAvailablePort
 2053               	.LM281:
 2054 0abe 85E4      		ldi r24,lo8(69)
 2055 0ac0 0E94 0000 		call PrintAvailablePort
 2056               	.LM282:
 2057 0ac4 86E4      		ldi r24,lo8(70)
 2058 0ac6 0E94 0000 		call PrintAvailablePort
 2059               	.LM283:
 2060 0aca 87E4      		ldi r24,lo8(71)
 2061 0acc 0E94 0000 		call PrintAvailablePort
 2062               	.LM284:
 2063 0ad0 88E4      		ldi r24,lo8(72)
 2064 0ad2 0E94 0000 		call PrintAvailablePort
 2065               	.LM285:
 2066 0ad6 8AE4      		ldi r24,lo8(74)
 2067 0ad8 0E94 0000 		call PrintAvailablePort
 2068               	.LM286:
 2069 0adc 8BE4      		ldi r24,lo8(75)
 2070 0ade 0E94 0000 		call PrintAvailablePort
 2071               	.LM287:
 2072 0ae2 8CE4      		ldi r24,lo8(76)
 2073 0ae4 0E94 0000 		call PrintAvailablePort
 2074 0ae8 00C0      		rjmp .L342
 2075               	.LVL123:
 2076               	.L358:
 2077               	.LBE624:
 2078               	.LBE623:
 2079               	.LM288:
 2080 0aea 80E0      		ldi r24,lo8(gTextMsg_HELP_MSG_Q)
 2081 0aec 90E0      		ldi r25,hi8(gTextMsg_HELP_MSG_Q)
 2082 0aee 62E0      		ldi r22,lo8(2)
 2083 0af0 0E94 0000 		call PrintFromPROGMEMln
 2084               	.LVL124:
 2085 0af4 7724      		clr r7
 2086 0af6 7394      		inc r7
 2087 0af8 8824      		clr r8
 2088 0afa 9924      		clr r9
 2089 0afc 00C0      		rjmp .L135
 2090               	.LVL125:
 2091               	.L110:
 2092               	.LM289:
 2093 0afe 80E0      		ldi r24,lo8(gTextMsg_HELP_MSG_R)
 2094 0b00 90E0      		ldi r25,hi8(gTextMsg_HELP_MSG_R)
 2095 0b02 62E0      		ldi r22,lo8(2)
 2096 0b04 0E94 0000 		call PrintFromPROGMEMln
 2097               	.LVL126:
 2098               	.LM290:
 2099 0b08 4091 0000 		lds r20,gRamIndex
 2100 0b0c 5091 0000 		lds r21,(gRamIndex)+1
 2101 0b10 6091 0000 		lds r22,(gRamIndex)+2
 2102 0b14 7091 0000 		lds r23,(gRamIndex)+3
 2103 0b18 82E0      		ldi r24,lo8(2)
 2104 0b1a 20E1      		ldi r18,lo8(16)
 2105 0b1c 0E94 0000 		call DumpHex
 2106               	.LM291:
 2107 0b20 8091 0000 		lds r24,gRamIndex
 2108 0b24 9091 0000 		lds r25,(gRamIndex)+1
 2109 0b28 A091 0000 		lds r26,(gRamIndex)+2
 2110 0b2c B091 0000 		lds r27,(gRamIndex)+3
 2111 0b30 8050      		subi r24,lo8(-(256))
 2112 0b32 9F4F      		sbci r25,hi8(-(256))
 2113 0b34 AF4F      		sbci r26,hlo8(-(256))
 2114 0b36 BF4F      		sbci r27,hhi8(-(256))
 2115 0b38 8093 0000 		sts gRamIndex,r24
 2116 0b3c 9093 0000 		sts (gRamIndex)+1,r25
 2117 0b40 A093 0000 		sts (gRamIndex)+2,r26
 2118 0b44 B093 0000 		sts (gRamIndex)+3,r27
 2119 0b48 00C0      		rjmp .L342
 2120               	.LVL127:
 2121               	.L111:
 2122               	.LM292:
 2123 0b4a 80E0      		ldi r24,lo8(gTextMsg_HELP_MSG_V)
 2124 0b4c 90E0      		ldi r25,hi8(gTextMsg_HELP_MSG_V)
 2125 0b4e 62E0      		ldi r22,lo8(2)
 2126 0b50 0E94 0000 		call PrintFromPROGMEMln
 2127               	.LVL128:
 2128               	.LBB625:
 2129               	.LBB626:
 2130               	.LM293:
 2131 0b54 80E0      		ldi r24,lo8(gTextMsg_CPU_Name)
 2132 0b56 90E0      		ldi r25,hi8(gTextMsg_CPU_Name)
 2133 0b58 60E0      		ldi r22,lo8(0)
 2134 0b5a 0E94 0000 		call PrintFromPROGMEMln
 2135               	.LM294:
 2136 0b5e 80E0      		ldi r24,lo8(gTextMsg_VECTOR_HEADER)
 2137 0b60 90E0      		ldi r25,hi8(gTextMsg_VECTOR_HEADER)
 2138 0b62 60E0      		ldi r22,lo8(0)
 2139 0b64 0E94 0000 		call PrintFromPROGMEMln
 2140 0b68 6624      		clr r6
 2141 0b6a 7724      		clr r7
 2142 0b6c 4301      		movw r8,r6
 2143 0b6e CC5D      		subi r28,lo8(-292)
 2144 0b70 DE4F      		sbci r29,hi8(-292)
 2145 0b72 1982      		std Y+1,__zero_reg__
 2146 0b74 1882      		st Y,__zero_reg__
 2147 0b76 C452      		subi r28,lo8(292)
 2148 0b78 D140      		sbci r29,hi8(292)
 2149               	.LVL129:
 2150               	.L153:
 2151               	.LM295:
 2152 0b7a D401      		movw r26,r8
 2153 0b7c C301      		movw r24,r6
 2154 0b7e B695      		lsr r27
 2155 0b80 A795      		ror r26
 2156 0b82 9795      		ror r25
 2157 0b84 8795      		ror r24
 2158 0b86 CA5D      		subi r28,lo8(-294)
 2159 0b88 DE4F      		sbci r29,hi8(-294)
 2160 0b8a 8883      		st Y,r24
 2161 0b8c 9983      		std Y+1,r25
 2162 0b8e AA83      		std Y+2,r26
 2163 0b90 BB83      		std Y+3,r27
 2164 0b92 C652      		subi r28,lo8(294)
 2165 0b94 D140      		sbci r29,hi8(294)
 2166               	.LVL130:
 2167               	.LM296:
 2168 0b96 CC5D      		subi r28,lo8(-292)
 2169 0b98 DE4F      		sbci r29,hi8(-292)
 2170 0b9a A881      		ld r26,Y
 2171 0b9c B981      		ldd r27,Y+1
 2172 0b9e C452      		subi r28,lo8(292)
 2173 0ba0 D140      		sbci r29,hi8(292)
 2174 0ba2 1196      		adiw r26,1
 2175 0ba4 CC5D      		subi r28,lo8(-292)
 2176 0ba6 DE4F      		sbci r29,hi8(-292)
 2177 0ba8 B983      		std Y+1,r27
 2178 0baa A883      		st Y,r26
 2179 0bac C452      		subi r28,lo8(292)
 2180 0bae D140      		sbci r29,hi8(292)
 2181               	.LVL131:
 2182 0bb0 CD01      		movw r24,r26
 2183 0bb2 62E0      		ldi r22,lo8(2)
 2184 0bb4 70E0      		ldi r23,hi8(2)
 2185 0bb6 0E94 0000 		call PrintDecInt
 2186               	.LBB627:
 2187               	.LBB628:
 2188               	.LM297:
 2189 0bba B0E2      		ldi r27,lo8(32)
 2190 0bbc B093 C600 		sts 198,r27
 2191               	.L136:
 2192               	.LM298:
 2193 0bc0 8091 C000 		lds r24,192
 2194 0bc4 86FF      		sbrs r24,6
 2195 0bc6 00C0      		rjmp .L136
 2196               	.LM299:
 2197 0bc8 8091 C000 		lds r24,192
 2198 0bcc 8064      		ori r24,lo8(64)
 2199 0bce 8093 C000 		sts 192,r24
 2200               	.LBE628:
 2201               	.LBE627:
 2202               	.LBB629:
 2203               	.LBB630:
 2204               	.LM300:
 2205 0bd2 EDE2      		ldi r30,lo8(45)
 2206 0bd4 E093 C600 		sts 198,r30
 2207               	.L137:
 2208               	.LM301:
 2209 0bd8 8091 C000 		lds r24,192
 2210 0bdc 86FF      		sbrs r24,6
 2211 0bde 00C0      		rjmp .L137
 2212               	.LM302:
 2213 0be0 8091 C000 		lds r24,192
 2214 0be4 8064      		ori r24,lo8(64)
 2215 0be6 8093 C000 		sts 192,r24
 2216               	.LBE630:
 2217               	.LBE629:
 2218               	.LBB631:
 2219               	.LBB632:
 2220               	.LM303:
 2221 0bea F0E2      		ldi r31,lo8(32)
 2222 0bec F093 C600 		sts 198,r31
 2223               	.L138:
 2224               	.LM304:
 2225 0bf0 8091 C000 		lds r24,192
 2226 0bf4 86FF      		sbrs r24,6
 2227 0bf6 00C0      		rjmp .L138
 2228               	.LM305:
 2229 0bf8 8091 C000 		lds r24,192
 2230 0bfc 8064      		ori r24,lo8(64)
 2231 0bfe 8093 C000 		sts 192,r24
 2232               	.LBE632:
 2233               	.LBE631:
 2234               	.LM306:
 2235 0c02 CA5D      		subi r28,lo8(-294)
 2236 0c04 DE4F      		sbci r29,hi8(-294)
 2237 0c06 E880      		ld r14,Y
 2238 0c08 F980      		ldd r15,Y+1
 2239 0c0a 0A81      		ldd r16,Y+2
 2240 0c0c 1B81      		ldd r17,Y+3
 2241 0c0e C652      		subi r28,lo8(294)
 2242 0c10 D140      		sbci r29,hi8(294)
 2243               	.LVL132:
 2244 0c12 BB27      		clr r27
 2245 0c14 A12F      		mov r26,r17
 2246 0c16 902F      		mov r25,r16
 2247 0c18 8F2D      		mov r24,r15
 2248 0c1a 0E94 0000 		call PrintHexByte
 2249               	.LM307:
 2250 0c1e CA5D      		subi r28,lo8(-294)
 2251 0c20 DE4F      		sbci r29,hi8(-294)
 2252 0c22 8881      		ld r24,Y
 2253 0c24 C652      		subi r28,lo8(294)
 2254 0c26 D140      		sbci r29,hi8(294)
 2255 0c28 0E94 0000 		call PrintHexByte
 2256               	.LBB633:
 2257               	.LBB634:
 2258               	.LM308:
 2259 0c2c B0E2      		ldi r27,lo8(32)
 2260 0c2e FB2E      		mov r15,r27
 2261               	.LVL133:
 2262 0c30 F092 C600 		sts 198,r15
 2263               	.LVL134:
 2264               	.L139:
 2265               	.LM309:
 2266 0c34 8091 C000 		lds r24,192
 2267 0c38 86FF      		sbrs r24,6
 2268 0c3a 00C0      		rjmp .L139
 2269               	.LM310:
 2270 0c3c 8091 C000 		lds r24,192
 2271 0c40 8064      		ori r24,lo8(64)
 2272 0c42 8093 C000 		sts 192,r24
 2273               	.LBE634:
 2274               	.LBE633:
 2275               	.LBB635:
 2276               	.LBB636:
 2277               	.LM311:
 2278 0c46 0DE3      		ldi r16,lo8(61)
 2279               	.LVL135:
 2280 0c48 0093 C600 		sts 198,r16
 2281               	.L140:
 2282               	.LM312:
 2283 0c4c 8091 C000 		lds r24,192
 2284 0c50 86FF      		sbrs r24,6
 2285 0c52 00C0      		rjmp .L140
 2286               	.LM313:
 2287 0c54 8091 C000 		lds r24,192
 2288 0c58 8064      		ori r24,lo8(64)
 2289 0c5a 8093 C000 		sts 192,r24
 2290               	.LBE636:
 2291               	.LBE635:
 2292               	.LBB637:
 2293               	.LBB638:
 2294               	.LM314:
 2295 0c5e 10E2      		ldi r17,lo8(32)
 2296               	.LVL136:
 2297 0c60 1093 C600 		sts 198,r17
 2298               	.L141:
 2299               	.LM315:
 2300 0c64 8091 C000 		lds r24,192
 2301 0c68 86FF      		sbrs r24,6
 2302 0c6a 00C0      		rjmp .L141
 2303               	.LM316:
 2304 0c6c 8091 C000 		lds r24,192
 2305 0c70 8064      		ori r24,lo8(64)
 2306 0c72 8093 C000 		sts 192,r24
 2307               	.LBE638:
 2308               	.LBE637:
 2309               	.LBB639:
 2310               	.LM317:
 2311               	/* #APP */
 2312               	 ;  1669 "stk500boot.c" 1
 2313 0c76 8BBE      		out 59, r8
 2314 0c78 F301      		movw r30, r6
 2315 0c7a 2791      		elpm r18, Z+
 2316               		
 2317               	 ;  0 "" 2
 2318               	/* #NOAPP */
 2319 0c7c C65D      		subi r28,lo8(-298)
 2320 0c7e DE4F      		sbci r29,hi8(-298)
 2321 0c80 2883      		st Y,r18
 2322 0c82 CA52      		subi r28,lo8(298)
 2323 0c84 D140      		sbci r29,hi8(298)
 2324               	.LVL137:
 2325               	.LBE639:
 2326 0c86 A22E      		mov r10,r18
 2327               	.LVL138:
 2328 0c88 BB24      		clr r11
 2329 0c8a CC24      		clr r12
 2330 0c8c DD24      		clr r13
 2331               	.LVL139:
 2332               	.LBB640:
 2333               	.LM318:
 2334 0c8e 0894      		sec
 2335 0c90 611C      		adc r6,__zero_reg__
 2336 0c92 711C      		adc r7,__zero_reg__
 2337 0c94 811C      		adc r8,__zero_reg__
 2338 0c96 911C      		adc r9,__zero_reg__
 2339               	/* #APP */
 2340               	 ;  1670 "stk500boot.c" 1
 2341 0c98 8BBE      		out 59, r8
 2342 0c9a F301      		movw r30, r6
 2343 0c9c 8791      		elpm r24, Z+
 2344               		
 2345               	 ;  0 "" 2
 2346               	.LVL140:
 2347               	/* #NOAPP */
 2348               	.LBE640:
 2349 0c9e 282E      		mov r2,r24
 2350               	.LVL141:
 2351 0ca0 3324      		clr r3
 2352 0ca2 4424      		clr r4
 2353 0ca4 5524      		clr r5
 2354               	.LBB641:
 2355               	.LM319:
 2356 0ca6 0894      		sec
 2357 0ca8 611C      		adc r6,__zero_reg__
 2358 0caa 711C      		adc r7,__zero_reg__
 2359 0cac 811C      		adc r8,__zero_reg__
 2360 0cae 911C      		adc r9,__zero_reg__
 2361               	/* #APP */
 2362               	 ;  1671 "stk500boot.c" 1
 2363 0cb0 8BBE      		out 59, r8
 2364 0cb2 F301      		movw r30, r6
 2365 0cb4 3791      		elpm r19, Z+
 2366               		
 2367               	 ;  0 "" 2
 2368               	/* #NOAPP */
 2369 0cb6 C55D      		subi r28,lo8(-299)
 2370 0cb8 DE4F      		sbci r29,hi8(-299)
 2371 0cba 3883      		st Y,r19
 2372 0cbc CB52      		subi r28,lo8(299)
 2373 0cbe D140      		sbci r29,hi8(299)
 2374               	.LVL142:
 2375               	.LBE641:
 2376               	.LBB642:
 2377               	.LM320:
 2378 0cc0 0894      		sec
 2379 0cc2 611C      		adc r6,__zero_reg__
 2380 0cc4 711C      		adc r7,__zero_reg__
 2381 0cc6 811C      		adc r8,__zero_reg__
 2382 0cc8 911C      		adc r9,__zero_reg__
 2383               	/* #APP */
 2384               	 ;  1672 "stk500boot.c" 1
 2385 0cca 8BBE      		out 59, r8
 2386 0ccc F301      		movw r30, r6
 2387 0cce 4791      		elpm r20, Z+
 2388               		
 2389               	 ;  0 "" 2
 2390               	/* #NOAPP */
 2391 0cd0 C45D      		subi r28,lo8(-300)
 2392 0cd2 DE4F      		sbci r29,hi8(-300)
 2393 0cd4 4883      		st Y,r20
 2394 0cd6 CC52      		subi r28,lo8(300)
 2395 0cd8 D140      		sbci r29,hi8(300)
 2396               	.LVL143:
 2397 0cda ADEF      		ldi r26,lo8(-3)
 2398 0cdc EA2E      		mov r14,r26
 2399 0cde AFEF      		ldi r26,hi8(-3)
 2400 0ce0 FA2E      		mov r15,r26
 2401 0ce2 AFEF      		ldi r26,hlo8(-3)
 2402 0ce4 0A2F      		mov r16,r26
 2403 0ce6 AFEF      		ldi r26,hhi8(-3)
 2404 0ce8 1A2F      		mov r17,r26
 2405 0cea 6E0C      		add r6,r14
 2406 0cec 7F1C      		adc r7,r15
 2407 0cee 801E      		adc r8,r16
 2408 0cf0 911E      		adc r9,r17
 2409               	.LBE642:
 2410               	.LM321:
 2411 0cf2 142D      		mov r17,r4
 2412 0cf4 032D      		mov r16,r3
 2413 0cf6 F22C      		mov r15,r2
 2414 0cf8 EE24      		clr r14
 2415               	.LVL144:
 2416 0cfa EA0C      		add r14,r10
 2417 0cfc FB1C      		adc r15,r11
 2418 0cfe 0C1D      		adc r16,r12
 2419 0d00 1D1D      		adc r17,r13
 2420               	.LM322:
 2421 0d02 0E94 0000 		call PrintHexByte
 2422               	.LVL145:
 2423               	.LBB643:
 2424               	.LBB644:
 2425               	.LM323:
 2426 0d06 20E2      		ldi r18,lo8(32)
 2427 0d08 2093 C600 		sts 198,r18
 2428               	.L142:
 2429               	.LM324:
 2430 0d0c 8091 C000 		lds r24,192
 2431 0d10 86FF      		sbrs r24,6
 2432 0d12 00C0      		rjmp .L142
 2433               	.LM325:
 2434 0d14 8091 C000 		lds r24,192
 2435 0d18 8064      		ori r24,lo8(64)
 2436 0d1a 8093 C000 		sts 192,r24
 2437               	.LBE644:
 2438               	.LBE643:
 2439               	.LM326:
 2440 0d1e C65D      		subi r28,lo8(-298)
 2441 0d20 DE4F      		sbci r29,hi8(-298)
 2442 0d22 8881      		ld r24,Y
 2443 0d24 CA52      		subi r28,lo8(298)
 2444 0d26 D140      		sbci r29,hi8(298)
 2445 0d28 0E94 0000 		call PrintHexByte
 2446               	.LBB645:
 2447               	.LBB646:
 2448               	.LM327:
 2449 0d2c 30E2      		ldi r19,lo8(32)
 2450 0d2e 3093 C600 		sts 198,r19
 2451               	.L143:
 2452               	.LM328:
 2453 0d32 8091 C000 		lds r24,192
 2454 0d36 86FF      		sbrs r24,6
 2455 0d38 00C0      		rjmp .L143
 2456               	.LM329:
 2457 0d3a 8091 C000 		lds r24,192
 2458 0d3e 8064      		ori r24,lo8(64)
 2459 0d40 8093 C000 		sts 192,r24
 2460               	.LBE646:
 2461               	.LBE645:
 2462               	.LM330:
 2463 0d44 C45D      		subi r28,lo8(-300)
 2464 0d46 DE4F      		sbci r29,hi8(-300)
 2465 0d48 8881      		ld r24,Y
 2466 0d4a CC52      		subi r28,lo8(300)
 2467 0d4c D140      		sbci r29,hi8(300)
 2468 0d4e 0E94 0000 		call PrintHexByte
 2469               	.LBB647:
 2470               	.LBB648:
 2471               	.LM331:
 2472 0d52 40E2      		ldi r20,lo8(32)
 2473 0d54 4093 C600 		sts 198,r20
 2474               	.L144:
 2475               	.LM332:
 2476 0d58 8091 C000 		lds r24,192
 2477 0d5c 86FF      		sbrs r24,6
 2478 0d5e 00C0      		rjmp .L144
 2479               	.LM333:
 2480 0d60 8091 C000 		lds r24,192
 2481 0d64 8064      		ori r24,lo8(64)
 2482 0d66 8093 C000 		sts 192,r24
 2483               	.LBE648:
 2484               	.LBE647:
 2485               	.LM334:
 2486 0d6a C55D      		subi r28,lo8(-299)
 2487 0d6c DE4F      		sbci r29,hi8(-299)
 2488 0d6e 8881      		ld r24,Y
 2489 0d70 CB52      		subi r28,lo8(299)
 2490 0d72 D140      		sbci r29,hi8(299)
 2491 0d74 0E94 0000 		call PrintHexByte
 2492               	.LBB649:
 2493               	.LBB650:
 2494               	.LM335:
 2495 0d78 50E2      		ldi r21,lo8(32)
 2496 0d7a 5093 C600 		sts 198,r21
 2497               	.L145:
 2498               	.LM336:
 2499 0d7e 8091 C000 		lds r24,192
 2500 0d82 86FF      		sbrs r24,6
 2501 0d84 00C0      		rjmp .L145
 2502               	.LM337:
 2503 0d86 8091 C000 		lds r24,192
 2504 0d8a 8064      		ori r24,lo8(64)
 2505 0d8c 8093 C000 		sts 192,r24
 2506               	.LBE650:
 2507               	.LBE649:
 2508               	.LM338:
 2509 0d90 8FEF      		ldi r24,lo8(65535)
 2510 0d92 E816      		cp r14,r24
 2511 0d94 8FEF      		ldi r24,hi8(65535)
 2512 0d96 F806      		cpc r15,r24
 2513 0d98 80E0      		ldi r24,hlo8(65535)
 2514 0d9a 0807      		cpc r16,r24
 2515 0d9c 80E0      		ldi r24,hhi8(65535)
 2516 0d9e 1807      		cpc r17,r24
 2517 0da0 01F4      		brne .L146
 2518               	.LM339:
 2519 0da2 80E0      		ldi r24,lo8(gTextMsg_noVector)
 2520 0da4 90E0      		ldi r25,hi8(gTextMsg_noVector)
 2521 0da6 60E0      		ldi r22,lo8(0)
 2522 0da8 0E94 0000 		call PrintFromPROGMEM
 2523 0dac 00C0      		rjmp .L147
 2524               	.L146:
 2525               	.LM340:
 2526 0dae D801      		movw r26,r16
 2527 0db0 C701      		movw r24,r14
 2528 0db2 8070      		andi r24,lo8(49152)
 2529 0db4 907C      		andi r25,hi8(49152)
 2530 0db6 A070      		andi r26,hlo8(49152)
 2531 0db8 B070      		andi r27,hhi8(49152)
 2532 0dba 8050      		subi r24,lo8(49152)
 2533 0dbc 904C      		sbci r25,hi8(49152)
 2534 0dbe A040      		sbci r26,hlo8(49152)
 2535 0dc0 B040      		sbci r27,hhi8(49152)
 2536 0dc2 01F4      		brne .L148
 2537               	.LM341:
 2538 0dc4 2FEF      		ldi r18,lo8(16383)
 2539 0dc6 3FE3      		ldi r19,hi8(16383)
 2540 0dc8 40E0      		ldi r20,hlo8(16383)
 2541 0dca 50E0      		ldi r21,hhi8(16383)
 2542 0dcc E222      		and r14,r18
 2543 0dce F322      		and r15,r19
 2544 0dd0 0423      		and r16,r20
 2545 0dd2 1523      		and r17,r21
 2546               	.LVL146:
 2547               	.LM342:
 2548 0dd4 CA5D      		subi r28,lo8(-294)
 2549 0dd6 DE4F      		sbci r29,hi8(-294)
 2550 0dd8 A880      		ld r10,Y
 2551 0dda B980      		ldd r11,Y+1
 2552 0ddc CA80      		ldd r12,Y+2
 2553 0dde DB80      		ldd r13,Y+3
 2554 0de0 C652      		subi r28,lo8(294)
 2555 0de2 D140      		sbci r29,hi8(294)
 2556               	.LVL147:
 2557 0de4 AE0C      		add r10,r14
 2558 0de6 BF1C      		adc r11,r15
 2559 0de8 C01E      		adc r12,r16
 2560 0dea D11E      		adc r13,r17
 2561               	.LM343:
 2562 0dec AA0C      		lsl r10
 2563 0dee BB1C      		rol r11
 2564 0df0 CC1C      		rol r12
 2565 0df2 DD1C      		rol r13
 2566               	.LM344:
 2567 0df4 80E0      		ldi r24,lo8(gTextMsg_rjmp)
 2568 0df6 90E0      		ldi r25,hi8(gTextMsg_rjmp)
 2569 0df8 60E0      		ldi r22,lo8(0)
 2570 0dfa 0E94 0000 		call PrintFromPROGMEM
 2571               	.LM345:
 2572 0dfe BB27      		clr r27
 2573 0e00 A12F      		mov r26,r17
 2574 0e02 902F      		mov r25,r16
 2575 0e04 8F2D      		mov r24,r15
 2576 0e06 0E94 0000 		call PrintHexByte
 2577               	.LM346:
 2578 0e0a 8E2D      		mov r24,r14
 2579 0e0c 0E94 0000 		call PrintHexByte
 2580               	.LBB651:
 2581               	.LBB652:
 2582               	.LM347:
 2583 0e10 30E2      		ldi r19,lo8(32)
 2584 0e12 3093 C600 		sts 198,r19
 2585               	.LVL148:
 2586               	.L149:
 2587               	.LM348:
 2588 0e16 8091 C000 		lds r24,192
 2589 0e1a 86FF      		sbrs r24,6
 2590 0e1c 00C0      		rjmp .L149
 2591               	.LM349:
 2592 0e1e 8091 C000 		lds r24,192
 2593 0e22 8064      		ori r24,lo8(64)
 2594 0e24 8093 C000 		sts 192,r24
 2595               	.LBE652:
 2596               	.LBE651:
 2597               	.LBB653:
 2598               	.LBB654:
 2599               	.LM350:
 2600 0e28 4EE3      		ldi r20,lo8(62)
 2601 0e2a 4093 C600 		sts 198,r20
 2602               	.L150:
 2603               	.LM351:
 2604 0e2e 8091 C000 		lds r24,192
 2605 0e32 86FF      		sbrs r24,6
 2606 0e34 00C0      		rjmp .L150
 2607 0e36 00C0      		rjmp .L351
 2608               	.LVL149:
 2609               	.L148:
 2610               	.LBE654:
 2611               	.LBE653:
 2612               	.LM352:
 2613 0e38 8EE0      		ldi r24,lo8(65038)
 2614 0e3a 9EEF      		ldi r25,hi8(65038)
 2615 0e3c A0E0      		ldi r26,hlo8(65038)
 2616 0e3e B0E0      		ldi r27,hhi8(65038)
 2617 0e40 E822      		and r14,r24
 2618 0e42 F922      		and r15,r25
 2619 0e44 0A23      		and r16,r26
 2620 0e46 1B23      		and r17,r27
 2621 0e48 9CE0      		ldi r25,lo8(37900)
 2622 0e4a E916      		cp r14,r25
 2623 0e4c 94E9      		ldi r25,hi8(37900)
 2624 0e4e F906      		cpc r15,r25
 2625 0e50 90E0      		ldi r25,hlo8(37900)
 2626 0e52 0907      		cpc r16,r25
 2627 0e54 90E0      		ldi r25,hhi8(37900)
 2628 0e56 1907      		cpc r17,r25
 2629 0e58 01F0      		breq .+2
 2630 0e5a 00C0      		rjmp .L147
 2631               	.LM353:
 2632 0e5c C45D      		subi r28,lo8(-300)
 2633 0e5e DE4F      		sbci r29,hi8(-300)
 2634 0e60 A881      		ld r26,Y
 2635 0e62 CC52      		subi r28,lo8(300)
 2636 0e64 D140      		sbci r29,hi8(300)
 2637 0e66 EA2E      		mov r14,r26
 2638               	.LVL150:
 2639 0e68 FF24      		clr r15
 2640               	.LVL151:
 2641 0e6a 00E0      		ldi r16,lo8(0)
 2642 0e6c 10E0      		ldi r17,hi8(0)
 2643               	.LVL152:
 2644 0e6e 102F      		mov r17,r16
 2645 0e70 0F2D      		mov r16,r15
 2646 0e72 FE2C      		mov r15,r14
 2647 0e74 EE24      		clr r14
 2648               	.LVL153:
 2649 0e76 C55D      		subi r28,lo8(-299)
 2650 0e78 DE4F      		sbci r29,hi8(-299)
 2651 0e7a B881      		ld r27,Y
 2652 0e7c CB52      		subi r28,lo8(299)
 2653 0e7e D140      		sbci r29,hi8(299)
 2654 0e80 EB0E      		add r14,r27
 2655 0e82 F11C      		adc r15,__zero_reg__
 2656 0e84 011D      		adc r16,__zero_reg__
 2657 0e86 111D      		adc r17,__zero_reg__
 2658 0e88 D601      		movw r26,r12
 2659 0e8a C501      		movw r24,r10
 2660 0e8c 8170      		andi r24,lo8(1)
 2661 0e8e 9070      		andi r25,hi8(1)
 2662 0e90 A070      		andi r26,hlo8(1)
 2663 0e92 B070      		andi r27,hhi8(1)
 2664 0e94 DC01      		movw r26,r24
 2665 0e96 9927      		clr r25
 2666 0e98 8827      		clr r24
 2667 0e9a E80E      		add r14,r24
 2668 0e9c F91E      		adc r15,r25
 2669 0e9e 0A1F      		adc r16,r26
 2670 0ea0 1B1F      		adc r17,r27
 2671 0ea2 20EF      		ldi r18,lo8(240)
 2672 0ea4 30E0      		ldi r19,hi8(240)
 2673 0ea6 40E0      		ldi r20,hlo8(240)
 2674 0ea8 50E0      		ldi r21,hhi8(240)
 2675 0eaa A222      		and r10,r18
 2676 0eac B322      		and r11,r19
 2677 0eae C422      		and r12,r20
 2678 0eb0 D522      		and r13,r21
 2679               	.LVL154:
 2680 0eb2 41E1      		ldi r20,17
 2681 0eb4 AA0C      	1:	lsl r10
 2682 0eb6 BB1C      		rol r11
 2683 0eb8 CC1C      		rol r12
 2684 0eba DD1C      		rol r13
 2685 0ebc 4A95      		dec r20
 2686 0ebe 01F4      		brne 1b
 2687 0ec0 EA0C      		add r14,r10
 2688 0ec2 FB1C      		adc r15,r11
 2689 0ec4 0C1D      		adc r16,r12
 2690 0ec6 1D1D      		adc r17,r13
 2691 0ec8 81E0      		ldi r24,lo8(1)
 2692 0eca 90E0      		ldi r25,hi8(1)
 2693 0ecc A0E0      		ldi r26,hlo8(1)
 2694 0ece B0E0      		ldi r27,hhi8(1)
 2695 0ed0 2822      		and r2,r24
 2696 0ed2 3922      		and r3,r25
 2697 0ed4 4A22      		and r4,r26
 2698 0ed6 5B22      		and r5,r27
 2699               	.LVL155:
 2700 0ed8 35E1      		ldi r19,21
 2701 0eda 220C      	1:	lsl r2
 2702 0edc 331C      		rol r3
 2703 0ede 441C      		rol r4
 2704 0ee0 551C      		rol r5
 2705 0ee2 3A95      		dec r19
 2706 0ee4 01F4      		brne 1b
 2707 0ee6 E20C      		add r14,r2
 2708 0ee8 F31C      		adc r15,r3
 2709 0eea 041D      		adc r16,r4
 2710 0eec 151D      		adc r17,r5
 2711               	.LM354:
 2712 0eee 5701      		movw r10,r14
 2713 0ef0 6801      		movw r12,r16
 2714               	.LVL156:
 2715 0ef2 AA0C      		lsl r10
 2716 0ef4 BB1C      		rol r11
 2717 0ef6 CC1C      		rol r12
 2718 0ef8 DD1C      		rol r13
 2719               	.LM355:
 2720 0efa 80E0      		ldi r24,lo8(gTextMsg_jmp)
 2721 0efc 90E0      		ldi r25,hi8(gTextMsg_jmp)
 2722 0efe 60E0      		ldi r22,lo8(0)
 2723 0f00 0E94 0000 		call PrintFromPROGMEM
 2724               	.LM356:
 2725 0f04 C801      		movw r24,r16
 2726 0f06 AA27      		clr r26
 2727 0f08 BB27      		clr r27
 2728 0f0a 0E94 0000 		call PrintHexByte
 2729               	.LM357:
 2730 0f0e BB27      		clr r27
 2731 0f10 A12F      		mov r26,r17
 2732 0f12 902F      		mov r25,r16
 2733 0f14 8F2D      		mov r24,r15
 2734 0f16 0E94 0000 		call PrintHexByte
 2735               	.LM358:
 2736 0f1a 8E2D      		mov r24,r14
 2737 0f1c 0E94 0000 		call PrintHexByte
 2738               	.LBB655:
 2739               	.LBB656:
 2740               	.LM359:
 2741 0f20 90E2      		ldi r25,lo8(32)
 2742 0f22 9093 C600 		sts 198,r25
 2743               	.L151:
 2744               	.LM360:
 2745 0f26 8091 C000 		lds r24,192
 2746 0f2a 86FF      		sbrs r24,6
 2747 0f2c 00C0      		rjmp .L151
 2748               	.LM361:
 2749 0f2e 8091 C000 		lds r24,192
 2750 0f32 8064      		ori r24,lo8(64)
 2751 0f34 8093 C000 		sts 192,r24
 2752               	.LBE656:
 2753               	.LBE655:
 2754               	.LBB657:
 2755               	.LBB658:
 2756               	.LM362:
 2757 0f38 AEE3      		ldi r26,lo8(62)
 2758 0f3a A093 C600 		sts 198,r26
 2759               	.L152:
 2760               	.LM363:
 2761 0f3e 8091 C000 		lds r24,192
 2762 0f42 86FF      		sbrs r24,6
 2763 0f44 00C0      		rjmp .L152
 2764               	.LVL157:
 2765               	.L351:
 2766               	.LM364:
 2767 0f46 8091 C000 		lds r24,192
 2768 0f4a 8064      		ori r24,lo8(64)
 2769 0f4c 8093 C000 		sts 192,r24
 2770               	.LBE658:
 2771               	.LBE657:
 2772               	.LM365:
 2773 0f50 C601      		movw r24,r12
 2774 0f52 AA27      		clr r26
 2775 0f54 BB27      		clr r27
 2776 0f56 0E94 0000 		call PrintHexByte
 2777               	.LM366:
 2778 0f5a BB27      		clr r27
 2779 0f5c AD2D      		mov r26,r13
 2780 0f5e 9C2D      		mov r25,r12
 2781 0f60 8B2D      		mov r24,r11
 2782 0f62 0E94 0000 		call PrintHexByte
 2783               	.LM367:
 2784 0f66 8A2D      		mov r24,r10
 2785 0f68 0E94 0000 		call PrintHexByte
 2786               	.LVL158:
 2787               	.L147:
 2788               	.LM368:
 2789 0f6c 0E94 0000 		call PrintNewLine
 2790               	.LM369:
 2791 0f70 CC5D      		subi r28,lo8(-292)
 2792 0f72 DE4F      		sbci r29,hi8(-292)
 2793 0f74 E881      		ld r30,Y
 2794 0f76 F981      		ldd r31,Y+1
 2795 0f78 C452      		subi r28,lo8(292)
 2796 0f7a D140      		sbci r29,hi8(292)
 2797 0f7c F997      		sbiw r30,57
 2798 0f7e 01F4      		brne .+2
 2799 0f80 00C0      		rjmp .L342
 2800 0f82 F4E0      		ldi r31,lo8(4)
 2801 0f84 EF2E      		mov r14,r31
 2802 0f86 F12C      		mov r15,__zero_reg__
 2803 0f88 012D      		mov r16,__zero_reg__
 2804 0f8a 112D      		mov r17,__zero_reg__
 2805               	.LVL159:
 2806 0f8c 6E0C      		add r6,r14
 2807 0f8e 7F1C      		adc r7,r15
 2808 0f90 801E      		adc r8,r16
 2809 0f92 911E      		adc r9,r17
 2810 0f94 00C0      		rjmp .L153
 2811               	.LVL160:
 2812               	.L359:
 2813               	.LBE626:
 2814               	.LBE625:
 2815               	.LM370:
 2816 0f96 80E0      		ldi r24,lo8(gTextMsg_HELP_MSG_Y)
 2817 0f98 90E0      		ldi r25,hi8(gTextMsg_HELP_MSG_Y)
 2818 0f9a 62E0      		ldi r22,lo8(2)
 2819 0f9c 0E94 0000 		call PrintFromPROGMEMln
 2820               	.LVL161:
 2821               	.LBB659:
 2822               	.LBB660:
 2823               	.LM371:
 2824 0fa0 80E0      		ldi r24,lo8(gTextMsg_WHAT_PORT)
 2825 0fa2 90E0      		ldi r25,hi8(gTextMsg_WHAT_PORT)
 2826 0fa4 60E0      		ldi r22,lo8(0)
 2827 0fa6 0E94 0000 		call PrintFromPROGMEM
 2828               	.L154:
 2829               	.LBB661:
 2830               	.LBB662:
 2831               	.LM372:
 2832 0faa 8091 C000 		lds r24,192
 2833 0fae 87FF      		sbrs r24,7
 2834 0fb0 00C0      		rjmp .L154
 2835               	.LM373:
 2836 0fb2 1091 C600 		lds r17,198
 2837               	.LVL162:
 2838               	.LBE662:
 2839               	.LBE661:
 2840               	.LM374:
 2841 0fb6 1F75      		andi r17,lo8(95)
 2842               	.LBB663:
 2843               	.LBB664:
 2844               	.LM375:
 2845 0fb8 1093 C600 		sts 198,r17
 2846               	.L155:
 2847               	.LM376:
 2848 0fbc 8091 C000 		lds r24,192
 2849 0fc0 86FF      		sbrs r24,6
 2850 0fc2 00C0      		rjmp .L155
 2851               	.LM377:
 2852 0fc4 8091 C000 		lds r24,192
 2853 0fc8 8064      		ori r24,lo8(64)
 2854 0fca 8093 C000 		sts 192,r24
 2855               	.LBE664:
 2856               	.LBE663:
 2857               	.LM378:
 2858 0fce 0E94 0000 		call PrintNewLine
 2859               	.LM379:
 2860 0fd2 812F      		mov r24,r17
 2861 0fd4 8154      		subi r24,lo8(-(-65))
 2862 0fd6 8A31      		cpi r24,lo8(26)
 2863 0fd8 00F0      		brlo .+2
 2864 0fda 00C0      		rjmp .L156
 2865               	.LM380:
 2866 0fdc 1634      		cpi r17,lo8(70)
 2867 0fde 01F4      		brne .+2
 2868 0fe0 00C0      		rjmp .L163
 2869 0fe2 1734      		cpi r17,lo8(71)
 2870 0fe4 00F4      		brsh .L169
 2871 0fe6 1334      		cpi r17,lo8(67)
 2872 0fe8 01F4      		brne .+2
 2873 0fea 00C0      		rjmp .L160
 2874 0fec 1434      		cpi r17,lo8(68)
 2875 0fee 00F4      		brsh .L170
 2876 0ff0 1134      		cpi r17,lo8(65)
 2877 0ff2 01F0      		breq .L158
 2878 0ff4 1234      		cpi r17,lo8(66)
 2879 0ff6 01F0      		breq .+2
 2880 0ff8 00C0      		rjmp .L157
 2881 0ffa 00C0      		rjmp .L360
 2882               	.L170:
 2883 0ffc 1434      		cpi r17,lo8(68)
 2884 0ffe 01F4      		brne .+2
 2885 1000 00C0      		rjmp .L161
 2886 1002 1534      		cpi r17,lo8(69)
 2887 1004 01F0      		breq .+2
 2888 1006 00C0      		rjmp .L157
 2889 1008 00C0      		rjmp .L361
 2890               	.L169:
 2891 100a 1A34      		cpi r17,lo8(74)
 2892 100c 01F4      		brne .+2
 2893 100e 00C0      		rjmp .L166
 2894 1010 1B34      		cpi r17,lo8(75)
 2895 1012 00F4      		brsh .L171
 2896 1014 1734      		cpi r17,lo8(71)
 2897 1016 01F4      		brne .+2
 2898 1018 00C0      		rjmp .L164
 2899 101a 1834      		cpi r17,lo8(72)
 2900 101c 01F0      		breq .+2
 2901 101e 00C0      		rjmp .L157
 2902 1020 00C0      		rjmp .L362
 2903               	.L171:
 2904 1022 1B34      		cpi r17,lo8(75)
 2905 1024 01F4      		brne .+2
 2906 1026 00C0      		rjmp .L167
 2907 1028 1C34      		cpi r17,lo8(76)
 2908 102a 01F0      		breq .+2
 2909 102c 00C0      		rjmp .L157
 2910 102e 00C0      		rjmp .L363
 2911               	.L158:
 2912               	.LM381:
 2913 1030 8FEF      		ldi r24,lo8(-1)
 2914 1032 81B9      		out 33-32,r24
 2915 1034 00C0      		rjmp .L172
 2916               	.LVL163:
 2917               	.L174:
 2918               	.LM382:
 2919 1036 82B1      		in r24,34-32
 2920 1038 8095      		com r24
 2921 103a 82B9      		out 34-32,r24
 2922 103c 80E0      		ldi r24,lo8(0)
 2923 103e 90E0      		ldi r25,hi8(0)
 2924               	.LVL164:
 2925               	.L173:
 2926               	.LBB665:
 2927               	.LBB666:
 2928               	.LBB667:
 2929               	.LBB668:
 2930               	.LBB669:
 2931               	.LBB670:
 2932               	.LM383:
 2933 1040 E0ED      		ldi r30,lo8(2000)
 2934 1042 F7E0      		ldi r31,hi8(2000)
 2935               	/* #APP */
 2936               	 ;  105 "c:/winavr-20100110/lib/gcc/../../avr/include/util/delay_basic.h" 1
 2937 1044 3197      		1: sbiw r30,1
 2938 1046 01F4      		brne 1b
 2939               	 ;  0 "" 2
 2940               	/* #NOAPP */
 2941               	.LBE670:
 2942               	.LBE669:
 2943               	.LBE668:
 2944               	.LBE667:
 2945               	.LM384:
 2946 1048 0196      		adiw r24,1
 2947 104a 883C      		cpi r24,200
 2948 104c 9105      		cpc r25,__zero_reg__
 2949 104e 01F4      		brne .L173
 2950               	.L172:
 2951               	.LBE666:
 2952               	.LBE665:
 2953               	.LBB671:
 2954               	.LBB672:
 2955               	.LM385:
 2956 1050 8091 C000 		lds r24,192
 2957               	.LVL165:
 2958               	.LBE672:
 2959               	.LBE671:
 2960               	.LM386:
 2961 1054 87FF      		sbrs r24,7
 2962 1056 00C0      		rjmp .L174
 2963               	.LM387:
 2964 1058 12B8      		out 34-32,__zero_reg__
 2965 105a 00C0      		rjmp .L282
 2966               	.LVL166:
 2967               	.L360:
 2968               	.LM388:
 2969 105c 8FEF      		ldi r24,lo8(-1)
 2970 105e 84B9      		out 36-32,r24
 2971 1060 00C0      		rjmp .L176
 2972               	.LVL167:
 2973               	.L178:
 2974               	.LM389:
 2975 1062 85B1      		in r24,37-32
 2976 1064 8095      		com r24
 2977 1066 85B9      		out 37-32,r24
 2978 1068 80E0      		ldi r24,lo8(0)
 2979 106a 90E0      		ldi r25,hi8(0)
 2980               	.LVL168:
 2981               	.L177:
 2982               	.LBB673:
 2983               	.LBB674:
 2984               	.LBB675:
 2985               	.LBB676:
 2986               	.LBB677:
 2987               	.LBB678:
 2988               	.LM390:
 2989 106c E0ED      		ldi r30,lo8(2000)
 2990 106e F7E0      		ldi r31,hi8(2000)
 2991               	/* #APP */
 2992               	 ;  105 "c:/winavr-20100110/lib/gcc/../../avr/include/util/delay_basic.h" 1
 2993 1070 3197      		1: sbiw r30,1
 2994 1072 01F4      		brne 1b
 2995               	 ;  0 "" 2
 2996               	/* #NOAPP */
 2997               	.LBE678:
 2998               	.LBE677:
 2999               	.LBE676:
 3000               	.LBE675:
 3001               	.LM391:
 3002 1074 0196      		adiw r24,1
 3003 1076 883C      		cpi r24,200
 3004 1078 9105      		cpc r25,__zero_reg__
 3005 107a 01F4      		brne .L177
 3006               	.L176:
 3007               	.LBE674:
 3008               	.LBE673:
 3009               	.LBB679:
 3010               	.LBB680:
 3011               	.LM392:
 3012 107c 8091 C000 		lds r24,192
 3013               	.LVL169:
 3014               	.LBE680:
 3015               	.LBE679:
 3016               	.LM393:
 3017 1080 87FF      		sbrs r24,7
 3018 1082 00C0      		rjmp .L178
 3019               	.LM394:
 3020 1084 15B8      		out 37-32,__zero_reg__
 3021 1086 00C0      		rjmp .L282
 3022               	.LVL170:
 3023               	.L160:
 3024               	.LM395:
 3025 1088 8FEF      		ldi r24,lo8(-1)
 3026 108a 87B9      		out 39-32,r24
 3027 108c 00C0      		rjmp .L179
 3028               	.LVL171:
 3029               	.L181:
 3030               	.LM396:
 3031 108e 88B1      		in r24,40-32
 3032 1090 8095      		com r24
 3033 1092 88B9      		out 40-32,r24
 3034 1094 80E0      		ldi r24,lo8(0)
 3035 1096 90E0      		ldi r25,hi8(0)
 3036               	.LVL172:
 3037               	.L180:
 3038               	.LBB681:
 3039               	.LBB682:
 3040               	.LBB683:
 3041               	.LBB684:
 3042               	.LBB685:
 3043               	.LBB686:
 3044               	.LM397:
 3045 1098 E0ED      		ldi r30,lo8(2000)
 3046 109a F7E0      		ldi r31,hi8(2000)
 3047               	/* #APP */
 3048               	 ;  105 "c:/winavr-20100110/lib/gcc/../../avr/include/util/delay_basic.h" 1
 3049 109c 3197      		1: sbiw r30,1
 3050 109e 01F4      		brne 1b
 3051               	 ;  0 "" 2
 3052               	/* #NOAPP */
 3053               	.LBE686:
 3054               	.LBE685:
 3055               	.LBE684:
 3056               	.LBE683:
 3057               	.LM398:
 3058 10a0 0196      		adiw r24,1
 3059 10a2 883C      		cpi r24,200
 3060 10a4 9105      		cpc r25,__zero_reg__
 3061 10a6 01F4      		brne .L180
 3062               	.L179:
 3063               	.LBE682:
 3064               	.LBE681:
 3065               	.LBB687:
 3066               	.LBB688:
 3067               	.LM399:
 3068 10a8 8091 C000 		lds r24,192
 3069               	.LVL173:
 3070               	.LBE688:
 3071               	.LBE687:
 3072               	.LM400:
 3073 10ac 87FF      		sbrs r24,7
 3074 10ae 00C0      		rjmp .L181
 3075               	.LM401:
 3076 10b0 18B8      		out 40-32,__zero_reg__
 3077 10b2 00C0      		rjmp .L282
 3078               	.LVL174:
 3079               	.L161:
 3080               	.LM402:
 3081 10b4 8FEF      		ldi r24,lo8(-1)
 3082 10b6 8AB9      		out 42-32,r24
 3083 10b8 00C0      		rjmp .L182
 3084               	.LVL175:
 3085               	.L184:
 3086               	.LM403:
 3087 10ba 8BB1      		in r24,43-32
 3088 10bc 8095      		com r24
 3089 10be 8BB9      		out 43-32,r24
 3090 10c0 80E0      		ldi r24,lo8(0)
 3091 10c2 90E0      		ldi r25,hi8(0)
 3092               	.LVL176:
 3093               	.L183:
 3094               	.LBB689:
 3095               	.LBB690:
 3096               	.LBB691:
 3097               	.LBB692:
 3098               	.LBB693:
 3099               	.LBB694:
 3100               	.LM404:
 3101 10c4 E0ED      		ldi r30,lo8(2000)
 3102 10c6 F7E0      		ldi r31,hi8(2000)
 3103               	/* #APP */
 3104               	 ;  105 "c:/winavr-20100110/lib/gcc/../../avr/include/util/delay_basic.h" 1
 3105 10c8 3197      		1: sbiw r30,1
 3106 10ca 01F4      		brne 1b
 3107               	 ;  0 "" 2
 3108               	/* #NOAPP */
 3109               	.LBE694:
 3110               	.LBE693:
 3111               	.LBE692:
 3112               	.LBE691:
 3113               	.LM405:
 3114 10cc 0196      		adiw r24,1
 3115 10ce 883C      		cpi r24,200
 3116 10d0 9105      		cpc r25,__zero_reg__
 3117 10d2 01F4      		brne .L183
 3118               	.L182:
 3119               	.LBE690:
 3120               	.LBE689:
 3121               	.LBB695:
 3122               	.LBB696:
 3123               	.LM406:
 3124 10d4 8091 C000 		lds r24,192
 3125               	.LVL177:
 3126               	.LBE696:
 3127               	.LBE695:
 3128               	.LM407:
 3129 10d8 87FF      		sbrs r24,7
 3130 10da 00C0      		rjmp .L184
 3131               	.LM408:
 3132 10dc 1BB8      		out 43-32,__zero_reg__
 3133 10de 00C0      		rjmp .L282
 3134               	.LVL178:
 3135               	.L361:
 3136               	.LM409:
 3137 10e0 8FEF      		ldi r24,lo8(-1)
 3138 10e2 8DB9      		out 45-32,r24
 3139 10e4 00C0      		rjmp .L185
 3140               	.LVL179:
 3141               	.L187:
 3142               	.LM410:
 3143 10e6 8EB1      		in r24,46-32
 3144 10e8 8095      		com r24
 3145 10ea 8EB9      		out 46-32,r24
 3146 10ec 80E0      		ldi r24,lo8(0)
 3147 10ee 90E0      		ldi r25,hi8(0)
 3148               	.LVL180:
 3149               	.L186:
 3150               	.LBB697:
 3151               	.LBB698:
 3152               	.LBB699:
 3153               	.LBB700:
 3154               	.LBB701:
 3155               	.LBB702:
 3156               	.LM411:
 3157 10f0 E0ED      		ldi r30,lo8(2000)
 3158 10f2 F7E0      		ldi r31,hi8(2000)
 3159               	/* #APP */
 3160               	 ;  105 "c:/winavr-20100110/lib/gcc/../../avr/include/util/delay_basic.h" 1
 3161 10f4 3197      		1: sbiw r30,1
 3162 10f6 01F4      		brne 1b
 3163               	 ;  0 "" 2
 3164               	/* #NOAPP */
 3165               	.LBE702:
 3166               	.LBE701:
 3167               	.LBE700:
 3168               	.LBE699:
 3169               	.LM412:
 3170 10f8 0196      		adiw r24,1
 3171 10fa 883C      		cpi r24,200
 3172 10fc 9105      		cpc r25,__zero_reg__
 3173 10fe 01F4      		brne .L186
 3174               	.L185:
 3175               	.LBE698:
 3176               	.LBE697:
 3177               	.LBB703:
 3178               	.LBB704:
 3179               	.LM413:
 3180 1100 8091 C000 		lds r24,192
 3181               	.LVL181:
 3182               	.LBE704:
 3183               	.LBE703:
 3184               	.LM414:
 3185 1104 87FF      		sbrs r24,7
 3186 1106 00C0      		rjmp .L187
 3187               	.LM415:
 3188 1108 1EB8      		out 46-32,__zero_reg__
 3189 110a 00C0      		rjmp .L282
 3190               	.LVL182:
 3191               	.L163:
 3192               	.LM416:
 3193 110c 8FEF      		ldi r24,lo8(-1)
 3194 110e 80BB      		out 48-32,r24
 3195 1110 00C0      		rjmp .L188
 3196               	.LVL183:
 3197               	.L190:
 3198               	.LM417:
 3199 1112 81B3      		in r24,49-32
 3200 1114 8095      		com r24
 3201 1116 81BB      		out 49-32,r24
 3202 1118 80E0      		ldi r24,lo8(0)
 3203 111a 90E0      		ldi r25,hi8(0)
 3204               	.LVL184:
 3205               	.L189:
 3206               	.LBB705:
 3207               	.LBB706:
 3208               	.LBB707:
 3209               	.LBB708:
 3210               	.LBB709:
 3211               	.LBB710:
 3212               	.LM418:
 3213 111c E0ED      		ldi r30,lo8(2000)
 3214 111e F7E0      		ldi r31,hi8(2000)
 3215               	/* #APP */
 3216               	 ;  105 "c:/winavr-20100110/lib/gcc/../../avr/include/util/delay_basic.h" 1
 3217 1120 3197      		1: sbiw r30,1
 3218 1122 01F4      		brne 1b
 3219               	 ;  0 "" 2
 3220               	/* #NOAPP */
 3221               	.LBE710:
 3222               	.LBE709:
 3223               	.LBE708:
 3224               	.LBE707:
 3225               	.LM419:
 3226 1124 0196      		adiw r24,1
 3227 1126 883C      		cpi r24,200
 3228 1128 9105      		cpc r25,__zero_reg__
 3229 112a 01F4      		brne .L189
 3230               	.L188:
 3231               	.LBE706:
 3232               	.LBE705:
 3233               	.LBB711:
 3234               	.LBB712:
 3235               	.LM420:
 3236 112c 8091 C000 		lds r24,192
 3237               	.LVL185:
 3238               	.LBE712:
 3239               	.LBE711:
 3240               	.LM421:
 3241 1130 87FF      		sbrs r24,7
 3242 1132 00C0      		rjmp .L190
 3243               	.LM422:
 3244 1134 11BA      		out 49-32,__zero_reg__
 3245 1136 00C0      		rjmp .L282
 3246               	.LVL186:
 3247               	.L164:
 3248               	.LM423:
 3249 1138 8FEF      		ldi r24,lo8(-1)
 3250 113a 83BB      		out 51-32,r24
 3251 113c 00C0      		rjmp .L191
 3252               	.LVL187:
 3253               	.L193:
 3254               	.LM424:
 3255 113e 84B3      		in r24,52-32
 3256 1140 8095      		com r24
 3257 1142 84BB      		out 52-32,r24
 3258 1144 80E0      		ldi r24,lo8(0)
 3259 1146 90E0      		ldi r25,hi8(0)
 3260               	.LVL188:
 3261               	.L192:
 3262               	.LBB713:
 3263               	.LBB714:
 3264               	.LBB715:
 3265               	.LBB716:
 3266               	.LBB717:
 3267               	.LBB718:
 3268               	.LM425:
 3269 1148 E0ED      		ldi r30,lo8(2000)
 3270 114a F7E0      		ldi r31,hi8(2000)
 3271               	/* #APP */
 3272               	 ;  105 "c:/winavr-20100110/lib/gcc/../../avr/include/util/delay_basic.h" 1
 3273 114c 3197      		1: sbiw r30,1
 3274 114e 01F4      		brne 1b
 3275               	 ;  0 "" 2
 3276               	/* #NOAPP */
 3277               	.LBE718:
 3278               	.LBE717:
 3279               	.LBE716:
 3280               	.LBE715:
 3281               	.LM426:
 3282 1150 0196      		adiw r24,1
 3283 1152 883C      		cpi r24,200
 3284 1154 9105      		cpc r25,__zero_reg__
 3285 1156 01F4      		brne .L192
 3286               	.L191:
 3287               	.LBE714:
 3288               	.LBE713:
 3289               	.LBB719:
 3290               	.LBB720:
 3291               	.LM427:
 3292 1158 8091 C000 		lds r24,192
 3293               	.LVL189:
 3294               	.LBE720:
 3295               	.LBE719:
 3296               	.LM428:
 3297 115c 87FF      		sbrs r24,7
 3298 115e 00C0      		rjmp .L193
 3299               	.LM429:
 3300 1160 14BA      		out 52-32,__zero_reg__
 3301 1162 00C0      		rjmp .L282
 3302               	.LVL190:
 3303               	.L362:
 3304               	.LM430:
 3305 1164 8FEF      		ldi r24,lo8(-1)
 3306 1166 8093 0101 		sts 257,r24
 3307 116a 00C0      		rjmp .L194
 3308               	.LVL191:
 3309               	.L196:
 3310               	.LM431:
 3311 116c 8091 0201 		lds r24,258
 3312 1170 8095      		com r24
 3313 1172 8093 0201 		sts 258,r24
 3314 1176 80E0      		ldi r24,lo8(0)
 3315 1178 90E0      		ldi r25,hi8(0)
 3316               	.LVL192:
 3317               	.L195:
 3318               	.LBB721:
 3319               	.LBB722:
 3320               	.LBB723:
 3321               	.LBB724:
 3322               	.LBB725:
 3323               	.LBB726:
 3324               	.LM432:
 3325 117a E0ED      		ldi r30,lo8(2000)
 3326 117c F7E0      		ldi r31,hi8(2000)
 3327               	/* #APP */
 3328               	 ;  105 "c:/winavr-20100110/lib/gcc/../../avr/include/util/delay_basic.h" 1
 3329 117e 3197      		1: sbiw r30,1
 3330 1180 01F4      		brne 1b
 3331               	 ;  0 "" 2
 3332               	/* #NOAPP */
 3333               	.LBE726:
 3334               	.LBE725:
 3335               	.LBE724:
 3336               	.LBE723:
 3337               	.LM433:
 3338 1182 0196      		adiw r24,1
 3339 1184 883C      		cpi r24,200
 3340 1186 9105      		cpc r25,__zero_reg__
 3341 1188 01F4      		brne .L195
 3342               	.L194:
 3343               	.LBE722:
 3344               	.LBE721:
 3345               	.LBB727:
 3346               	.LBB728:
 3347               	.LM434:
 3348 118a 8091 C000 		lds r24,192
 3349               	.LVL193:
 3350               	.LBE728:
 3351               	.LBE727:
 3352               	.LM435:
 3353 118e 87FF      		sbrs r24,7
 3354 1190 00C0      		rjmp .L196
 3355               	.LM436:
 3356 1192 1092 0201 		sts 258,__zero_reg__
 3357 1196 00C0      		rjmp .L282
 3358               	.LVL194:
 3359               	.L166:
 3360               	.LM437:
 3361 1198 8FEF      		ldi r24,lo8(-1)
 3362 119a 8093 0401 		sts 260,r24
 3363 119e 00C0      		rjmp .L197
 3364               	.LVL195:
 3365               	.L199:
 3366               	.LM438:
 3367 11a0 8091 0501 		lds r24,261
 3368 11a4 8095      		com r24
 3369 11a6 8093 0501 		sts 261,r24
 3370 11aa 80E0      		ldi r24,lo8(0)
 3371 11ac 90E0      		ldi r25,hi8(0)
 3372               	.LVL196:
 3373               	.L198:
 3374               	.LBB729:
 3375               	.LBB730:
 3376               	.LBB731:
 3377               	.LBB732:
 3378               	.LBB733:
 3379               	.LBB734:
 3380               	.LM439:
 3381 11ae E0ED      		ldi r30,lo8(2000)
 3382 11b0 F7E0      		ldi r31,hi8(2000)
 3383               	/* #APP */
 3384               	 ;  105 "c:/winavr-20100110/lib/gcc/../../avr/include/util/delay_basic.h" 1
 3385 11b2 3197      		1: sbiw r30,1
 3386 11b4 01F4      		brne 1b
 3387               	 ;  0 "" 2
 3388               	/* #NOAPP */
 3389               	.LBE734:
 3390               	.LBE733:
 3391               	.LBE732:
 3392               	.LBE731:
 3393               	.LM440:
 3394 11b6 0196      		adiw r24,1
 3395 11b8 883C      		cpi r24,200
 3396 11ba 9105      		cpc r25,__zero_reg__
 3397 11bc 01F4      		brne .L198
 3398               	.L197:
 3399               	.LBE730:
 3400               	.LBE729:
 3401               	.LBB735:
 3402               	.LBB736:
 3403               	.LM441:
 3404 11be 8091 C000 		lds r24,192
 3405               	.LVL197:
 3406               	.LBE736:
 3407               	.LBE735:
 3408               	.LM442:
 3409 11c2 87FF      		sbrs r24,7
 3410 11c4 00C0      		rjmp .L199
 3411               	.LM443:
 3412 11c6 1092 0501 		sts 261,__zero_reg__
 3413 11ca 00C0      		rjmp .L282
 3414               	.LVL198:
 3415               	.L167:
 3416               	.LM444:
 3417 11cc 8FEF      		ldi r24,lo8(-1)
 3418 11ce 8093 0701 		sts 263,r24
 3419 11d2 00C0      		rjmp .L200
 3420               	.LVL199:
 3421               	.L202:
 3422               	.LM445:
 3423 11d4 8091 0801 		lds r24,264
 3424 11d8 8095      		com r24
 3425 11da 8093 0801 		sts 264,r24
 3426 11de 80E0      		ldi r24,lo8(0)
 3427 11e0 90E0      		ldi r25,hi8(0)
 3428               	.LVL200:
 3429               	.L201:
 3430               	.LBB737:
 3431               	.LBB738:
 3432               	.LBB739:
 3433               	.LBB740:
 3434               	.LBB741:
 3435               	.LBB742:
 3436               	.LM446:
 3437 11e2 E0ED      		ldi r30,lo8(2000)
 3438 11e4 F7E0      		ldi r31,hi8(2000)
 3439               	/* #APP */
 3440               	 ;  105 "c:/winavr-20100110/lib/gcc/../../avr/include/util/delay_basic.h" 1
 3441 11e6 3197      		1: sbiw r30,1
 3442 11e8 01F4      		brne 1b
 3443               	 ;  0 "" 2
 3444               	/* #NOAPP */
 3445               	.LBE742:
 3446               	.LBE741:
 3447               	.LBE740:
 3448               	.LBE739:
 3449               	.LM447:
 3450 11ea 0196      		adiw r24,1
 3451 11ec 883C      		cpi r24,200
 3452 11ee 9105      		cpc r25,__zero_reg__
 3453 11f0 01F4      		brne .L201
 3454               	.L200:
 3455               	.LBE738:
 3456               	.LBE737:
 3457               	.LBB743:
 3458               	.LBB744:
 3459               	.LM448:
 3460 11f2 8091 C000 		lds r24,192
 3461               	.LVL201:
 3462               	.LBE744:
 3463               	.LBE743:
 3464               	.LM449:
 3465 11f6 87FF      		sbrs r24,7
 3466 11f8 00C0      		rjmp .L202
 3467               	.LM450:
 3468 11fa 1092 0801 		sts 264,__zero_reg__
 3469 11fe 00C0      		rjmp .L282
 3470               	.LVL202:
 3471               	.L363:
 3472               	.LM451:
 3473 1200 8FEF      		ldi r24,lo8(-1)
 3474 1202 8093 0A01 		sts 266,r24
 3475 1206 00C0      		rjmp .L203
 3476               	.LVL203:
 3477               	.L205:
 3478               	.LM452:
 3479 1208 8091 0B01 		lds r24,267
 3480 120c 8095      		com r24
 3481 120e 8093 0B01 		sts 267,r24
 3482 1212 80E0      		ldi r24,lo8(0)
 3483 1214 90E0      		ldi r25,hi8(0)
 3484               	.LVL204:
 3485               	.L204:
 3486               	.LBB745:
 3487               	.LBB746:
 3488               	.LBB747:
 3489               	.LBB748:
 3490               	.LBB749:
 3491               	.LBB750:
 3492               	.LM453:
 3493 1216 E0ED      		ldi r30,lo8(2000)
 3494 1218 F7E0      		ldi r31,hi8(2000)
 3495               	/* #APP */
 3496               	 ;  105 "c:/winavr-20100110/lib/gcc/../../avr/include/util/delay_basic.h" 1
 3497 121a 3197      		1: sbiw r30,1
 3498 121c 01F4      		brne 1b
 3499               	 ;  0 "" 2
 3500               	/* #NOAPP */
 3501               	.LBE750:
 3502               	.LBE749:
 3503               	.LBE748:
 3504               	.LBE747:
 3505               	.LM454:
 3506 121e 0196      		adiw r24,1
 3507 1220 883C      		cpi r24,200
 3508 1222 9105      		cpc r25,__zero_reg__
 3509 1224 01F4      		brne .L204
 3510               	.L203:
 3511               	.LBE746:
 3512               	.LBE745:
 3513               	.LBB751:
 3514               	.LBB752:
 3515               	.LM455:
 3516 1226 8091 C000 		lds r24,192
 3517               	.LVL205:
 3518               	.LBE752:
 3519               	.LBE751:
 3520               	.LM456:
 3521 122a 87FF      		sbrs r24,7
 3522 122c 00C0      		rjmp .L205
 3523               	.LM457:
 3524 122e 1092 0B01 		sts 267,__zero_reg__
 3525 1232 00C0      		rjmp .L282
 3526               	.LVL206:
 3527               	.L157:
 3528               	.LM458:
 3529 1234 80E0      		ldi r24,lo8(gTextMsg_PortNotSupported)
 3530 1236 90E0      		ldi r25,hi8(gTextMsg_PortNotSupported)
 3531 1238 00C0      		rjmp .L348
 3532               	.LVL207:
 3533               	.L282:
 3534               	.LBB753:
 3535               	.LBB754:
 3536               	.LM459:
 3537 123a 8091 C000 		lds r24,192
 3538 123e 87FF      		sbrs r24,7
 3539 1240 00C0      		rjmp .L282
 3540               	.LVL208:
 3541               	.L350:
 3542               	.LM460:
 3543 1242 8091 C600 		lds r24,198
 3544 1246 00C0      		rjmp .L342
 3545               	.LVL209:
 3546               	.L156:
 3547               	.LBE754:
 3548               	.LBE753:
 3549               	.LM461:
 3550 1248 80E0      		ldi r24,lo8(gTextMsg_MustBeLetter)
 3551 124a 90E0      		ldi r25,hi8(gTextMsg_MustBeLetter)
 3552 124c 00C0      		rjmp .L348
 3553               	.LVL210:
 3554               	.L100:
 3555               	.LBE660:
 3556               	.LBE659:
 3557               	.LM462:
 3558 124e 80E0      		ldi r24,lo8(gTextMsg_HUH)
 3559 1250 90E0      		ldi r25,hi8(gTextMsg_HUH)
 3560 1252 00C0      		rjmp .L348
 3561               	.LVL211:
 3562               	.L89:
 3563 1254 8824      		clr r8
 3564 1256 9924      		clr r9
 3565               	.L90:
 3566               	.LBE579:
 3567               	.LBE578:
 3568               	.LM463:
 3569 1258 9330      		cpi r25,lo8(3)
 3570 125a 01F0      		breq .L210
 3571 125c 9430      		cpi r25,lo8(4)
 3572 125e 00F4      		brsh .L214
 3573 1260 9130      		cpi r25,lo8(1)
 3574 1262 01F0      		breq .L208
 3575 1264 9230      		cpi r25,lo8(2)
 3576 1266 00F4      		brsh .L209
 3577 1268 00C0      		rjmp .L364
 3578               	.L214:
 3579 126a 9530      		cpi r25,lo8(5)
 3580 126c 01F0      		breq .L212
 3581 126e 9530      		cpi r25,lo8(5)
 3582 1270 00F0      		brlo .L211
 3583 1272 9630      		cpi r25,lo8(6)
 3584 1274 01F0      		breq .+2
 3585 1276 00C0      		rjmp .L345
 3586 1278 00C0      		rjmp .L365
 3587               	.L364:
 3588               	.LM464:
 3589 127a 2B31      		cpi r18,lo8(27)
 3590 127c 01F0      		breq .+2
 3591 127e 00C0      		rjmp .L343
 3592 1280 91E0      		ldi r25,lo8(1)
 3593 1282 6BE1      		ldi r22,lo8(27)
 3594 1284 00C0      		rjmp .L343
 3595               	.L208:
 3596               	.LM465:
 3597 1286 6227      		eor r22,r18
 3598 1288 C15D      		subi r28,lo8(-303)
 3599 128a DE4F      		sbci r29,hi8(-303)
 3600 128c 2883      		st Y,r18
 3601 128e CF52      		subi r28,lo8(303)
 3602 1290 D140      		sbci r29,hi8(303)
 3603               	.LVL212:
 3604 1292 92E0      		ldi r25,lo8(2)
 3605 1294 00C0      		rjmp .L343
 3606               	.L209:
 3607               	.LM466:
 3608 1296 B22F      		mov r27,r18
 3609               	.LVL213:
 3610 1298 A0E0      		ldi r26,lo8(0)
 3611               	.LVL214:
 3612               	.LM467:
 3613 129a 6227      		eor r22,r18
 3614 129c 93E0      		ldi r25,lo8(3)
 3615 129e 00C0      		rjmp .L343
 3616               	.LVL215:
 3617               	.L210:
 3618               	.LM468:
 3619 12a0 822F      		mov r24,r18
 3620 12a2 90E0      		ldi r25,lo8(0)
 3621               	.LVL216:
 3622 12a4 A82B      		or r26,r24
 3623 12a6 B92B      		or r27,r25
 3624               	.LM469:
 3625 12a8 6227      		eor r22,r18
 3626 12aa 94E0      		ldi r25,lo8(4)
 3627               	.LVL217:
 3628 12ac 00C0      		rjmp .L343
 3629               	.LVL218:
 3630               	.L211:
 3631               	.LM470:
 3632 12ae 2E30      		cpi r18,lo8(14)
 3633 12b0 01F0      		breq .+2
 3634 12b2 00C0      		rjmp .L216
 3635               	.LM471:
 3636 12b4 6227      		eor r22,r18
 3637 12b6 95E0      		ldi r25,lo8(5)
 3638 12b8 C05D      		subi r28,lo8(-304)
 3639 12ba DE4F      		sbci r29,hi8(-304)
 3640 12bc 1982      		std Y+1,__zero_reg__
 3641 12be 1882      		st Y,__zero_reg__
 3642 12c0 C053      		subi r28,lo8(304)
 3643 12c2 D140      		sbci r29,hi8(304)
 3644               	.LVL219:
 3645 12c4 00C0      		rjmp .L343
 3646               	.L212:
 3647               	.LM472:
 3648 12c6 E1E0      		ldi r30,lo8(1)
 3649 12c8 F0E0      		ldi r31,hi8(1)
 3650               	.LVL220:
 3651 12ca EC0F      		add r30,r28
 3652 12cc FD1F      		adc r31,r29
 3653 12ce C05D      		subi r28,lo8(-304)
 3654 12d0 DE4F      		sbci r29,hi8(-304)
 3655 12d2 0881      		ld r16,Y
 3656 12d4 1981      		ldd r17,Y+1
 3657 12d6 C053      		subi r28,lo8(304)
 3658 12d8 D140      		sbci r29,hi8(304)
 3659 12da E00F      		add r30,r16
 3660 12dc F11F      		adc r31,r17
 3661 12de 2083      		st Z,r18
 3662 12e0 0F5F      		subi r16,lo8(-(1))
 3663 12e2 1F4F      		sbci r17,hi8(-(1))
 3664 12e4 C05D      		subi r28,lo8(-304)
 3665 12e6 DE4F      		sbci r29,hi8(-304)
 3666 12e8 1983      		std Y+1,r17
 3667 12ea 0883      		st Y,r16
 3668 12ec C053      		subi r28,lo8(304)
 3669 12ee D140      		sbci r29,hi8(304)
 3670               	.LVL221:
 3671               	.LM473:
 3672 12f0 6227      		eor r22,r18
 3673               	.LM474:
 3674 12f2 0A17      		cp r16,r26
 3675 12f4 1B07      		cpc r17,r27
 3676 12f6 01F0      		breq .+2
 3677 12f8 00C0      		rjmp .L343
 3678 12fa D801      		movw r26,r16
 3679 12fc 96E0      		ldi r25,lo8(6)
 3680 12fe 00C0      		rjmp .L343
 3681               	.LVL222:
 3682               	.L365:
 3683               	.LM475:
 3684 1300 2617      		cp r18,r22
 3685 1302 01F0      		breq .+2
 3686 1304 00C0      		rjmp .L216
 3687 1306 00C0      		rjmp .L217
 3688               	.L345:
 3689               	.LM476:
 3690 1308 9730      		cpi r25,lo8(7)
 3691 130a 01F0      		breq .+2
 3692 130c 00C0      		rjmp .L343
 3693               	.L217:
 3694 130e 7724      		clr r7
 3695               	.LVL223:
 3696               	.L135:
 3697               	.LM477:
 3698 1310 9981      		ldd r25,Y+1
 3699               	.LVL224:
 3700 1312 9331      		cpi r25,lo8(19)
 3701 1314 01F4      		brne .+2
 3702 1316 00C0      		rjmp .L225
 3703 1318 9431      		cpi r25,lo8(20)
 3704 131a 00F4      		brsh .L232
 3705 131c 9630      		cpi r25,lo8(6)
 3706 131e 01F4      		brne .+2
 3707 1320 00C0      		rjmp .L222
 3708 1322 9730      		cpi r25,lo8(7)
 3709 1324 00F4      		brsh .L233
 3710 1326 9230      		cpi r25,lo8(2)
 3711 1328 01F4      		brne .+2
 3712 132a 00C0      		rjmp .L355
 3713 132c 9330      		cpi r25,lo8(3)
 3714 132e 01F4      		brne .+2
 3715 1330 00C0      		rjmp .L221
 3716 1332 9130      		cpi r25,lo8(1)
 3717 1334 01F0      		breq .+2
 3718 1336 00C0      		rjmp .L218
 3719 1338 00C0      		rjmp .L366
 3720               	.L233:
 3721 133a 9131      		cpi r25,lo8(17)
 3722 133c 01F4      		brne .+2
 3723 133e 00C0      		rjmp .L223
 3724 1340 9231      		cpi r25,lo8(18)
 3725 1342 00F0      		brlo .+2
 3726 1344 00C0      		rjmp .L224
 3727 1346 9031      		cpi r25,lo8(16)
 3728 1348 01F0      		breq .+2
 3729 134a 00C0      		rjmp .L218
 3730 134c 00C0      		rjmp .L355
 3731               	.L232:
 3732 134e 9831      		cpi r25,lo8(24)
 3733 1350 01F4      		brne .+2
 3734 1352 00C0      		rjmp .L227
 3735 1354 9931      		cpi r25,lo8(25)
 3736 1356 00F4      		brsh .L234
 3737 1358 9531      		cpi r25,lo8(21)
 3738 135a 01F4      		brne .+2
 3739 135c 00C0      		rjmp .L225
 3740 135e 9531      		cpi r25,lo8(21)
 3741 1360 00F4      		brsh .+2
 3742 1362 00C0      		rjmp .L226
 3743 1364 9631      		cpi r25,lo8(22)
 3744 1366 01F0      		breq .+2
 3745 1368 00C0      		rjmp .L218
 3746 136a 00C0      		rjmp .L226
 3747               	.L234:
 3748 136c 9A31      		cpi r25,lo8(26)
 3749 136e 01F4      		brne .+2
 3750 1370 00C0      		rjmp .L229
 3751 1372 9A31      		cpi r25,lo8(26)
 3752 1374 00F4      		brsh .+2
 3753 1376 00C0      		rjmp .L228
 3754 1378 9B31      		cpi r25,lo8(27)
 3755 137a 01F4      		brne .+2
 3756 137c 00C0      		rjmp .L230
 3757 137e 9D31      		cpi r25,lo8(29)
 3758 1380 01F0      		breq .+2
 3759 1382 00C0      		rjmp .L218
 3760               	.LBB755:
 3761               	.LM478:
 3762 1384 9D81      		ldd r25,Y+5
 3763 1386 9033      		cpi r25,lo8(48)
 3764 1388 01F4      		brne .L235
 3765               	.LBB756:
 3766               	.LM479:
 3767 138a 8F81      		ldd r24,Y+7
 3768               	.LVL225:
 3769               	.LM480:
 3770 138c 8823      		tst r24
 3771 138e 01F4      		brne .L236
 3772 1390 9EE1      		ldi r25,lo8(30)
 3773               	.LVL226:
 3774 1392 00C0      		rjmp .L237
 3775               	.LVL227:
 3776               	.L236:
 3777               	.LM481:
 3778 1394 8130      		cpi r24,lo8(1)
 3779 1396 01F0      		breq .L238
 3780 1398 91E0      		ldi r25,lo8(1)
 3781               	.LVL228:
 3782 139a 00C0      		rjmp .L237
 3783               	.LVL229:
 3784               	.L238:
 3785 139c 98E9      		ldi r25,lo8(-104)
 3786               	.LVL230:
 3787 139e 00C0      		rjmp .L237
 3788               	.LVL231:
 3789               	.L235:
 3790               	.LBE756:
 3791               	.LM482:
 3792 13a0 892F      		mov r24,r25
 3793 13a2 8075      		andi r24,lo8(80)
 3794 13a4 01F0      		breq .L239
 3795               	.LM483:
 3796 13a6 9035      		cpi r25,lo8(80)
 3797 13a8 01F4      		brne .L240
 3798               	.LBB757:
 3799               	.LM484:
 3800 13aa E0E0      		ldi r30,lo8(0)
 3801 13ac F0E0      		ldi r31,hi8(0)
 3802               	.LVL232:
 3803 13ae 89E0      		ldi r24,lo8(9)
 3804               	/* #APP */
 3805               	 ;  824 "stk500boot.c" 1
 3806 13b0 8093 5700 		sts 87, r24
 3807 13b4 9491      		lpm r25, Z
 3808               		
 3809               	 ;  0 "" 2
 3810               	.LVL233:
 3811               	/* #NOAPP */
 3812 13b6 00C0      		rjmp .L237
 3813               	.LVL234:
 3814               	.L240:
 3815               	.LBE757:
 3816               	.LM485:
 3817 13b8 9835      		cpi r25,lo8(88)
 3818 13ba 01F4      		brne .L239
 3819               	.LBB758:
 3820               	.LM486:
 3821 13bc E3E0      		ldi r30,lo8(3)
 3822 13be F0E0      		ldi r31,hi8(3)
 3823               	.LVL235:
 3824 13c0 89E0      		ldi r24,lo8(9)
 3825               	/* #APP */
 3826               	 ;  828 "stk500boot.c" 1
 3827 13c2 8093 5700 		sts 87, r24
 3828 13c6 9491      		lpm r25, Z
 3829               		
 3830               	 ;  0 "" 2
 3831               	.LVL236:
 3832               	/* #NOAPP */
 3833 13c8 00C0      		rjmp .L237
 3834               	.LVL237:
 3835               	.L239:
 3836 13ca 90E0      		ldi r25,lo8(0)
 3837               	.LVL238:
 3838               	.L237:
 3839               	.LBE758:
 3840               	.LM487:
 3841 13cc 1A82      		std Y+2,__zero_reg__
 3842               	.LM488:
 3843 13ce 1B82      		std Y+3,__zero_reg__
 3844               	.LM489:
 3845 13d0 8D81      		ldd r24,Y+5
 3846               	.LVL239:
 3847 13d2 8C83      		std Y+4,r24
 3848               	.LM490:
 3849 13d4 1D82      		std Y+5,__zero_reg__
 3850               	.LM491:
 3851 13d6 9E83      		std Y+6,r25
 3852               	.LM492:
 3853 13d8 1F82      		std Y+7,__zero_reg__
 3854 13da 27E0      		ldi r18,lo8(7)
 3855 13dc 30E0      		ldi r19,hi8(7)
 3856               	.LVL240:
 3857 13de 00C0      		rjmp .L241
 3858               	.LVL241:
 3859               	.L366:
 3860               	.LBE755:
 3861               	.LM493:
 3862 13e0 1A82      		std Y+2,__zero_reg__
 3863               	.LM494:
 3864 13e2 88E0      		ldi r24,lo8(8)
 3865 13e4 8B83      		std Y+3,r24
 3866               	.LM495:
 3867 13e6 81E4      		ldi r24,lo8(65)
 3868 13e8 8C83      		std Y+4,r24
 3869               	.LM496:
 3870 13ea 86E5      		ldi r24,lo8(86)
 3871 13ec 8D83      		std Y+5,r24
 3872               	.LM497:
 3873 13ee 82E5      		ldi r24,lo8(82)
 3874 13f0 8E83      		std Y+6,r24
 3875               	.LM498:
 3876 13f2 89E4      		ldi r24,lo8(73)
 3877 13f4 8F83      		std Y+7,r24
 3878               	.LM499:
 3879 13f6 83E5      		ldi r24,lo8(83)
 3880 13f8 8887      		std Y+8,r24
 3881               	.LM500:
 3882 13fa 80E5      		ldi r24,lo8(80)
 3883 13fc 8987      		std Y+9,r24
 3884               	.LM501:
 3885 13fe 8FE5      		ldi r24,lo8(95)
 3886 1400 8A87      		std Y+10,r24
 3887               	.LM502:
 3888 1402 82E3      		ldi r24,lo8(50)
 3889 1404 8B87      		std Y+11,r24
 3890 1406 2BE0      		ldi r18,lo8(11)
 3891 1408 30E0      		ldi r19,hi8(11)
 3892               	.LVL242:
 3893 140a 00C0      		rjmp .L241
 3894               	.LVL243:
 3895               	.L221:
 3896               	.LBB759:
 3897               	.LM503:
 3898 140c 8A81      		ldd r24,Y+2
 3899 140e 8139      		cpi r24,lo8(-111)
 3900 1410 01F0      		breq .L244
 3901 1412 8239      		cpi r24,lo8(-110)
 3902 1414 01F0      		breq .L245
 3903 1416 8039      		cpi r24,lo8(-112)
 3904 1418 01F4      		brne .L346
 3905 141a 8FE0      		ldi r24,lo8(15)
 3906               	.LVL244:
 3907 141c 00C0      		rjmp .L246
 3908               	.LVL245:
 3909               	.L346:
 3910 141e 80E0      		ldi r24,lo8(0)
 3911               	.LVL246:
 3912 1420 00C0      		rjmp .L246
 3913               	.LVL247:
 3914               	.L244:
 3915 1422 82E0      		ldi r24,lo8(2)
 3916               	.LVL248:
 3917 1424 00C0      		rjmp .L246
 3918               	.LVL249:
 3919               	.L245:
 3920               	.LM504:
 3921 1426 8AE0      		ldi r24,lo8(10)
 3922               	.LVL250:
 3923               	.L246:
 3924               	.LM505:
 3925 1428 1A82      		std Y+2,__zero_reg__
 3926               	.LM506:
 3927 142a 8B83      		std Y+3,r24
 3928 142c 00C0      		rjmp .L352
 3929               	.LVL251:
 3930               	.L223:
 3931               	.LM507:
 3932 142e 7724      		clr r7
 3933 1430 7394      		inc r7
 3934 1432 00C0      		rjmp .L355
 3935               	.L230:
 3936               	.LBE759:
 3937               	.LBB760:
 3938               	.LM508:
 3939 1434 8D81      		ldd r24,Y+5
 3940               	.LVL252:
 3941               	.LM509:
 3942 1436 8823      		tst r24
 3943 1438 01F4      		brne .L247
 3944 143a 8EE1      		ldi r24,lo8(30)
 3945               	.LVL253:
 3946 143c 00C0      		rjmp .L252
 3947               	.LVL254:
 3948               	.L247:
 3949               	.LM510:
 3950 143e 8130      		cpi r24,lo8(1)
 3951 1440 01F0      		breq .L249
 3952 1442 81E0      		ldi r24,lo8(1)
 3953               	.LVL255:
 3954 1444 00C0      		rjmp .L252
 3955               	.LVL256:
 3956               	.L249:
 3957 1446 88E9      		ldi r24,lo8(-104)
 3958               	.LVL257:
 3959 1448 00C0      		rjmp .L252
 3960               	.LVL258:
 3961               	.L229:
 3962               	.LBE760:
 3963               	.LM511:
 3964 144a 1A82      		std Y+2,__zero_reg__
 3965               	.LBB761:
 3966               	.LM512:
 3967 144c E1E0      		ldi r30,lo8(1)
 3968 144e F0E0      		ldi r31,hi8(1)
 3969               	.LVL259:
 3970 1450 89E0      		ldi r24,lo8(9)
 3971               	/* #APP */
 3972               	 ;  929 "stk500boot.c" 1
 3973 1452 8093 5700 		sts 87, r24
 3974 1456 8491      		lpm r24, Z
 3975               		
 3976               	 ;  0 "" 2
 3977               	.LVL260:
 3978               	/* #NOAPP */
 3979               	.L354:
 3980               	.LBE761:
 3981 1458 8B83      		std Y+3,r24
 3982               	.LM513:
 3983 145a 1C82      		std Y+4,__zero_reg__
 3984 145c 24E0      		ldi r18,lo8(4)
 3985 145e 30E0      		ldi r19,hi8(4)
 3986               	.LVL261:
 3987 1460 00C0      		rjmp .L241
 3988               	.LVL262:
 3989               	.L227:
 3990               	.LBB762:
 3991               	.LM514:
 3992 1462 8B81      		ldd r24,Y+3
 3993 1464 8035      		cpi r24,lo8(80)
 3994 1466 01F4      		brne .L250
 3995               	.LM515:
 3996 1468 8C81      		ldd r24,Y+4
 3997 146a 8830      		cpi r24,lo8(8)
 3998 146c 01F4      		brne .L251
 3999               	.LBB763:
 4000               	.LM516:
 4001 146e E2E0      		ldi r30,lo8(2)
 4002 1470 F0E0      		ldi r31,hi8(2)
 4003               	.LVL263:
 4004 1472 89E0      		ldi r24,lo8(9)
 4005               	/* #APP */
 4006               	 ;  940 "stk500boot.c" 1
 4007 1474 8093 5700 		sts 87, r24
 4008 1478 8491      		lpm r24, Z
 4009               		
 4010               	 ;  0 "" 2
 4011               	.LVL264:
 4012               	/* #NOAPP */
 4013 147a 00C0      		rjmp .L252
 4014               	.LVL265:
 4015               	.L251:
 4016               	.LBE763:
 4017               	.LBB764:
 4018               	.LM517:
 4019 147c E0E0      		ldi r30,lo8(0)
 4020 147e F0E0      		ldi r31,hi8(0)
 4021               	.LVL266:
 4022 1480 89E0      		ldi r24,lo8(9)
 4023               	/* #APP */
 4024               	 ;  942 "stk500boot.c" 1
 4025 1482 8093 5700 		sts 87, r24
 4026 1486 8491      		lpm r24, Z
 4027               		
 4028               	 ;  0 "" 2
 4029               	.LVL267:
 4030               	/* #NOAPP */
 4031 1488 00C0      		rjmp .L252
 4032               	.LVL268:
 4033               	.L250:
 4034               	.LBE764:
 4035               	.LBB765:
 4036               	.LM518:
 4037 148a E3E0      		ldi r30,lo8(3)
 4038 148c F0E0      		ldi r31,hi8(3)
 4039               	.LVL269:
 4040 148e 89E0      		ldi r24,lo8(9)
 4041               	/* #APP */
 4042               	 ;  946 "stk500boot.c" 1
 4043 1490 8093 5700 		sts 87, r24
 4044 1494 8491      		lpm r24, Z
 4045               		
 4046               	 ;  0 "" 2
 4047               	.LVL270:
 4048               	/* #NOAPP */
 4049               	.L252:
 4050               	.LBE765:
 4051               	.LM519:
 4052 1496 1A82      		std Y+2,__zero_reg__
 4053 1498 00C0      		rjmp .L354
 4054               	.LVL271:
 4055               	.L228:
 4056               	.LBE762:
 4057               	.LBB766:
 4058               	.LM520:
 4059 149a 8D81      		ldd r24,Y+5
 4060               	.LBB767:
 4061               	.LM521:
 4062 149c 836C      		ori r24,lo8(-61)
 4063 149e 99E0      		ldi r25,lo8(9)
 4064               	/* #APP */
 4065               	 ;  961 "stk500boot.c" 1
 4066 14a0 E1E0      		ldi r30, 1
 4067 14a2 F0E0      		ldi r31, 0
 4068 14a4 082E      		mov r0, r24
 4069 14a6 9093 5700 		sts 87, r25
 4070 14aa E895      		spm
 4071               		
 4072               	 ;  0 "" 2
 4073               	.LVL272:
 4074               	/* #NOAPP */
 4075               	.L253:
 4076               	.LBE767:
 4077               	.LM522:
 4078 14ac 07B6      		in __tmp_reg__,87-32
 4079 14ae 00FC      		sbrc __tmp_reg__,0
 4080 14b0 00C0      		rjmp .L253
 4081               	.LM523:
 4082 14b2 1A82      		std Y+2,__zero_reg__
 4083               	.LM524:
 4084 14b4 1B82      		std Y+3,__zero_reg__
 4085               	.LVL273:
 4086               	.L352:
 4087 14b6 23E0      		ldi r18,lo8(3)
 4088 14b8 30E0      		ldi r19,hi8(3)
 4089               	.LVL274:
 4090 14ba 00C0      		rjmp .L241
 4091               	.LVL275:
 4092               	.L224:
 4093               	.LBE766:
 4094               	.LM525:
 4095 14bc 80EC      		ldi r24,lo8(-64)
 4096 14be 8A83      		std Y+2,r24
 4097 14c0 CE5C      		subi r28,lo8(-306)
 4098 14c2 DE4F      		sbci r29,hi8(-306)
 4099 14c4 1882      		st Y,__zero_reg__
 4100 14c6 1982      		std Y+1,__zero_reg__
 4101 14c8 1A82      		std Y+2,__zero_reg__
 4102 14ca 1B82      		std Y+3,__zero_reg__
 4103 14cc C253      		subi r28,lo8(306)
 4104 14ce D140      		sbci r29,hi8(306)
 4105               	.LVL276:
 4106 14d0 00C0      		rjmp .L353
 4107               	.L222:
 4108               	.LM526:
 4109 14d2 8A81      		ldd r24,Y+2
 4110 14d4 90E0      		ldi r25,lo8(0)
 4111 14d6 A0E0      		ldi r26,lo8(0)
 4112 14d8 B0E0      		ldi r27,hi8(0)
 4113               	.LVL277:
 4114 14da 582F      		mov r21,r24
 4115 14dc 4427      		clr r20
 4116 14de 3327      		clr r19
 4117 14e0 2227      		clr r18
 4118               	.LVL278:
 4119 14e2 8B81      		ldd r24,Y+3
 4120 14e4 90E0      		ldi r25,lo8(0)
 4121 14e6 A0E0      		ldi r26,lo8(0)
 4122 14e8 B0E0      		ldi r27,hi8(0)
 4123 14ea DC01      		movw r26,r24
 4124 14ec 9927      		clr r25
 4125 14ee 8827      		clr r24
 4126 14f0 282B      		or r18,r24
 4127 14f2 392B      		or r19,r25
 4128 14f4 4A2B      		or r20,r26
 4129 14f6 5B2B      		or r21,r27
 4130 14f8 8D81      		ldd r24,Y+5
 4131 14fa 90E0      		ldi r25,lo8(0)
 4132 14fc A0E0      		ldi r26,lo8(0)
 4133 14fe B0E0      		ldi r27,hi8(0)
 4134 1500 282B      		or r18,r24
 4135 1502 392B      		or r19,r25
 4136 1504 4A2B      		or r20,r26
 4137 1506 5B2B      		or r21,r27
 4138 1508 8C81      		ldd r24,Y+4
 4139 150a 90E0      		ldi r25,lo8(0)
 4140 150c A0E0      		ldi r26,lo8(0)
 4141 150e B0E0      		ldi r27,hi8(0)
 4142 1510 BA2F      		mov r27,r26
 4143 1512 A92F      		mov r26,r25
 4144 1514 982F      		mov r25,r24
 4145 1516 8827      		clr r24
 4146               	.LVL279:
 4147 1518 282B      		or r18,r24
 4148 151a 392B      		or r19,r25
 4149 151c 4A2B      		or r20,r26
 4150 151e 5B2B      		or r21,r27
 4151 1520 220F      		lsl r18
 4152 1522 331F      		rol r19
 4153 1524 441F      		rol r20
 4154 1526 551F      		rol r21
 4155 1528 C05E      		subi r28,lo8(-288)
 4156 152a DE4F      		sbci r29,hi8(-288)
 4157 152c 2883      		st Y,r18
 4158 152e 3983      		std Y+1,r19
 4159 1530 4A83      		std Y+2,r20
 4160 1532 5B83      		std Y+3,r21
 4161 1534 C052      		subi r28,lo8(288)
 4162 1536 D140      		sbci r29,hi8(288)
 4163               	.LVL280:
 4164               	.L355:
 4165               	.LM527:
 4166 1538 1A82      		std Y+2,__zero_reg__
 4167 153a 00C0      		rjmp .L353
 4168               	.L225:
 4169               	.LBB768:
 4170               	.LM528:
 4171 153c 3A81      		ldd r19,Y+2
 4172               	.LVL281:
 4173 153e C95C      		subi r28,lo8(-311)
 4174 1540 DE4F      		sbci r29,hi8(-311)
 4175 1542 3883      		st Y,r19
 4176 1544 C753      		subi r28,lo8(311)
 4177 1546 D140      		sbci r29,hi8(311)
 4178 1548 CA5C      		subi r28,lo8(-310)
 4179 154a DE4F      		sbci r29,hi8(-310)
 4180 154c 1882      		st Y,__zero_reg__
 4181 154e C653      		subi r28,lo8(310)
 4182 1550 D140      		sbci r29,hi8(310)
 4183 1552 8B81      		ldd r24,Y+3
 4184 1554 C82E      		mov r12,r24
 4185               	.LVL282:
 4186 1556 DD24      		clr r13
 4187               	.LVL283:
 4188 1558 CA5C      		subi r28,lo8(-310)
 4189 155a DE4F      		sbci r29,hi8(-310)
 4190 155c 4881      		ld r20,Y
 4191 155e 5981      		ldd r21,Y+1
 4192 1560 C653      		subi r28,lo8(310)
 4193 1562 D140      		sbci r29,hi8(310)
 4194 1564 C42A      		or r12,r20
 4195 1566 D52A      		or r13,r21
 4196               	.LVL284:
 4197               	.LM529:
 4198 1568 9331      		cpi r25,lo8(19)
 4199 156a 01F0      		breq .+2
 4200 156c 00C0      		rjmp .L254
 4201               	.LM530:
 4202 156e CE5C      		subi r28,lo8(-306)
 4203 1570 DE4F      		sbci r29,hi8(-306)
 4204 1572 8881      		ld r24,Y
 4205 1574 9981      		ldd r25,Y+1
 4206 1576 AA81      		ldd r26,Y+2
 4207 1578 BB81      		ldd r27,Y+3
 4208 157a C253      		subi r28,lo8(306)
 4209 157c D140      		sbci r29,hi8(306)
 4210 157e 8050      		subi r24,lo8(245760)
 4211 1580 904C      		sbci r25,hi8(245760)
 4212 1582 A340      		sbci r26,hlo8(245760)
 4213 1584 B040      		sbci r27,hhi8(245760)
 4214               	.LVL285:
 4215 1586 00F4      		brsh .L255
 4216               	.LM531:
 4217 1588 83E0      		ldi r24,lo8(3)
 4218 158a CE5C      		subi r28,lo8(-306)
 4219 158c DE4F      		sbci r29,hi8(-306)
 4220 158e E880      		ld r14,Y
 4221 1590 F980      		ldd r15,Y+1
 4222 1592 0A81      		ldd r16,Y+2
 4223 1594 1B81      		ldd r17,Y+3
 4224 1596 C253      		subi r28,lo8(306)
 4225 1598 D140      		sbci r29,hi8(306)
 4226               	.LVL286:
 4227               	/* #APP */
 4228               	 ;  1002 "stk500boot.c" 1
 4229 159a F701      		movw r30, r14
 4230 159c 0093 5B00 		sts  91, r16
 4231 15a0 8093 5700 		sts 87, r24
 4232 15a4 E895      		spm
 4233               		
 4234               	 ;  0 "" 2
 4235               	/* #NOAPP */
 4236               	.L256:
 4237               	.LM532:
 4238 15a6 07B6      		in __tmp_reg__,87-32
 4239 15a8 00FC      		sbrc __tmp_reg__,0
 4240 15aa 00C0      		rjmp .L256
 4241               	.LM533:
 4242 15ac CE5C      		subi r28,lo8(-306)
 4243 15ae DE4F      		sbci r29,hi8(-306)
 4244 15b0 0881      		ld r16,Y
 4245 15b2 1981      		ldd r17,Y+1
 4246 15b4 2A81      		ldd r18,Y+2
 4247 15b6 3B81      		ldd r19,Y+3
 4248 15b8 C253      		subi r28,lo8(306)
 4249 15ba D140      		sbci r29,hi8(306)
 4250               	.LVL287:
 4251 15bc 0050      		subi r16,lo8(-(256))
 4252 15be 1F4F      		sbci r17,hi8(-(256))
 4253 15c0 2F4F      		sbci r18,hlo8(-(256))
 4254 15c2 3F4F      		sbci r19,hhi8(-(256))
 4255 15c4 CE5C      		subi r28,lo8(-306)
 4256 15c6 DE4F      		sbci r29,hi8(-306)
 4257 15c8 0883      		st Y,r16
 4258 15ca 1983      		std Y+1,r17
 4259 15cc 2A83      		std Y+2,r18
 4260 15ce 3B83      		std Y+3,r19
 4261 15d0 C253      		subi r28,lo8(306)
 4262 15d2 D140      		sbci r29,hi8(306)
 4263               	.LVL288:
 4264               	.L255:
 4265 15d4 C05E      		subi r28,lo8(-288)
 4266 15d6 DE4F      		sbci r29,hi8(-288)
 4267 15d8 4881      		ld r20,Y
 4268 15da 5981      		ldd r21,Y+1
 4269 15dc 6A81      		ldd r22,Y+2
 4270 15de 7B81      		ldd r23,Y+3
 4271 15e0 C052      		subi r28,lo8(288)
 4272 15e2 D140      		sbci r29,hi8(288)
 4273 15e4 DE01      		movw r26,r28
 4274               	.LVL289:
 4275 15e6 1B96      		adiw r26,11
 4276               	.LM534:
 4277 15e8 31E0      		ldi r19,lo8(1)
 4278               	.LVL290:
 4279               	.L257:
 4280               	.LM535:
 4281 15ea 8C91      		ld r24,X
 4282               	.LVL291:
 4283               	.LM536:
 4284 15ec 1196      		adiw r26,1
 4285 15ee 2C91      		ld r18,X
 4286 15f0 1197      		sbiw r26,1
 4287               	.LVL292:
 4288               	.LM537:
 4289 15f2 1296      		adiw r26,2
 4290               	.LM538:
 4291 15f4 C75C      		subi r28,lo8(-313)
 4292 15f6 DE4F      		sbci r29,hi8(-313)
 4293 15f8 2883      		st Y,r18
 4294 15fa C953      		subi r28,lo8(313)
 4295 15fc D140      		sbci r29,hi8(313)
 4296 15fe C85C      		subi r28,lo8(-312)
 4297 1600 DE4F      		sbci r29,hi8(-312)
 4298 1602 1882      		st Y,__zero_reg__
 4299 1604 C853      		subi r28,lo8(312)
 4300 1606 D140      		sbci r29,hi8(312)
 4301 1608 90E0      		ldi r25,lo8(0)
 4302 160a C85C      		subi r28,lo8(-312)
 4303 160c DE4F      		sbci r29,hi8(-312)
 4304 160e E881      		ld r30,Y
 4305 1610 F981      		ldd r31,Y+1
 4306 1612 C853      		subi r28,lo8(312)
 4307 1614 D140      		sbci r29,hi8(312)
 4308 1616 8E2B      		or r24,r30
 4309 1618 9F2B      		or r25,r31
 4310               	.LVL293:
 4311               	/* #APP */
 4312               	 ;  1013 "stk500boot.c" 1
 4313 161a 0C01      		movw  r0, r24
 4314 161c FA01      		movw r30, r20
 4315 161e 6093 5B00 		sts 91, r22
 4316 1622 3093 5700 		sts 87, r19
 4317 1626 E895      		spm
 4318 1628 1124      		clr  r1
 4319               		
 4320               	 ;  0 "" 2
 4321               	.LM539:
 4322               	/* #NOAPP */
 4323 162a 4E5F      		subi r20,lo8(-(2))
 4324 162c 5F4F      		sbci r21,hi8(-(2))
 4325 162e 6F4F      		sbci r22,hlo8(-(2))
 4326 1630 7F4F      		sbci r23,hhi8(-(2))
 4327               	.LM540:
 4328 1632 0EEF      		ldi r16,lo8(-2)
 4329 1634 E02E      		mov r14,r16
 4330 1636 0FEF      		ldi r16,hi8(-2)
 4331 1638 F02E      		mov r15,r16
 4332               	.LVL294:
 4333 163a CE0C      		add r12,r14
 4334 163c DF1C      		adc r13,r15
 4335               	.LM541:
 4336 163e C114      		cp r12,__zero_reg__
 4337 1640 D104      		cpc r13,__zero_reg__
 4338 1642 01F4      		brne .L257
 4339               	.LM542:
 4340 1644 85E0      		ldi r24,lo8(5)
 4341               	.LVL295:
 4342 1646 C05E      		subi r28,lo8(-288)
 4343 1648 DE4F      		sbci r29,hi8(-288)
 4344 164a 0881      		ld r16,Y
 4345 164c 1981      		ldd r17,Y+1
 4346 164e 2A81      		ldd r18,Y+2
 4347 1650 3B81      		ldd r19,Y+3
 4348 1652 C052      		subi r28,lo8(288)
 4349 1654 D140      		sbci r29,hi8(288)
 4350               	/* #APP */
 4351               	 ;  1019 "stk500boot.c" 1
 4352 1656 F801      		movw r30, r16
 4353 1658 2093 5B00 		sts 91, r18
 4354 165c 8093 5700 		sts 87, r24
 4355 1660 E895      		spm
 4356               		
 4357               	 ;  0 "" 2
 4358               	.LVL296:
 4359               	/* #NOAPP */
 4360               	.L258:
 4361               	.LM543:
 4362 1662 07B6      		in __tmp_reg__,87-32
 4363 1664 00FC      		sbrc __tmp_reg__,0
 4364 1666 00C0      		rjmp .L258
 4365               	.LM544:
 4366 1668 81E1      		ldi r24,lo8(17)
 4367               	/* #APP */
 4368               	 ;  1021 "stk500boot.c" 1
 4369 166a 8093 5700 		sts 87, r24
 4370 166e E895      		spm
 4371               		
 4372               	 ;  0 "" 2
 4373               	/* #NOAPP */
 4374 1670 00C0      		rjmp .L259
 4375               	.LVL297:
 4376               	.L254:
 4377               	.LBB769:
 4378               	.LM545:
 4379 1672 C05E      		subi r28,lo8(-288)
 4380 1674 DE4F      		sbci r29,hi8(-288)
 4381 1676 8881      		ld r24,Y
 4382 1678 9981      		ldd r25,Y+1
 4383 167a AA81      		ldd r26,Y+2
 4384 167c BB81      		ldd r27,Y+3
 4385 167e C052      		subi r28,lo8(288)
 4386 1680 D140      		sbci r29,hi8(288)
 4387 1682 B695      		lsr r27
 4388 1684 A795      		ror r26
 4389 1686 9795      		ror r25
 4390 1688 8795      		ror r24
 4391               	.LVL298:
 4392 168a 7C01      		movw r14,r24
 4393               	.LVL299:
 4394 168c 8601      		movw r16,r12
 4395               	.LVL300:
 4396 168e ABE0      		ldi r26,lo8(11)
 4397 1690 AA2E      		mov r10,r26
 4398 1692 B12C      		mov r11,__zero_reg__
 4399               	.LVL301:
 4400 1694 AC0E      		add r10,r28
 4401 1696 BD1E      		adc r11,r29
 4402 1698 00C0      		rjmp .L260
 4403               	.LVL302:
 4404               	.L261:
 4405               	.LM546:
 4406 169a D501      		movw r26,r10
 4407 169c 6D91      		ld r22,X+
 4408               	.LVL303:
 4409 169e 5D01      		movw r10,r26
 4410 16a0 C701      		movw r24,r14
 4411 16a2 0E94 0000 		call __eewr_byte_m2560
 4412               	.LVL304:
 4413               	.LM547:
 4414 16a6 0894      		sec
 4415 16a8 E11C      		adc r14,__zero_reg__
 4416 16aa F11C      		adc r15,__zero_reg__
 4417               	.LM548:
 4418 16ac 0150      		subi r16,lo8(-(-1))
 4419 16ae 1040      		sbci r17,hi8(-(-1))
 4420               	.LVL305:
 4421               	.L260:
 4422               	.LM549:
 4423 16b0 0115      		cp r16,__zero_reg__
 4424 16b2 1105      		cpc r17,__zero_reg__
 4425 16b4 01F4      		brne .L261
 4426 16b6 A601      		movw r20,r12
 4427               	.LVL306:
 4428 16b8 60E0      		ldi r22,lo8(0)
 4429 16ba 70E0      		ldi r23,hi8(0)
 4430               	.LVL307:
 4431 16bc 440F      		lsl r20
 4432 16be 551F      		rol r21
 4433 16c0 661F      		rol r22
 4434 16c2 771F      		rol r23
 4435               	.LVL308:
 4436 16c4 C05E      		subi r28,lo8(-288)
 4437 16c6 DE4F      		sbci r29,hi8(-288)
 4438 16c8 E880      		ld r14,Y
 4439 16ca F980      		ldd r15,Y+1
 4440 16cc 0A81      		ldd r16,Y+2
 4441 16ce 1B81      		ldd r17,Y+3
 4442 16d0 C052      		subi r28,lo8(288)
 4443 16d2 D140      		sbci r29,hi8(288)
 4444               	.LVL309:
 4445 16d4 4E0D      		add r20,r14
 4446 16d6 5F1D      		adc r21,r15
 4447 16d8 601F      		adc r22,r16
 4448 16da 711F      		adc r23,r17
 4449               	.LVL310:
 4450               	.L259:
 4451               	.LBE769:
 4452               	.LM550:
 4453 16dc 1A82      		std Y+2,__zero_reg__
 4454 16de C05E      		subi r28,lo8(-288)
 4455 16e0 DE4F      		sbci r29,hi8(-288)
 4456 16e2 4883      		st Y,r20
 4457 16e4 5983      		std Y+1,r21
 4458 16e6 6A83      		std Y+2,r22
 4459 16e8 7B83      		std Y+3,r23
 4460 16ea C052      		subi r28,lo8(288)
 4461 16ec D140      		sbci r29,hi8(288)
 4462 16ee 00C0      		rjmp .L353
 4463               	.LVL311:
 4464               	.L226:
 4465               	.LBE768:
 4466               	.LBB770:
 4467               	.LM551:
 4468 16f0 FA80      		ldd r15,Y+2
 4469               	.LVL312:
 4470 16f2 C55C      		subi r28,lo8(-315)
 4471 16f4 DE4F      		sbci r29,hi8(-315)
 4472 16f6 F882      		st Y,r15
 4473 16f8 CB53      		subi r28,lo8(315)
 4474 16fa D140      		sbci r29,hi8(315)
 4475 16fc C65C      		subi r28,lo8(-314)
 4476 16fe DE4F      		sbci r29,hi8(-314)
 4477 1700 1882      		st Y,__zero_reg__
 4478 1702 CA53      		subi r28,lo8(314)
 4479 1704 D140      		sbci r29,hi8(314)
 4480 1706 8B81      		ldd r24,Y+3
 4481 1708 C82E      		mov r12,r24
 4482               	.LVL313:
 4483 170a DD24      		clr r13
 4484               	.LVL314:
 4485 170c C65C      		subi r28,lo8(-314)
 4486 170e DE4F      		sbci r29,hi8(-314)
 4487 1710 0881      		ld r16,Y
 4488 1712 1981      		ldd r17,Y+1
 4489 1714 CA53      		subi r28,lo8(314)
 4490 1716 D140      		sbci r29,hi8(314)
 4491               	.LVL315:
 4492 1718 C02A      		or r12,r16
 4493 171a D12A      		or r13,r17
 4494               	.LVL316:
 4495               	.LM552:
 4496 171c 1A82      		std Y+2,__zero_reg__
 4497               	.LM553:
 4498 171e 8981      		ldd r24,Y+1
 4499 1720 BE01      		movw r22,r28
 4500               	.LVL317:
 4501 1722 6D5F      		subi r22,lo8(-(3))
 4502 1724 7F4F      		sbci r23,hi8(-(3))
 4503 1726 8431      		cpi r24,lo8(20)
 4504 1728 01F4      		brne .L262
 4505 172a 9601      		movw r18,r12
 4506               	.LVL318:
 4507               	.L263:
 4508               	.LBB771:
 4509               	.LBB772:
 4510               	.LM554:
 4511 172c C05E      		subi r28,lo8(-288)
 4512 172e DE4F      		sbci r29,hi8(-288)
 4513 1730 E880      		ld r14,Y
 4514 1732 F980      		ldd r15,Y+1
 4515 1734 0A81      		ldd r16,Y+2
 4516 1736 1B81      		ldd r17,Y+3
 4517 1738 C052      		subi r28,lo8(288)
 4518 173a D140      		sbci r29,hi8(288)
 4519               	.LVL319:
 4520               	/* #APP */
 4521               	 ;  1056 "stk500boot.c" 1
 4522 173c 0BBF      		out 59, r16
 4523 173e F701      		movw r30, r14
 4524 1740 8791      		elpm r24, Z+
 4525 1742 9691      		elpm r25, Z
 4526               		
 4527               	 ;  0 "" 2
 4528               	.LVL320:
 4529               	/* #NOAPP */
 4530               	.LBE772:
 4531               	.LM555:
 4532 1744 DB01      		movw r26,r22
 4533               	.LVL321:
 4534 1746 8C93      		st X,r24
 4535               	.LM556:
 4536 1748 1196      		adiw r26,1
 4537 174a 9C93      		st X,r25
 4538               	.LM557:
 4539 174c 6E5F      		subi r22,lo8(-(2))
 4540 174e 7F4F      		sbci r23,hi8(-(2))
 4541               	.LVL322:
 4542               	.LM558:
 4543 1750 D801      		movw r26,r16
 4544 1752 C701      		movw r24,r14
 4545               	.LVL323:
 4546 1754 0296      		adiw r24,2
 4547 1756 A11D      		adc r26,__zero_reg__
 4548 1758 B11D      		adc r27,__zero_reg__
 4549 175a C05E      		subi r28,lo8(-288)
 4550 175c DE4F      		sbci r29,hi8(-288)
 4551 175e 8883      		st Y,r24
 4552 1760 9983      		std Y+1,r25
 4553 1762 AA83      		std Y+2,r26
 4554 1764 BB83      		std Y+3,r27
 4555 1766 C052      		subi r28,lo8(288)
 4556 1768 D140      		sbci r29,hi8(288)
 4557               	.LVL324:
 4558               	.LM559:
 4559 176a 2250      		subi r18,lo8(-(-2))
 4560 176c 3040      		sbci r19,hi8(-(-2))
 4561               	.LM560:
 4562 176e 01F4      		brne .L263
 4563 1770 00C0      		rjmp .L264
 4564               	.LVL325:
 4565               	.L262:
 4566 1772 C05E      		subi r28,lo8(-288)
 4567 1774 DE4F      		sbci r29,hi8(-288)
 4568 1776 2881      		ld r18,Y
 4569 1778 3981      		ldd r19,Y+1
 4570 177a 4A81      		ldd r20,Y+2
 4571 177c 5B81      		ldd r21,Y+3
 4572 177e C052      		subi r28,lo8(288)
 4573 1780 D140      		sbci r29,hi8(288)
 4574               	.LVL326:
 4575               	.LBE771:
 4576               	.LM561:
 4577 1782 0894      		sec
 4578 1784 C108      		sbc r12,__zero_reg__
 4579 1786 D108      		sbc r13,__zero_reg__
 4580               	.LM562:
 4581 1788 7601      		movw r14,r12
 4582               	.LVL327:
 4583 178a 00E0      		ldi r16,lo8(0)
 4584 178c 10E0      		ldi r17,hi8(0)
 4585 178e 0894      		sec
 4586 1790 C11C      		adc r12,__zero_reg__
 4587 1792 D11C      		adc r13,__zero_reg__
 4588 1794 0894      		sec
 4589 1796 E11C      		adc r14,__zero_reg__
 4590 1798 F11C      		adc r15,__zero_reg__
 4591 179a 011D      		adc r16,__zero_reg__
 4592 179c 111D      		adc r17,__zero_reg__
 4593 179e E20E      		add r14,r18
 4594 17a0 F31E      		adc r15,r19
 4595 17a2 041F      		adc r16,r20
 4596 17a4 151F      		adc r17,r21
 4597               	.LVL328:
 4598               	.L265:
 4599               	.LM563:
 4600 17a6 21BD      		out 65-32,r18
 4601               	.LM564:
 4602 17a8 BB27      		clr r27
 4603 17aa A52F      		mov r26,r21
 4604 17ac 942F      		mov r25,r20
 4605 17ae 832F      		mov r24,r19
 4606               	.LVL329:
 4607 17b0 82BD      		out 66-32,r24
 4608               	.LM565:
 4609 17b2 2F5F      		subi r18,lo8(-(1))
 4610 17b4 3F4F      		sbci r19,hi8(-(1))
 4611 17b6 4F4F      		sbci r20,hlo8(-(1))
 4612 17b8 5F4F      		sbci r21,hhi8(-(1))
 4613               	.LM566:
 4614 17ba F89A      		sbi 63-32,0
 4615               	.LM567:
 4616 17bc 80B5      		in r24,64-32
 4617 17be DB01      		movw r26,r22
 4618               	.LVL330:
 4619 17c0 8D93      		st X+,r24
 4620 17c2 BD01      		movw r22,r26
 4621               	.LVL331:
 4622               	.LM568:
 4623 17c4 2E15      		cp r18,r14
 4624 17c6 3F05      		cpc r19,r15
 4625 17c8 4007      		cpc r20,r16
 4626 17ca 5107      		cpc r21,r17
 4627 17cc 01F4      		brne .L265
 4628 17ce C05E      		subi r28,lo8(-288)
 4629 17d0 DE4F      		sbci r29,hi8(-288)
 4630 17d2 2883      		st Y,r18
 4631 17d4 3983      		std Y+1,r19
 4632 17d6 4A83      		std Y+2,r20
 4633 17d8 5B83      		std Y+3,r21
 4634 17da C052      		subi r28,lo8(288)
 4635 17dc D140      		sbci r29,hi8(288)
 4636               	.LVL332:
 4637               	.L264:
 4638               	.LM569:
 4639 17de 9601      		movw r18,r12
 4640               	.LVL333:
 4641 17e0 2D5F      		subi r18,lo8(-(3))
 4642 17e2 3F4F      		sbci r19,hi8(-(3))
 4643               	.LM570:
 4644 17e4 FB01      		movw r30,r22
 4645 17e6 1082      		st Z,__zero_reg__
 4646 17e8 00C0      		rjmp .L241
 4647               	.LVL334:
 4648               	.L218:
 4649               	.LBE770:
 4650               	.LM571:
 4651 17ea 80EC      		ldi r24,lo8(-64)
 4652 17ec 8A83      		std Y+2,r24
 4653               	.LVL335:
 4654               	.L353:
 4655 17ee 22E0      		ldi r18,lo8(2)
 4656 17f0 30E0      		ldi r19,hi8(2)
 4657               	.LVL336:
 4658               	.L241:
 4659               	.LBB773:
 4660               	.LBB774:
 4661               	.LM572:
 4662 17f2 8BE1      		ldi r24,lo8(27)
 4663               	.LVL337:
 4664 17f4 8093 C600 		sts 198,r24
 4665               	.L266:
 4666               	.LM573:
 4667 17f8 8091 C000 		lds r24,192
 4668 17fc 86FF      		sbrs r24,6
 4669 17fe 00C0      		rjmp .L266
 4670               	.LM574:
 4671 1800 8091 C000 		lds r24,192
 4672 1804 8064      		ori r24,lo8(64)
 4673 1806 8093 C000 		sts 192,r24
 4674               	.LBE774:
 4675               	.LBE773:
 4676               	.LBB775:
 4677               	.LBB776:
 4678               	.LM575:
 4679 180a C15D      		subi r28,lo8(-303)
 4680 180c DE4F      		sbci r29,hi8(-303)
 4681 180e F881      		ld r31,Y
 4682 1810 CF52      		subi r28,lo8(303)
 4683 1812 D140      		sbci r29,hi8(303)
 4684 1814 F093 C600 		sts 198,r31
 4685               	.L267:
 4686               	.LM576:
 4687 1818 8091 C000 		lds r24,192
 4688 181c 86FF      		sbrs r24,6
 4689 181e 00C0      		rjmp .L267
 4690               	.LM577:
 4691 1820 8091 C000 		lds r24,192
 4692 1824 8064      		ori r24,lo8(64)
 4693 1826 8093 C000 		sts 192,r24
 4694               	.LBE776:
 4695               	.LBE775:
 4696               	.LM578:
 4697 182a 432F      		mov r20,r19
 4698               	.LVL338:
 4699               	.LBB777:
 4700               	.LBB778:
 4701               	.LM579:
 4702 182c 3093 C600 		sts 198,r19
 4703               	.LVL339:
 4704               	.L268:
 4705               	.LM580:
 4706 1830 8091 C000 		lds r24,192
 4707 1834 86FF      		sbrs r24,6
 4708 1836 00C0      		rjmp .L268
 4709               	.LM581:
 4710 1838 8091 C000 		lds r24,192
 4711 183c 8064      		ori r24,lo8(64)
 4712 183e 8093 C000 		sts 192,r24
 4713               	.LBE778:
 4714               	.LBE777:
 4715               	.LM582:
 4716 1842 922F      		mov r25,r18
 4717               	.LVL340:
 4718               	.LBB779:
 4719               	.LBB780:
 4720               	.LM583:
 4721 1844 2093 C600 		sts 198,r18
 4722               	.L269:
 4723               	.LM584:
 4724 1848 8091 C000 		lds r24,192
 4725 184c 86FF      		sbrs r24,6
 4726 184e 00C0      		rjmp .L269
 4727               	.LM585:
 4728 1850 8091 C000 		lds r24,192
 4729 1854 8064      		ori r24,lo8(64)
 4730 1856 8093 C000 		sts 192,r24
 4731               	.LBE780:
 4732               	.LBE779:
 4733               	.LBB781:
 4734               	.LBB782:
 4735               	.LM586:
 4736 185a 8EE0      		ldi r24,lo8(14)
 4737 185c 8093 C600 		sts 198,r24
 4738               	.L270:
 4739               	.LM587:
 4740 1860 8091 C000 		lds r24,192
 4741 1864 86FF      		sbrs r24,6
 4742 1866 00C0      		rjmp .L270
 4743               	.LM588:
 4744 1868 8091 C000 		lds r24,192
 4745 186c 8064      		ori r24,lo8(64)
 4746 186e 8093 C000 		sts 192,r24
 4747               	.LBE782:
 4748               	.LBE781:
 4749               	.LM589:
 4750 1872 65E1      		ldi r22,lo8(21)
 4751               	.LVL341:
 4752 1874 C15D      		subi r28,lo8(-303)
 4753 1876 DE4F      		sbci r29,hi8(-303)
 4754 1878 E880      		ld r14,Y
 4755 187a CF52      		subi r28,lo8(303)
 4756 187c D140      		sbci r29,hi8(303)
 4757               	.LVL342:
 4758 187e 6E25      		eor r22,r14
 4759               	.LM590:
 4760 1880 6927      		eor r22,r25
 4761               	.LM591:
 4762 1882 6427      		eor r22,r20
 4763 1884 FE01      		movw r30,r28
 4764 1886 3196      		adiw r30,1
 4765 1888 00C0      		rjmp .L271
 4766               	.L273:
 4767               	.LM592:
 4768 188a 9081      		ld r25,Z
 4769               	.LBB783:
 4770               	.LBB784:
 4771               	.LM593:
 4772 188c 9093 C600 		sts 198,r25
 4773               	.L272:
 4774               	.LM594:
 4775 1890 8091 C000 		lds r24,192
 4776 1894 86FF      		sbrs r24,6
 4777 1896 00C0      		rjmp .L272
 4778               	.LBE784:
 4779               	.LBE783:
 4780               	.LM595:
 4781 1898 3196      		adiw r30,1
 4782               	.LBB786:
 4783               	.LBB785:
 4784               	.LM596:
 4785 189a 8091 C000 		lds r24,192
 4786 189e 8064      		ori r24,lo8(64)
 4787 18a0 8093 C000 		sts 192,r24
 4788               	.LBE785:
 4789               	.LBE786:
 4790               	.LM597:
 4791 18a4 6927      		eor r22,r25
 4792               	.LM598:
 4793 18a6 2150      		subi r18,lo8(-(-1))
 4794 18a8 3040      		sbci r19,hi8(-(-1))
 4795               	.LVL343:
 4796               	.L271:
 4797               	.LM599:
 4798 18aa 2115      		cp r18,__zero_reg__
 4799 18ac 3105      		cpc r19,__zero_reg__
 4800 18ae 01F4      		brne .L273
 4801               	.LBB787:
 4802               	.LBB788:
 4803               	.LM600:
 4804 18b0 6093 C600 		sts 198,r22
 4805               	.L274:
 4806               	.LM601:
 4807 18b4 8091 C000 		lds r24,192
 4808 18b8 86FF      		sbrs r24,6
 4809 18ba 00C0      		rjmp .L274
 4810               	.LM602:
 4811 18bc 8091 C000 		lds r24,192
 4812 18c0 8064      		ori r24,lo8(64)
 4813 18c2 8093 C000 		sts 192,r24
 4814               	.LBE788:
 4815               	.LBE787:
 4816               	.LM603:
 4817 18c6 8091 0801 		lds r24,264
 4818 18ca 90E4      		ldi r25,lo8(64)
 4819               	.LVL344:
 4820 18cc 8927      		eor r24,r25
 4821 18ce 8093 0801 		sts 264,r24
 4822               	.LM604:
 4823 18d2 7720      		tst r7
 4824 18d4 01F4      		brne .L82
 4825               	.LM605:
 4826 18d6 C15D      		subi r28,lo8(-303)
 4827 18d8 DE4F      		sbci r29,hi8(-303)
 4828 18da 0881      		ld r16,Y
 4829 18dc CF52      		subi r28,lo8(303)
 4830 18de D140      		sbci r29,hi8(303)
 4831               	.LVL345:
 4832 18e0 0F5F      		subi r16,lo8(-(1))
 4833 18e2 C15D      		subi r28,lo8(-303)
 4834 18e4 DE4F      		sbci r29,hi8(-303)
 4835 18e6 0883      		st Y,r16
 4836 18e8 CF52      		subi r28,lo8(303)
 4837 18ea D140      		sbci r29,hi8(303)
 4838               	.LVL346:
 4839               	.L83:
 4840 18ec 90E0      		ldi r25,lo8(0)
 4841               	.LVL347:
 4842 18ee A0E0      		ldi r26,lo8(0)
 4843 18f0 B0E0      		ldi r27,hi8(0)
 4844               	.LVL348:
 4845 18f2 0C94 0000 		jmp .L343
 4846               	.LVL349:
 4847               	.L82:
 4848               	.LM606:
 4849 18f6 8091 0701 		lds r24,263
 4850 18fa 8F7B      		andi r24,lo8(-65)
 4851 18fc 8093 0701 		sts 263,r24
 4852               	.LM607:
 4853 1900 8091 0801 		lds r24,264
 4854 1904 8F7B      		andi r24,lo8(-65)
 4855 1906 8093 0801 		sts 264,r24
 4856 190a 80E0      		ldi r24,lo8(0)
 4857 190c 90E0      		ldi r25,hi8(0)
 4858               	.LVL350:
 4859               	.LBB789:
 4860               	.LBB790:
 4861               	.LBB791:
 4862               	.LBB792:
 4863               	.LBB793:
 4864               	.LBB794:
 4865               	.LM608:
 4866 190e 20ED      		ldi r18,lo8(2000)
 4867 1910 37E0      		ldi r19,hi8(2000)
 4868               	.LVL351:
 4869               	.L275:
 4870 1912 F901      		movw r30,r18
 4871               	.LVL352:
 4872               	/* #APP */
 4873               	 ;  105 "c:/winavr-20100110/lib/gcc/../../avr/include/util/delay_basic.h" 1
 4874 1914 3197      		1: sbiw r30,1
 4875 1916 01F4      		brne 1b
 4876               	 ;  0 "" 2
 4877               	/* #NOAPP */
 4878               	.LBE794:
 4879               	.LBE793:
 4880               	.LBE792:
 4881               	.LBE791:
 4882               	.LM609:
 4883 1918 0196      		adiw r24,1
 4884 191a 8436      		cpi r24,100
 4885 191c 9105      		cpc r25,__zero_reg__
 4886 191e 01F4      		brne .L275
 4887               	.LBE790:
 4888               	.LBE789:
 4889               	.LM610:
 4890               	/* #APP */
 4891               	 ;  1163 "stk500boot.c" 1
 4892 1920 0000      		nop
 4893               	 ;  0 "" 2
 4894               	.LM611:
 4895               	/* #NOAPP */
 4896 1922 8091 C000 		lds r24,192
 4897               	.LVL353:
 4898 1926 8D7F      		andi r24,lo8(-3)
 4899 1928 8093 C000 		sts 192,r24
 4900               	.LM612:
 4901 192c 81E1      		ldi r24,lo8(17)
 4902               	/* #APP */
 4903               	 ;  1170 "stk500boot.c" 1
 4904 192e 8093 5700 		sts 87, r24
 4905 1932 E895      		spm
 4906               		
 4907               	 ;  0 "" 2
 4908               	.LM613:
 4909               	 ;  1173 "stk500boot.c" 1
 4910 1934 EE27      		clr	r30		
 4911 1936 FF27      		clr	r31		
 4912 1938 0994      		ijmp	
 4913               		
 4914               	 ;  0 "" 2
 4915               	/* #NOAPP */
 4916               	.L276:
 4917 193a 00C0      		rjmp .L276
 4918               	.LVL354:
 4919               	.L216:
 4920 193c 90E0      		ldi r25,lo8(0)
 4921 193e 0C94 0000 		jmp .L343
 4922               	.LFE12:
 4924               	.global	app_start
 4925               	.global	app_start
 4926               		.section .bss
 4929               	app_start:
 4930 0000 0000      		.skip 2,0
 4931               	.global	gTextMsg_CPU_Name
 4932               		.section	.progmem.data,"a",@progbits
 4935               	gTextMsg_CPU_Name:
 4936 0000 4154 6D65 		.string	"ATmega2560"
 4936      6761 3235 
 4936      3630 00
 4937               	.global	gTextMsg_Explorer
 4940               	gTextMsg_Explorer:
 4941 000b 4172 6475 		.string	"Arduino explorer stk500V2 by MLS"
 4941      696E 6F20 
 4941      6578 706C 
 4941      6F72 6572 
 4941      2073 746B 
 4942               	.global	gTextMsg_Prompt
 4945               	gTextMsg_Prompt:
 4946 002c 426F 6F74 		.string	"Bootloader>"
 4946      6C6F 6164 
 4946      6572 3E00 
 4947               	.global	gTextMsg_HUH
 4950               	gTextMsg_HUH:
 4951 0038 4875 683F 		.string	"Huh?"
 4951      00
 4952               	.global	gTextMsg_COMPILED_ON
 4955               	gTextMsg_COMPILED_ON:
 4956 003d 436F 6D70 		.string	"Compiled on = "
 4956      696C 6564 
 4956      206F 6E20 
 4956      3D20 00
 4957               	.global	gTextMsg_CPU_Type
 4960               	gTextMsg_CPU_Type:
 4961 004c 4350 5520 		.string	"CPU Type    = "
 4961      5479 7065 
 4961      2020 2020 
 4961      3D20 00
 4962               	.global	gTextMsg_AVR_ARCH
 4965               	gTextMsg_AVR_ARCH:
 4966 005b 5F5F 4156 		.string	"__AVR_ARCH__= "
 4966      525F 4152 
 4966      4348 5F5F 
 4966      3D20 00
 4967               	.global	gTextMsg_AVR_LIBC
 4970               	gTextMsg_AVR_LIBC:
 4971 006a 4156 5220 		.string	"AVR LibC Ver= "
 4971      4C69 6243 
 4971      2056 6572 
 4971      3D20 00
 4972               	.global	gTextMsg_GCC_VERSION
 4975               	gTextMsg_GCC_VERSION:
 4976 0079 4743 4320 		.string	"GCC Version = "
 4976      5665 7273 
 4976      696F 6E20 
 4976      3D20 00
 4977               	.global	gTextMsg_CPU_SIGNATURE
 4980               	gTextMsg_CPU_SIGNATURE:
 4981 0088 4350 5520 		.string	"CPU ID      = "
 4981      4944 2020 
 4981      2020 2020 
 4981      3D20 00
 4982               	.global	gTextMsg_FUSE_BYTE_LOW
 4985               	gTextMsg_FUSE_BYTE_LOW:
 4986 0097 4C6F 7720 		.string	"Low fuse    = "
 4986      6675 7365 
 4986      2020 2020 
 4986      3D20 00
 4987               	.global	gTextMsg_FUSE_BYTE_HIGH
 4990               	gTextMsg_FUSE_BYTE_HIGH:
 4991 00a6 4869 6768 		.string	"High fuse   = "
 4991      2066 7573 
 4991      6520 2020 
 4991      3D20 00
 4992               	.global	gTextMsg_FUSE_BYTE_EXT
 4995               	gTextMsg_FUSE_BYTE_EXT:
 4996 00b5 4578 7420 		.string	"Ext fuse    = "
 4996      6675 7365 
 4996      2020 2020 
 4996      3D20 00
 4997               	.global	gTextMsg_FUSE_BYTE_LOCK
 5000               	gTextMsg_FUSE_BYTE_LOCK:
 5001 00c4 4C6F 636B 		.string	"Lock fuse   = "
 5001      2066 7573 
 5001      6520 2020 
 5001      3D20 00
 5002               	.global	gTextMsg_GCC_DATE_STR
 5005               	gTextMsg_GCC_DATE_STR:
 5006 00d3 4E6F 7620 		.string	"Nov 26 2015"
 5006      3236 2032 
 5006      3031 3500 
 5007               	.global	gTextMsg_AVR_LIBC_VER_STR
 5010               	gTextMsg_AVR_LIBC_VER_STR:
 5011 00df 312E 362E 		.string	"1.6.7"
 5011      3700 
 5012               	.global	gTextMsg_GCC_VERSION_STR
 5015               	gTextMsg_GCC_VERSION_STR:
 5016 00e5 342E 332E 		.string	"4.3.3"
 5016      3300 
 5017               	.global	gTextMsg_VECTOR_HEADER
 5020               	gTextMsg_VECTOR_HEADER:
 5021 00eb 5623 2020 		.string	"V#   ADDR   op code     instruction addr   Interrupt"
 5021      2041 4444 
 5021      5220 2020 
 5021      6F70 2063 
 5021      6F64 6520 
 5022               	.global	gTextMsg_noVector
 5025               	gTextMsg_noVector:
 5026 0120 6E6F 2076 		.string	"no vector"
 5026      6563 746F 
 5026      7200 
 5027               	.global	gTextMsg_rjmp
 5030               	gTextMsg_rjmp:
 5031 012a 726A 6D70 		.string	"rjmp  "
 5031      2020 00
 5032               	.global	gTextMsg_jmp
 5035               	gTextMsg_jmp:
 5036 0131 6A6D 7020 		.string	"jmp "
 5036      00
 5037               	.global	gTextMsg_WHAT_PORT
 5040               	gTextMsg_WHAT_PORT:
 5041 0136 5768 6174 		.string	"What port:"
 5041      2070 6F72 
 5041      743A 00
 5042               	.global	gTextMsg_PortNotSupported
 5045               	gTextMsg_PortNotSupported:
 5046 0141 506F 7274 		.string	"Port not supported"
 5046      206E 6F74 
 5046      2073 7570 
 5046      706F 7274 
 5046      6564 00
 5047               	.global	gTextMsg_MustBeLetter
 5050               	gTextMsg_MustBeLetter:
 5051 0154 4D75 7374 		.string	"Must be a letter"
 5051      2062 6520 
 5051      6120 6C65 
 5051      7474 6572 
 5051      00
 5052               	.global	gTextMsg_SPACE
 5055               	gTextMsg_SPACE:
 5056 0165 2000      		.string	" "
 5057               	.global	gTextMsg_WriteToEEprom
 5060               	gTextMsg_WriteToEEprom:
 5061 0167 5772 6974 		.string	"Writting EE"
 5061      7469 6E67 
 5061      2045 4500 
 5062               	.global	gTextMsg_ReadingEEprom
 5065               	gTextMsg_ReadingEEprom:
 5066 0173 5265 6164 		.string	"Reading EE"
 5066      696E 6720 
 5066      4545 00
 5067               	.global	gTextMsg_EEPROMerrorCnt
 5070               	gTextMsg_EEPROMerrorCnt:
 5071 017e 4545 2065 		.string	"EE err cnt="
 5071      7272 2063 
 5071      6E74 3D00 
 5072               	.global	gTextMsg_PORT
 5075               	gTextMsg_PORT:
 5076 018a 504F 5254 		.string	"PORT"
 5076      00
 5077               	.global	gTextMsg_HELP_MSG_0
 5080               	gTextMsg_HELP_MSG_0:
 5081 018f 303D 5A65 		.string	"0=Zero addr"
 5081      726F 2061 
 5081      6464 7200 
 5082               	.global	gTextMsg_HELP_MSG_QM
 5085               	gTextMsg_HELP_MSG_QM:
 5086 019b 3F3D 4350 		.string	"?=CPU stats"
 5086      5520 7374 
 5086      6174 7300 
 5087               	.global	gTextMsg_HELP_MSG_AT
 5090               	gTextMsg_HELP_MSG_AT:
 5091 01a7 403D 4545 		.string	"@=EEPROM test"
 5091      5052 4F4D 
 5091      2074 6573 
 5091      7400 
 5092               	.global	gTextMsg_HELP_MSG_B
 5095               	gTextMsg_HELP_MSG_B:
 5096 01b5 423D 426C 		.string	"B=Blink LED"
 5096      696E 6B20 
 5096      4C45 4400 
 5097               	.global	gTextMsg_HELP_MSG_E
 5100               	gTextMsg_HELP_MSG_E:
 5101 01c1 453D 4475 		.string	"E=Dump EEPROM"
 5101      6D70 2045 
 5101      4550 524F 
 5101      4D00 
 5102               	.global	gTextMsg_HELP_MSG_F
 5105               	gTextMsg_HELP_MSG_F:
 5106 01cf 463D 4475 		.string	"F=Dump FLASH"
 5106      6D70 2046 
 5106      4C41 5348 
 5106      00
 5107               	.global	gTextMsg_HELP_MSG_H
 5110               	gTextMsg_HELP_MSG_H:
 5111 01dc 483D 4865 		.string	"H=Help"
 5111      6C70 00
 5112               	.global	gTextMsg_HELP_MSG_L
 5115               	gTextMsg_HELP_MSG_L:
 5116 01e3 4C3D 4C69 		.string	"L=List I/O Ports"
 5116      7374 2049 
 5116      2F4F 2050 
 5116      6F72 7473 
 5116      00
 5117               	.global	gTextMsg_HELP_MSG_Q
 5120               	gTextMsg_HELP_MSG_Q:
 5121 01f4 513D 5175 		.string	"Q=Quit"
 5121      6974 00
 5122               	.global	gTextMsg_HELP_MSG_R
 5125               	gTextMsg_HELP_MSG_R:
 5126 01fb 523D 4475 		.string	"R=Dump RAM"
 5126      6D70 2052 
 5126      414D 00
 5127               	.global	gTextMsg_HELP_MSG_V
 5130               	gTextMsg_HELP_MSG_V:
 5131 0206 563D 7368 		.string	"V=show interrupt Vectors"
 5131      6F77 2069 
 5131      6E74 6572 
 5131      7275 7074 
 5131      2056 6563 
 5132               	.global	gTextMsg_HELP_MSG_Y
 5135               	gTextMsg_HELP_MSG_Y:
 5136 021f 593D 506F 		.string	"Y=Port blink"
 5136      7274 2062 
 5136      6C69 6E6B 
 5136      00
 5137               	.global	gTextMsg_END
 5140               	gTextMsg_END:
 5141 022c 2A00      		.string	"*"
 5142               		.comm gRamIndex,4,1
 5143               		.comm gFlashIndex,4,1
 5144               		.comm gEepromIndex,4,1
 5249               	.Letext0:
DEFINED SYMBOLS
                            *ABS*:00000000 stk500boot.c
C:\Users\MCOBLE~1.RDI\AppData\Local\Temp/ccQiNWRC.s:2      *ABS*:0000003f __SREG__
C:\Users\MCOBLE~1.RDI\AppData\Local\Temp/ccQiNWRC.s:3      *ABS*:0000003e __SP_H__
C:\Users\MCOBLE~1.RDI\AppData\Local\Temp/ccQiNWRC.s:4      *ABS*:0000003d __SP_L__
C:\Users\MCOBLE~1.RDI\AppData\Local\Temp/ccQiNWRC.s:5      *ABS*:00000034 __CCP__
C:\Users\MCOBLE~1.RDI\AppData\Local\Temp/ccQiNWRC.s:6      *ABS*:00000000 __tmp_reg__
C:\Users\MCOBLE~1.RDI\AppData\Local\Temp/ccQiNWRC.s:7      *ABS*:00000001 __zero_reg__
C:\Users\MCOBLE~1.RDI\AppData\Local\Temp/ccQiNWRC.s:19     .init9:00000000 __jumpMain
C:\Users\MCOBLE~1.RDI\AppData\Local\Temp/ccQiNWRC.s:27     *ABS*:000021ff __stack
C:\Users\MCOBLE~1.RDI\AppData\Local\Temp/ccQiNWRC.s:769    .text:00000358 main
C:\Users\MCOBLE~1.RDI\AppData\Local\Temp/ccQiNWRC.s:65     .text:00000000 delay_ms
C:\Users\MCOBLE~1.RDI\AppData\Local\Temp/ccQiNWRC.s:110    .text:0000001c PrintFromPROGMEM
C:\Users\MCOBLE~1.RDI\AppData\Local\Temp/ccQiNWRC.s:167    .text:00000050 PrintNewLine
C:\Users\MCOBLE~1.RDI\AppData\Local\Temp/ccQiNWRC.s:211    .text:00000082 PrintFromPROGMEMln
C:\Users\MCOBLE~1.RDI\AppData\Local\Temp/ccQiNWRC.s:229    .text:0000008c PrintString
C:\Users\MCOBLE~1.RDI\AppData\Local\Temp/ccQiNWRC.s:271    .text:000000b2 PrintHexByte
C:\Users\MCOBLE~1.RDI\AppData\Local\Temp/ccQiNWRC.s:341    .text:00000100 PrintDecInt
C:\Users\MCOBLE~1.RDI\AppData\Local\Temp/ccQiNWRC.s:444    .text:0000018e PrintAvailablePort
C:\Users\MCOBLE~1.RDI\AppData\Local\Temp/ccQiNWRC.s:5075   .progmem.data:0000018a gTextMsg_PORT
C:\Users\MCOBLE~1.RDI\AppData\Local\Temp/ccQiNWRC.s:483    .text:000001ba DumpHex
C:\Users\MCOBLE~1.RDI\AppData\Local\Temp/ccQiNWRC.s:4929   .bss:00000000 app_start
                            *COM*:00000004 gRamIndex
                            *COM*:00000004 gFlashIndex
                            *COM*:00000004 gEepromIndex
C:\Users\MCOBLE~1.RDI\AppData\Local\Temp/ccQiNWRC.s:4940   .progmem.data:0000000b gTextMsg_Explorer
C:\Users\MCOBLE~1.RDI\AppData\Local\Temp/ccQiNWRC.s:4945   .progmem.data:0000002c gTextMsg_Prompt
C:\Users\MCOBLE~1.RDI\AppData\Local\Temp/ccQiNWRC.s:5080   .progmem.data:0000018f gTextMsg_HELP_MSG_0
C:\Users\MCOBLE~1.RDI\AppData\Local\Temp/ccQiNWRC.s:5085   .progmem.data:0000019b gTextMsg_HELP_MSG_QM
C:\Users\MCOBLE~1.RDI\AppData\Local\Temp/ccQiNWRC.s:4955   .progmem.data:0000003d gTextMsg_COMPILED_ON
C:\Users\MCOBLE~1.RDI\AppData\Local\Temp/ccQiNWRC.s:5005   .progmem.data:000000d3 gTextMsg_GCC_DATE_STR
C:\Users\MCOBLE~1.RDI\AppData\Local\Temp/ccQiNWRC.s:4960   .progmem.data:0000004c gTextMsg_CPU_Type
C:\Users\MCOBLE~1.RDI\AppData\Local\Temp/ccQiNWRC.s:4935   .progmem.data:00000000 gTextMsg_CPU_Name
C:\Users\MCOBLE~1.RDI\AppData\Local\Temp/ccQiNWRC.s:4965   .progmem.data:0000005b gTextMsg_AVR_ARCH
C:\Users\MCOBLE~1.RDI\AppData\Local\Temp/ccQiNWRC.s:4975   .progmem.data:00000079 gTextMsg_GCC_VERSION
C:\Users\MCOBLE~1.RDI\AppData\Local\Temp/ccQiNWRC.s:5015   .progmem.data:000000e5 gTextMsg_GCC_VERSION_STR
C:\Users\MCOBLE~1.RDI\AppData\Local\Temp/ccQiNWRC.s:4970   .progmem.data:0000006a gTextMsg_AVR_LIBC
C:\Users\MCOBLE~1.RDI\AppData\Local\Temp/ccQiNWRC.s:5010   .progmem.data:000000df gTextMsg_AVR_LIBC_VER_STR
C:\Users\MCOBLE~1.RDI\AppData\Local\Temp/ccQiNWRC.s:4980   .progmem.data:00000088 gTextMsg_CPU_SIGNATURE
C:\Users\MCOBLE~1.RDI\AppData\Local\Temp/ccQiNWRC.s:4985   .progmem.data:00000097 gTextMsg_FUSE_BYTE_LOW
C:\Users\MCOBLE~1.RDI\AppData\Local\Temp/ccQiNWRC.s:4990   .progmem.data:000000a6 gTextMsg_FUSE_BYTE_HIGH
C:\Users\MCOBLE~1.RDI\AppData\Local\Temp/ccQiNWRC.s:4995   .progmem.data:000000b5 gTextMsg_FUSE_BYTE_EXT
C:\Users\MCOBLE~1.RDI\AppData\Local\Temp/ccQiNWRC.s:5000   .progmem.data:000000c4 gTextMsg_FUSE_BYTE_LOCK
C:\Users\MCOBLE~1.RDI\AppData\Local\Temp/ccQiNWRC.s:5090   .progmem.data:000001a7 gTextMsg_HELP_MSG_AT
C:\Users\MCOBLE~1.RDI\AppData\Local\Temp/ccQiNWRC.s:5060   .progmem.data:00000167 gTextMsg_WriteToEEprom
C:\Users\MCOBLE~1.RDI\AppData\Local\Temp/ccQiNWRC.s:5055   .progmem.data:00000165 gTextMsg_SPACE
C:\Users\MCOBLE~1.RDI\AppData\Local\Temp/ccQiNWRC.s:5065   .progmem.data:00000173 gTextMsg_ReadingEEprom
C:\Users\MCOBLE~1.RDI\AppData\Local\Temp/ccQiNWRC.s:5070   .progmem.data:0000017e gTextMsg_EEPROMerrorCnt
C:\Users\MCOBLE~1.RDI\AppData\Local\Temp/ccQiNWRC.s:5095   .progmem.data:000001b5 gTextMsg_HELP_MSG_B
C:\Users\MCOBLE~1.RDI\AppData\Local\Temp/ccQiNWRC.s:5100   .progmem.data:000001c1 gTextMsg_HELP_MSG_E
C:\Users\MCOBLE~1.RDI\AppData\Local\Temp/ccQiNWRC.s:5105   .progmem.data:000001cf gTextMsg_HELP_MSG_F
C:\Users\MCOBLE~1.RDI\AppData\Local\Temp/ccQiNWRC.s:5110   .progmem.data:000001dc gTextMsg_HELP_MSG_H
C:\Users\MCOBLE~1.RDI\AppData\Local\Temp/ccQiNWRC.s:5115   .progmem.data:000001e3 gTextMsg_HELP_MSG_L
C:\Users\MCOBLE~1.RDI\AppData\Local\Temp/ccQiNWRC.s:5120   .progmem.data:000001f4 gTextMsg_HELP_MSG_Q
C:\Users\MCOBLE~1.RDI\AppData\Local\Temp/ccQiNWRC.s:5125   .progmem.data:000001fb gTextMsg_HELP_MSG_R
C:\Users\MCOBLE~1.RDI\AppData\Local\Temp/ccQiNWRC.s:5130   .progmem.data:00000206 gTextMsg_HELP_MSG_V
C:\Users\MCOBLE~1.RDI\AppData\Local\Temp/ccQiNWRC.s:5135   .progmem.data:0000021f gTextMsg_HELP_MSG_Y
C:\Users\MCOBLE~1.RDI\AppData\Local\Temp/ccQiNWRC.s:5020   .progmem.data:000000eb gTextMsg_VECTOR_HEADER
C:\Users\MCOBLE~1.RDI\AppData\Local\Temp/ccQiNWRC.s:5025   .progmem.data:00000120 gTextMsg_noVector
C:\Users\MCOBLE~1.RDI\AppData\Local\Temp/ccQiNWRC.s:5030   .progmem.data:0000012a gTextMsg_rjmp
C:\Users\MCOBLE~1.RDI\AppData\Local\Temp/ccQiNWRC.s:5035   .progmem.data:00000131 gTextMsg_jmp
C:\Users\MCOBLE~1.RDI\AppData\Local\Temp/ccQiNWRC.s:5040   .progmem.data:00000136 gTextMsg_WHAT_PORT
C:\Users\MCOBLE~1.RDI\AppData\Local\Temp/ccQiNWRC.s:5045   .progmem.data:00000141 gTextMsg_PortNotSupported
C:\Users\MCOBLE~1.RDI\AppData\Local\Temp/ccQiNWRC.s:5050   .progmem.data:00000154 gTextMsg_MustBeLetter
C:\Users\MCOBLE~1.RDI\AppData\Local\Temp/ccQiNWRC.s:4950   .progmem.data:00000038 gTextMsg_HUH
C:\Users\MCOBLE~1.RDI\AppData\Local\Temp/ccQiNWRC.s:5140   .progmem.data:0000022c gTextMsg_END

UNDEFINED SYMBOLS
__divmodhi4
__eerd_byte_m2560
__udivmodsi4
__eewr_byte_m2560
__do_clear_bss
